ARM GAS  C:\Users\JASON\AppData\Local\Temp\cczgUn4m.s 			page 1


   1              		.syntax unified
   2              		.cpu cortex-m3
   3              		.fpu softvfp
   4              		.eabi_attribute 20, 1
   5              		.eabi_attribute 21, 1
   6              		.eabi_attribute 23, 3
   7              		.eabi_attribute 24, 1
   8              		.eabi_attribute 25, 1
   9              		.eabi_attribute 26, 1
  10              		.eabi_attribute 30, 1
  11              		.eabi_attribute 34, 1
  12              		.eabi_attribute 18, 4
  13              		.thumb
  14              		.syntax unified
  15              		.file	"main.c"
  16              		.text
  17              	.Ltext0:
  18              		.cfi_sections	.debug_frame
  19              		.section	.text.ISR2_systick_handler,"ax",%progbits
  20              		.align	2
  21              		.global	ISR2_systick_handler
  22              		.thumb
  23              		.thumb_func
  24              		.type	ISR2_systick_handler, %function
  25              	ISR2_systick_handler:
  26              	.LFB132:
  27              		.file 1 "SourceFiles\\asw\\main.c"
   1:SourceFiles\asw/main.c **** /* ========================================
   2:SourceFiles\asw/main.c ****  *
   3:SourceFiles\asw/main.c ****  * Copyright YOUR COMPANY, THE YEAR
   4:SourceFiles\asw/main.c ****  * All Rights Reserved
   5:SourceFiles\asw/main.c ****  * UNPUBLISHED, LICENSED SOFTWARE.
   6:SourceFiles\asw/main.c ****  *
   7:SourceFiles\asw/main.c ****  * CONFIDENTIAL AND PROPRIETARY INFORMATION
   8:SourceFiles\asw/main.c ****  * WHICH IS THE PROPERTY OF your company.
   9:SourceFiles\asw/main.c ****  *
  10:SourceFiles\asw/main.c ****  * ========================================
  11:SourceFiles\asw/main.c **** */
  12:SourceFiles\asw/main.c **** #include "project.h"
  13:SourceFiles\asw/main.c **** #include "global.h"
  14:SourceFiles\asw/main.c **** 
  15:SourceFiles\asw/main.c **** #include "tft.h"
  16:SourceFiles\asw/main.c **** 
  17:SourceFiles\asw/main.c **** #include "common.h"
  18:SourceFiles\asw/main.c **** #include "sp_common.h"
  19:SourceFiles\asw/main.c **** #include "sc_event.h"
  20:SourceFiles\asw/main.c **** #include "swc_clock_control.h"
  21:SourceFiles\asw/main.c **** 
  22:SourceFiles\asw/main.c **** #include "tsk_control.h"
  23:SourceFiles\asw/main.c **** #include "tsk_background.h"
  24:SourceFiles\asw/main.c **** 
  25:SourceFiles\asw/main.c **** /**
  26:SourceFiles\asw/main.c ****  * @brief The callback function associated with the alarm 'alrm_cyclic_1ms'.
  27:SourceFiles\asw/main.c ****  */
  28:SourceFiles\asw/main.c **** void alrm_callback();
  29:SourceFiles\asw/main.c **** 
  30:SourceFiles\asw/main.c **** //ISR which will increment the systick counter every ms
ARM GAS  C:\Users\JASON\AppData\Local\Temp\cczgUn4m.s 			page 2


  31:SourceFiles\asw/main.c **** ISR(systick_handler)
  32:SourceFiles\asw/main.c **** {
  28              		.loc 1 32 0
  29              		.cfi_startproc
  30              		@ args = 0, pretend = 0, frame = 0
  31              		@ frame_needed = 0, uses_anonymous_args = 0
  32 0000 08B5     		push	{r3, lr}
  33              		.cfi_def_cfa_offset 8
  34              		.cfi_offset 3, -8
  35              		.cfi_offset 14, -4
  33:SourceFiles\asw/main.c ****     CounterTick(cnt_systick);
  36              		.loc 1 33 0
  37 0002 0020     		movs	r0, #0
  38 0004 FFF7FEFF 		bl	EE_oo_IncrementCounter
  39              	.LVL0:
  40 0008 08BD     		pop	{r3, pc}
  41              		.cfi_endproc
  42              	.LFE132:
  43              		.size	ISR2_systick_handler, .-ISR2_systick_handler
  44 000a 00BF     		.section	.text.systick_handler,"ax",%progbits
  45              		.align	2
  46              		.global	systick_handler
  47              		.thumb
  48              		.thumb_func
  49              		.type	systick_handler, %function
  50              	systick_handler:
  51              	.LFB131:
  31:SourceFiles\asw/main.c **** {
  52              		.loc 1 31 0
  53              		.cfi_startproc
  54              		@ Stack Align: May be called with mis-aligned SP.
  55              		@ args = 0, pretend = 0, frame = 0
  56              		@ frame_needed = 0, uses_anonymous_args = 0
  57 0000 6846     		mov	r0, sp
  58              		.cfi_register 13, 0
  59 0002 20F00701 		bic	r1, r0, #7
  60 0006 8D46     		mov	sp, r1
  61 0008 19B5     		push	{r0, r3, r4, lr}
  62              		.cfi_def_cfa_offset 16
  63              		.cfi_offset 13, -16
  64              		.cfi_offset 3, -12
  65              		.cfi_offset 4, -8
  66              		.cfi_offset 14, -4
  67              	.LVL1:
  68              	.LBB120:
  69              	.LBB121:
  70              		.file 2 "Generated_Source\\PSoC5/ErikaOS_cortex_mx_ee_cpu.inc"
   1:Generated_Source\PSoC5/ErikaOS_cortex_mx_ee_cpu.inc **** /* ###*B*###
   2:Generated_Source\PSoC5/ErikaOS_cortex_mx_ee_cpu.inc ****  * ERIKA Enterprise - a tiny RTOS for small microcontrollers
   3:Generated_Source\PSoC5/ErikaOS_cortex_mx_ee_cpu.inc ****  *
   4:Generated_Source\PSoC5/ErikaOS_cortex_mx_ee_cpu.inc ****  * Copyright (C) 2002-2011  Evidence Srl
   5:Generated_Source\PSoC5/ErikaOS_cortex_mx_ee_cpu.inc ****  *
   6:Generated_Source\PSoC5/ErikaOS_cortex_mx_ee_cpu.inc ****  * This file is part of ERIKA Enterprise.
   7:Generated_Source\PSoC5/ErikaOS_cortex_mx_ee_cpu.inc ****  *
   8:Generated_Source\PSoC5/ErikaOS_cortex_mx_ee_cpu.inc ****  * ERIKA Enterprise is free software; you can redistribute it
   9:Generated_Source\PSoC5/ErikaOS_cortex_mx_ee_cpu.inc ****  * and/or modify it under the terms of the GNU General Public License
  10:Generated_Source\PSoC5/ErikaOS_cortex_mx_ee_cpu.inc ****  * version 2 as published by the Free Software Foundation, 
ARM GAS  C:\Users\JASON\AppData\Local\Temp\cczgUn4m.s 			page 3


  11:Generated_Source\PSoC5/ErikaOS_cortex_mx_ee_cpu.inc ****  * (with a special exception described below).
  12:Generated_Source\PSoC5/ErikaOS_cortex_mx_ee_cpu.inc ****  *
  13:Generated_Source\PSoC5/ErikaOS_cortex_mx_ee_cpu.inc ****  * Linking this code statically or dynamically with other modules is
  14:Generated_Source\PSoC5/ErikaOS_cortex_mx_ee_cpu.inc ****  * making a combined work based on this code.  Thus, the terms and
  15:Generated_Source\PSoC5/ErikaOS_cortex_mx_ee_cpu.inc ****  * conditions of the GNU General Public License cover the whole
  16:Generated_Source\PSoC5/ErikaOS_cortex_mx_ee_cpu.inc ****  * combination.
  17:Generated_Source\PSoC5/ErikaOS_cortex_mx_ee_cpu.inc ****  *
  18:Generated_Source\PSoC5/ErikaOS_cortex_mx_ee_cpu.inc ****  * As a special exception, the copyright holders of this library give you
  19:Generated_Source\PSoC5/ErikaOS_cortex_mx_ee_cpu.inc ****  * permission to link this code with independent modules to produce an
  20:Generated_Source\PSoC5/ErikaOS_cortex_mx_ee_cpu.inc ****  * executable, regardless of the license terms of these independent
  21:Generated_Source\PSoC5/ErikaOS_cortex_mx_ee_cpu.inc ****  * modules, and to copy and distribute the resulting executable under
  22:Generated_Source\PSoC5/ErikaOS_cortex_mx_ee_cpu.inc ****  * terms of your choice, provided that you also meet, for each linked
  23:Generated_Source\PSoC5/ErikaOS_cortex_mx_ee_cpu.inc ****  * independent module, the terms and conditions of the license of that
  24:Generated_Source\PSoC5/ErikaOS_cortex_mx_ee_cpu.inc ****  * module.  An independent module is a module which is not derived from
  25:Generated_Source\PSoC5/ErikaOS_cortex_mx_ee_cpu.inc ****  * or based on this library.  If you modify this code, you may extend
  26:Generated_Source\PSoC5/ErikaOS_cortex_mx_ee_cpu.inc ****  * this exception to your version of the code, but you are not
  27:Generated_Source\PSoC5/ErikaOS_cortex_mx_ee_cpu.inc ****  * obligated to do so.  If you do not wish to do so, delete this
  28:Generated_Source\PSoC5/ErikaOS_cortex_mx_ee_cpu.inc ****  * exception statement from your version.
  29:Generated_Source\PSoC5/ErikaOS_cortex_mx_ee_cpu.inc ****  *
  30:Generated_Source\PSoC5/ErikaOS_cortex_mx_ee_cpu.inc ****  * ERIKA Enterprise is distributed in the hope that it will be
  31:Generated_Source\PSoC5/ErikaOS_cortex_mx_ee_cpu.inc ****  * useful, but WITHOUT ANY WARRANTY; without even the implied warranty
  32:Generated_Source\PSoC5/ErikaOS_cortex_mx_ee_cpu.inc ****  * of MERCHANTABILITY or FITNESS FOR A PARTICULAR PURPOSE.  See the
  33:Generated_Source\PSoC5/ErikaOS_cortex_mx_ee_cpu.inc ****  * GNU General Public License version 2 for more details.
  34:Generated_Source\PSoC5/ErikaOS_cortex_mx_ee_cpu.inc ****  *
  35:Generated_Source\PSoC5/ErikaOS_cortex_mx_ee_cpu.inc ****  * You should have received a copy of the GNU General Public License
  36:Generated_Source\PSoC5/ErikaOS_cortex_mx_ee_cpu.inc ****  * version 2 along with ERIKA Enterprise; if not, write to the
  37:Generated_Source\PSoC5/ErikaOS_cortex_mx_ee_cpu.inc ****  * Free Software Foundation, Inc., 51 Franklin Street, Fifth Floor,
  38:Generated_Source\PSoC5/ErikaOS_cortex_mx_ee_cpu.inc ****  * Boston, MA 02110-1301 USA.
  39:Generated_Source\PSoC5/ErikaOS_cortex_mx_ee_cpu.inc ****  * ###*E*### */
  40:Generated_Source\PSoC5/ErikaOS_cortex_mx_ee_cpu.inc **** 
  41:Generated_Source\PSoC5/ErikaOS_cortex_mx_ee_cpu.inc **** /** 
  42:Generated_Source\PSoC5/ErikaOS_cortex_mx_ee_cpu.inc **** 	@file ee_cpu.h
  43:Generated_Source\PSoC5/ErikaOS_cortex_mx_ee_cpu.inc **** 	@brief CPU-dependent part of HAL. Derived from pkg/cpu/pic30/inc/ee_cpu.h
  44:Generated_Source\PSoC5/ErikaOS_cortex_mx_ee_cpu.inc **** 	@author Gianluca Franchino
  45:Generated_Source\PSoC5/ErikaOS_cortex_mx_ee_cpu.inc **** 	@author Giuseppe Serano
  46:Generated_Source\PSoC5/ErikaOS_cortex_mx_ee_cpu.inc **** 	@date 2011
  47:Generated_Source\PSoC5/ErikaOS_cortex_mx_ee_cpu.inc **** */ 
  48:Generated_Source\PSoC5/ErikaOS_cortex_mx_ee_cpu.inc ****     
  49:Generated_Source\PSoC5/ErikaOS_cortex_mx_ee_cpu.inc **** /*
  50:Generated_Source\PSoC5/ErikaOS_cortex_mx_ee_cpu.inc ****  * PSoC Port and API Generation
  51:Generated_Source\PSoC5/ErikaOS_cortex_mx_ee_cpu.inc ****  * Carlos Fernando Meier Martinez
  52:Generated_Source\PSoC5/ErikaOS_cortex_mx_ee_cpu.inc ****  * Hochschule Darmstadt, Germany. 2017.
  53:Generated_Source\PSoC5/ErikaOS_cortex_mx_ee_cpu.inc ****  */
  54:Generated_Source\PSoC5/ErikaOS_cortex_mx_ee_cpu.inc **** 
  55:Generated_Source\PSoC5/ErikaOS_cortex_mx_ee_cpu.inc **** #ifndef __INCLUDE_CORTEX_MX_EE_CPU_H__
  56:Generated_Source\PSoC5/ErikaOS_cortex_mx_ee_cpu.inc **** #define __INCLUDE_CORTEX_MX_EE_CPU_H__
  57:Generated_Source\PSoC5/ErikaOS_cortex_mx_ee_cpu.inc **** 
  58:Generated_Source\PSoC5/ErikaOS_cortex_mx_ee_cpu.inc **** #include "ErikaOS_eecfg.inc"
  59:Generated_Source\PSoC5/ErikaOS_cortex_mx_ee_cpu.inc **** 
  60:Generated_Source\PSoC5/ErikaOS_cortex_mx_ee_cpu.inc **** 
  61:Generated_Source\PSoC5/ErikaOS_cortex_mx_ee_cpu.inc **** #ifdef __GNU__
  62:Generated_Source\PSoC5/ErikaOS_cortex_mx_ee_cpu.inc **** #include "ErikaOS_common_ee_compiler_gcc.inc"
  63:Generated_Source\PSoC5/ErikaOS_cortex_mx_ee_cpu.inc **** #endif
  64:Generated_Source\PSoC5/ErikaOS_cortex_mx_ee_cpu.inc **** 
  65:Generated_Source\PSoC5/ErikaOS_cortex_mx_ee_cpu.inc **** /* Initial stack offset (in words): Used in multistack. */
  66:Generated_Source\PSoC5/ErikaOS_cortex_mx_ee_cpu.inc **** #ifndef CORTEX_MX_INIT_TOS_OFFSET
  67:Generated_Source\PSoC5/ErikaOS_cortex_mx_ee_cpu.inc **** #define CORTEX_MX_INIT_TOS_OFFSET 10
ARM GAS  C:\Users\JASON\AppData\Local\Temp\cczgUn4m.s 			page 4


  68:Generated_Source\PSoC5/ErikaOS_cortex_mx_ee_cpu.inc **** #endif
  69:Generated_Source\PSoC5/ErikaOS_cortex_mx_ee_cpu.inc **** 
  70:Generated_Source\PSoC5/ErikaOS_cortex_mx_ee_cpu.inc **** /*************************************************************************
  71:Generated_Source\PSoC5/ErikaOS_cortex_mx_ee_cpu.inc ****  HAL Types and structures
  72:Generated_Source\PSoC5/ErikaOS_cortex_mx_ee_cpu.inc ****  *************************************************************************/
  73:Generated_Source\PSoC5/ErikaOS_cortex_mx_ee_cpu.inc **** 
  74:Generated_Source\PSoC5/ErikaOS_cortex_mx_ee_cpu.inc **** /* Primitive data types */
  75:Generated_Source\PSoC5/ErikaOS_cortex_mx_ee_cpu.inc **** #include "ErikaOS_common_ee_types.inc"
  76:Generated_Source\PSoC5/ErikaOS_cortex_mx_ee_cpu.inc **** 
  77:Generated_Source\PSoC5/ErikaOS_cortex_mx_ee_cpu.inc **** typedef EE_UINT32 EE_UREG;
  78:Generated_Source\PSoC5/ErikaOS_cortex_mx_ee_cpu.inc **** typedef EE_INT32  EE_SREG;
  79:Generated_Source\PSoC5/ErikaOS_cortex_mx_ee_cpu.inc **** typedef EE_UINT32 EE_FREG;
  80:Generated_Source\PSoC5/ErikaOS_cortex_mx_ee_cpu.inc **** #define EE_UREG_SIZE 4
  81:Generated_Source\PSoC5/ErikaOS_cortex_mx_ee_cpu.inc **** 
  82:Generated_Source\PSoC5/ErikaOS_cortex_mx_ee_cpu.inc **** /* boolean type */
  83:Generated_Source\PSoC5/ErikaOS_cortex_mx_ee_cpu.inc **** #ifndef EE_TYPEBOOL
  84:Generated_Source\PSoC5/ErikaOS_cortex_mx_ee_cpu.inc **** typedef EE_UREG EE_TYPEBOOL;
  85:Generated_Source\PSoC5/ErikaOS_cortex_mx_ee_cpu.inc **** #endif
  86:Generated_Source\PSoC5/ErikaOS_cortex_mx_ee_cpu.inc **** 
  87:Generated_Source\PSoC5/ErikaOS_cortex_mx_ee_cpu.inc **** /* boolean true define */
  88:Generated_Source\PSoC5/ErikaOS_cortex_mx_ee_cpu.inc **** #ifndef EE_TRUE
  89:Generated_Source\PSoC5/ErikaOS_cortex_mx_ee_cpu.inc **** #define EE_TRUE ((EE_TYPEBOOL)1U)
  90:Generated_Source\PSoC5/ErikaOS_cortex_mx_ee_cpu.inc **** #endif
  91:Generated_Source\PSoC5/ErikaOS_cortex_mx_ee_cpu.inc **** 
  92:Generated_Source\PSoC5/ErikaOS_cortex_mx_ee_cpu.inc **** /* boolean false define */
  93:Generated_Source\PSoC5/ErikaOS_cortex_mx_ee_cpu.inc **** #ifndef EE_FALSE
  94:Generated_Source\PSoC5/ErikaOS_cortex_mx_ee_cpu.inc **** #define EE_FALSE ((EE_TYPEBOOL)0U)
  95:Generated_Source\PSoC5/ErikaOS_cortex_mx_ee_cpu.inc **** #endif
  96:Generated_Source\PSoC5/ErikaOS_cortex_mx_ee_cpu.inc **** 
  97:Generated_Source\PSoC5/ErikaOS_cortex_mx_ee_cpu.inc **** #define	EE_HWREG_PTR		volatile EE_UREG *
  98:Generated_Source\PSoC5/ErikaOS_cortex_mx_ee_cpu.inc **** #define	EE_HWREG_ADDR(x)	((EE_HWREG_PTR)(x))
  99:Generated_Source\PSoC5/ErikaOS_cortex_mx_ee_cpu.inc **** #define	EE_HWREG(x)		(*EE_HWREG_ADDR(x))
 100:Generated_Source\PSoC5/ErikaOS_cortex_mx_ee_cpu.inc **** 
 101:Generated_Source\PSoC5/ErikaOS_cortex_mx_ee_cpu.inc **** #ifdef __GNU__
 102:Generated_Source\PSoC5/ErikaOS_cortex_mx_ee_cpu.inc **** 
 103:Generated_Source\PSoC5/ErikaOS_cortex_mx_ee_cpu.inc **** /* Get current SP */
 104:Generated_Source\PSoC5/ErikaOS_cortex_mx_ee_cpu.inc **** __INLINE__ EE_UINT32  __current_sp(void)
 105:Generated_Source\PSoC5/ErikaOS_cortex_mx_ee_cpu.inc **** {
 106:Generated_Source\PSoC5/ErikaOS_cortex_mx_ee_cpu.inc **** EE_UINT32 temp;
 107:Generated_Source\PSoC5/ErikaOS_cortex_mx_ee_cpu.inc **** __ASM ("mov %0, sp" : "=r" (temp) : );
 108:Generated_Source\PSoC5/ErikaOS_cortex_mx_ee_cpu.inc **** return temp;
 109:Generated_Source\PSoC5/ErikaOS_cortex_mx_ee_cpu.inc **** }
 110:Generated_Source\PSoC5/ErikaOS_cortex_mx_ee_cpu.inc **** 
 111:Generated_Source\PSoC5/ErikaOS_cortex_mx_ee_cpu.inc **** /* Set a breakpoint */
 112:Generated_Source\PSoC5/ErikaOS_cortex_mx_ee_cpu.inc **** #define __breakpoint(value)	__ASM ("bkpt "#value)
 113:Generated_Source\PSoC5/ErikaOS_cortex_mx_ee_cpu.inc **** 
 114:Generated_Source\PSoC5/ErikaOS_cortex_mx_ee_cpu.inc **** #endif
 115:Generated_Source\PSoC5/ErikaOS_cortex_mx_ee_cpu.inc **** 
 116:Generated_Source\PSoC5/ErikaOS_cortex_mx_ee_cpu.inc **** /* ISR Priority representation type */
 117:Generated_Source\PSoC5/ErikaOS_cortex_mx_ee_cpu.inc **** typedef EE_UREG EE_TYPEISR2PRIO;
 118:Generated_Source\PSoC5/ErikaOS_cortex_mx_ee_cpu.inc **** 
 119:Generated_Source\PSoC5/ErikaOS_cortex_mx_ee_cpu.inc **** /* Thread IDs */
 120:Generated_Source\PSoC5/ErikaOS_cortex_mx_ee_cpu.inc **** typedef EE_INT32 EE_TID;
 121:Generated_Source\PSoC5/ErikaOS_cortex_mx_ee_cpu.inc **** 
 122:Generated_Source\PSoC5/ErikaOS_cortex_mx_ee_cpu.inc **** /* Thread IDs - unsigned version*/
 123:Generated_Source\PSoC5/ErikaOS_cortex_mx_ee_cpu.inc **** typedef EE_UINT32 EE_UTID;
 124:Generated_Source\PSoC5/ErikaOS_cortex_mx_ee_cpu.inc **** 
ARM GAS  C:\Users\JASON\AppData\Local\Temp\cczgUn4m.s 			page 5


 125:Generated_Source\PSoC5/ErikaOS_cortex_mx_ee_cpu.inc **** /* Used by the common layer to decide whether to start a new thread */
 126:Generated_Source\PSoC5/ErikaOS_cortex_mx_ee_cpu.inc **** #define TID_IS_STACKED_MARK 0x80000000
 127:Generated_Source\PSoC5/ErikaOS_cortex_mx_ee_cpu.inc **** 
 128:Generated_Source\PSoC5/ErikaOS_cortex_mx_ee_cpu.inc **** /* EE_TYPEIRQ is currently unused */
 129:Generated_Source\PSoC5/ErikaOS_cortex_mx_ee_cpu.inc **** 
 130:Generated_Source\PSoC5/ErikaOS_cortex_mx_ee_cpu.inc **** /* XXX: define EE_TIME? */
 131:Generated_Source\PSoC5/ErikaOS_cortex_mx_ee_cpu.inc **** 
 132:Generated_Source\PSoC5/ErikaOS_cortex_mx_ee_cpu.inc **** /* Use the "standard" implementation */
 133:Generated_Source\PSoC5/ErikaOS_cortex_mx_ee_cpu.inc **** #include "ErikaOS_common_ee_hal_structs.inc"
 134:Generated_Source\PSoC5/ErikaOS_cortex_mx_ee_cpu.inc **** 
 135:Generated_Source\PSoC5/ErikaOS_cortex_mx_ee_cpu.inc **** /******************************************************************************
 136:Generated_Source\PSoC5/ErikaOS_cortex_mx_ee_cpu.inc ****  Application dependent data types
 137:Generated_Source\PSoC5/ErikaOS_cortex_mx_ee_cpu.inc ****  ******************************************************************************/
 138:Generated_Source\PSoC5/ErikaOS_cortex_mx_ee_cpu.inc **** 
 139:Generated_Source\PSoC5/ErikaOS_cortex_mx_ee_cpu.inc **** #ifdef	__HAS_TYPES_H__
 140:Generated_Source\PSoC5/ErikaOS_cortex_mx_ee_cpu.inc **** #include	"types.h"
 141:Generated_Source\PSoC5/ErikaOS_cortex_mx_ee_cpu.inc **** #endif
 142:Generated_Source\PSoC5/ErikaOS_cortex_mx_ee_cpu.inc **** 
 143:Generated_Source\PSoC5/ErikaOS_cortex_mx_ee_cpu.inc **** /******************************************************************************
 144:Generated_Source\PSoC5/ErikaOS_cortex_mx_ee_cpu.inc ****  CPU Peripherals
 145:Generated_Source\PSoC5/ErikaOS_cortex_mx_ee_cpu.inc ****  ******************************************************************************/
 146:Generated_Source\PSoC5/ErikaOS_cortex_mx_ee_cpu.inc **** 
 147:Generated_Source\PSoC5/ErikaOS_cortex_mx_ee_cpu.inc **** #ifdef __CORTEX_MX__
 148:Generated_Source\PSoC5/ErikaOS_cortex_mx_ee_cpu.inc **** #include "ErikaOS_cortex_mx_ee_nvic.inc"
 149:Generated_Source\PSoC5/ErikaOS_cortex_mx_ee_cpu.inc **** #include "ErikaOS_cortex_mx_ee_systick.inc"
 150:Generated_Source\PSoC5/ErikaOS_cortex_mx_ee_cpu.inc **** #endif
 151:Generated_Source\PSoC5/ErikaOS_cortex_mx_ee_cpu.inc **** 
 152:Generated_Source\PSoC5/ErikaOS_cortex_mx_ee_cpu.inc **** /******************************************************************************
 153:Generated_Source\PSoC5/ErikaOS_cortex_mx_ee_cpu.inc ****  HAL Variables
 154:Generated_Source\PSoC5/ErikaOS_cortex_mx_ee_cpu.inc ****  ******************************************************************************/
 155:Generated_Source\PSoC5/ErikaOS_cortex_mx_ee_cpu.inc **** 
 156:Generated_Source\PSoC5/ErikaOS_cortex_mx_ee_cpu.inc **** #ifdef __MULTI__
 157:Generated_Source\PSoC5/ErikaOS_cortex_mx_ee_cpu.inc **** 
 158:Generated_Source\PSoC5/ErikaOS_cortex_mx_ee_cpu.inc **** /* Top-of-stack of each private stack */
 159:Generated_Source\PSoC5/ErikaOS_cortex_mx_ee_cpu.inc **** extern struct EE_TOS EE_cortex_mx_system_tos[];
 160:Generated_Source\PSoC5/ErikaOS_cortex_mx_ee_cpu.inc **** //#define	EE_std_system_tos EE_cortex_mx_system_tos
 161:Generated_Source\PSoC5/ErikaOS_cortex_mx_ee_cpu.inc **** 
 162:Generated_Source\PSoC5/ErikaOS_cortex_mx_ee_cpu.inc **** /* Index of the current stack */
 163:Generated_Source\PSoC5/ErikaOS_cortex_mx_ee_cpu.inc **** extern EE_UREG EE_cortex_mx_active_tos;
 164:Generated_Source\PSoC5/ErikaOS_cortex_mx_ee_cpu.inc **** #define	EE_hal_active_tos EE_cortex_mx_active_tos
 165:Generated_Source\PSoC5/ErikaOS_cortex_mx_ee_cpu.inc **** 
 166:Generated_Source\PSoC5/ErikaOS_cortex_mx_ee_cpu.inc **** /*extern	EE_UREG EE_pic30_thread_tos[];
 167:Generated_Source\PSoC5/ErikaOS_cortex_mx_ee_cpu.inc **** #define	EE_std_thread_tos EE_pic30_thread_tos */
 168:Generated_Source\PSoC5/ErikaOS_cortex_mx_ee_cpu.inc **** #endif /* __MULTI__ */
 169:Generated_Source\PSoC5/ErikaOS_cortex_mx_ee_cpu.inc **** 
 170:Generated_Source\PSoC5/ErikaOS_cortex_mx_ee_cpu.inc **** /*********************************************************************
 171:Generated_Source\PSoC5/ErikaOS_cortex_mx_ee_cpu.inc ****  Cortex M0 interrupt disabling/enabling
 172:Generated_Source\PSoC5/ErikaOS_cortex_mx_ee_cpu.inc ****  *********************************************************************/
 173:Generated_Source\PSoC5/ErikaOS_cortex_mx_ee_cpu.inc **** 
 174:Generated_Source\PSoC5/ErikaOS_cortex_mx_ee_cpu.inc **** /* Used to check the value returned by EE_cortex_mx_disableIRQ */
 175:Generated_Source\PSoC5/ErikaOS_cortex_mx_ee_cpu.inc **** #define EE_cortex_mx_are_IRQs_enabled(ie) ((ie) ^ 1)
 176:Generated_Source\PSoC5/ErikaOS_cortex_mx_ee_cpu.inc **** 
 177:Generated_Source\PSoC5/ErikaOS_cortex_mx_ee_cpu.inc **** /**
 178:Generated_Source\PSoC5/ErikaOS_cortex_mx_ee_cpu.inc ****  * Enable interrupts
 179:Generated_Source\PSoC5/ErikaOS_cortex_mx_ee_cpu.inc ****  */
 180:Generated_Source\PSoC5/ErikaOS_cortex_mx_ee_cpu.inc **** __INLINE__ void  EE_cortex_mx_enableIRQ(void)
 181:Generated_Source\PSoC5/ErikaOS_cortex_mx_ee_cpu.inc **** {
ARM GAS  C:\Users\JASON\AppData\Local\Temp\cczgUn4m.s 			page 6


 182:Generated_Source\PSoC5/ErikaOS_cortex_mx_ee_cpu.inc **** #ifdef __IAR__
 183:Generated_Source\PSoC5/ErikaOS_cortex_mx_ee_cpu.inc **** 	__ASM ("cpsie i");
 184:Generated_Source\PSoC5/ErikaOS_cortex_mx_ee_cpu.inc **** #else	/* __IAR__ */
 185:Generated_Source\PSoC5/ErikaOS_cortex_mx_ee_cpu.inc **** #ifdef __CCS__
 186:Generated_Source\PSoC5/ErikaOS_cortex_mx_ee_cpu.inc **** 	__ASM ("    cpsie    i\n");
 187:Generated_Source\PSoC5/ErikaOS_cortex_mx_ee_cpu.inc **** #else	/* __CCS__ */
 188:Generated_Source\PSoC5/ErikaOS_cortex_mx_ee_cpu.inc **** #ifdef __KEIL__
 189:Generated_Source\PSoC5/ErikaOS_cortex_mx_ee_cpu.inc **** 	__enable_irq();
 190:Generated_Source\PSoC5/ErikaOS_cortex_mx_ee_cpu.inc **** #else	/* __KEIL__ */
 191:Generated_Source\PSoC5/ErikaOS_cortex_mx_ee_cpu.inc **** 	__ASM volatile("cpsie i");
 192:Generated_Source\PSoC5/ErikaOS_cortex_mx_ee_cpu.inc **** #endif	/* !__KEIL__ */
 193:Generated_Source\PSoC5/ErikaOS_cortex_mx_ee_cpu.inc **** #endif	/* !__CCS__ */
 194:Generated_Source\PSoC5/ErikaOS_cortex_mx_ee_cpu.inc **** #endif	/* !__IAR__ */
 195:Generated_Source\PSoC5/ErikaOS_cortex_mx_ee_cpu.inc **** }
 196:Generated_Source\PSoC5/ErikaOS_cortex_mx_ee_cpu.inc **** 
 197:Generated_Source\PSoC5/ErikaOS_cortex_mx_ee_cpu.inc **** /**
 198:Generated_Source\PSoC5/ErikaOS_cortex_mx_ee_cpu.inc ****  * Disable interrupts
 199:Generated_Source\PSoC5/ErikaOS_cortex_mx_ee_cpu.inc ****  */
 200:Generated_Source\PSoC5/ErikaOS_cortex_mx_ee_cpu.inc **** __INLINE__ void  EE_cortex_mx_disableIRQ(void)
 201:Generated_Source\PSoC5/ErikaOS_cortex_mx_ee_cpu.inc **** {
 202:Generated_Source\PSoC5/ErikaOS_cortex_mx_ee_cpu.inc **** #ifdef __IAR__
 203:Generated_Source\PSoC5/ErikaOS_cortex_mx_ee_cpu.inc **** 	__ASM ("cpsid i");
 204:Generated_Source\PSoC5/ErikaOS_cortex_mx_ee_cpu.inc **** #else	/* __IAR__ */
 205:Generated_Source\PSoC5/ErikaOS_cortex_mx_ee_cpu.inc **** #ifdef __CCS__
 206:Generated_Source\PSoC5/ErikaOS_cortex_mx_ee_cpu.inc **** 	__ASM ("    cpsid    i\n");
 207:Generated_Source\PSoC5/ErikaOS_cortex_mx_ee_cpu.inc **** #else	/* __CCS__ */
 208:Generated_Source\PSoC5/ErikaOS_cortex_mx_ee_cpu.inc **** #ifdef __KEIL__
 209:Generated_Source\PSoC5/ErikaOS_cortex_mx_ee_cpu.inc **** 	__disable_irq();
 210:Generated_Source\PSoC5/ErikaOS_cortex_mx_ee_cpu.inc **** #else	/* __KEIL__ */
 211:Generated_Source\PSoC5/ErikaOS_cortex_mx_ee_cpu.inc **** 	__ASM volatile("cpsid i");
  71              		.loc 2 211 0
  72              		.syntax unified
  73              	@ 211 "Generated_Source\PSoC5/ErikaOS_cortex_mx_ee_cpu.inc" 1
  74 000a 72B6     		cpsid i
  75              	@ 0 "" 2
  76              		.thumb
  77              		.syntax unified
  78              	.LBE121:
  79              	.LBE120:
  80              	.LBB122:
  81              	.LBB123:
 212:Generated_Source\PSoC5/ErikaOS_cortex_mx_ee_cpu.inc **** #endif	/* !__KEIL__ */
 213:Generated_Source\PSoC5/ErikaOS_cortex_mx_ee_cpu.inc **** #endif	/* !__CCS__ */
 214:Generated_Source\PSoC5/ErikaOS_cortex_mx_ee_cpu.inc **** #endif	/* !__IAR__ */
 215:Generated_Source\PSoC5/ErikaOS_cortex_mx_ee_cpu.inc **** }
 216:Generated_Source\PSoC5/ErikaOS_cortex_mx_ee_cpu.inc **** 
 217:Generated_Source\PSoC5/ErikaOS_cortex_mx_ee_cpu.inc **** /**
 218:Generated_Source\PSoC5/ErikaOS_cortex_mx_ee_cpu.inc ****  * Resume interrupts
 219:Generated_Source\PSoC5/ErikaOS_cortex_mx_ee_cpu.inc ****  */
 220:Generated_Source\PSoC5/ErikaOS_cortex_mx_ee_cpu.inc **** __INLINE__ void  EE_cortex_mx_resumeIRQ(EE_FREG f)
 221:Generated_Source\PSoC5/ErikaOS_cortex_mx_ee_cpu.inc **** {
 222:Generated_Source\PSoC5/ErikaOS_cortex_mx_ee_cpu.inc **** #ifdef __IAR__
 223:Generated_Source\PSoC5/ErikaOS_cortex_mx_ee_cpu.inc **** 	__set_PRIMASK(f);
 224:Generated_Source\PSoC5/ErikaOS_cortex_mx_ee_cpu.inc **** #else	/* __IAR__ */
 225:Generated_Source\PSoC5/ErikaOS_cortex_mx_ee_cpu.inc **** #ifdef __CCS__
 226:Generated_Source\PSoC5/ErikaOS_cortex_mx_ee_cpu.inc **** 	__ASM ("    msr    primask, r0\n");
 227:Generated_Source\PSoC5/ErikaOS_cortex_mx_ee_cpu.inc **** #else	/* __CCS__ */
ARM GAS  C:\Users\JASON\AppData\Local\Temp\cczgUn4m.s 			page 7


 228:Generated_Source\PSoC5/ErikaOS_cortex_mx_ee_cpu.inc **** #ifdef __KEIL__
 229:Generated_Source\PSoC5/ErikaOS_cortex_mx_ee_cpu.inc **** 	register EE_FREG PRIMASK __ASM("primask");
 230:Generated_Source\PSoC5/ErikaOS_cortex_mx_ee_cpu.inc **** 	PRIMASK = f;
 231:Generated_Source\PSoC5/ErikaOS_cortex_mx_ee_cpu.inc **** #else	/* __KEIL__ */
 232:Generated_Source\PSoC5/ErikaOS_cortex_mx_ee_cpu.inc **** 	__ASM volatile("msr primask, %0" :: "r" (f));
 233:Generated_Source\PSoC5/ErikaOS_cortex_mx_ee_cpu.inc **** #endif	/* !__KEIL__ */
 234:Generated_Source\PSoC5/ErikaOS_cortex_mx_ee_cpu.inc **** #endif	/* !__CCS__ */
 235:Generated_Source\PSoC5/ErikaOS_cortex_mx_ee_cpu.inc **** #endif	/* !__IAR__ */
 236:Generated_Source\PSoC5/ErikaOS_cortex_mx_ee_cpu.inc **** }
 237:Generated_Source\PSoC5/ErikaOS_cortex_mx_ee_cpu.inc **** 
 238:Generated_Source\PSoC5/ErikaOS_cortex_mx_ee_cpu.inc **** /**
 239:Generated_Source\PSoC5/ErikaOS_cortex_mx_ee_cpu.inc ****  * Suspend interrupts
 240:Generated_Source\PSoC5/ErikaOS_cortex_mx_ee_cpu.inc ****  */
 241:Generated_Source\PSoC5/ErikaOS_cortex_mx_ee_cpu.inc **** __INLINE__ EE_FREG  EE_cortex_mx_suspendIRQ(void)
 242:Generated_Source\PSoC5/ErikaOS_cortex_mx_ee_cpu.inc **** {
 243:Generated_Source\PSoC5/ErikaOS_cortex_mx_ee_cpu.inc **** #ifndef __CCS__
 244:Generated_Source\PSoC5/ErikaOS_cortex_mx_ee_cpu.inc **** 	EE_FREG istat;
 245:Generated_Source\PSoC5/ErikaOS_cortex_mx_ee_cpu.inc **** #endif
 246:Generated_Source\PSoC5/ErikaOS_cortex_mx_ee_cpu.inc **** #ifdef __IAR__
 247:Generated_Source\PSoC5/ErikaOS_cortex_mx_ee_cpu.inc **** 	 istat = __get_PRIMASK();
 248:Generated_Source\PSoC5/ErikaOS_cortex_mx_ee_cpu.inc **** 	__ASM ("cpsid i");
 249:Generated_Source\PSoC5/ErikaOS_cortex_mx_ee_cpu.inc **** #else	/* __IAR__ */
 250:Generated_Source\PSoC5/ErikaOS_cortex_mx_ee_cpu.inc **** #ifdef __CCS__
 251:Generated_Source\PSoC5/ErikaOS_cortex_mx_ee_cpu.inc **** 	__ASM ("    mrs     r0, primask\n"
 252:Generated_Source\PSoC5/ErikaOS_cortex_mx_ee_cpu.inc **** 	       "    cpsid   i\n"
 253:Generated_Source\PSoC5/ErikaOS_cortex_mx_ee_cpu.inc **** 	       "    bx      lr\n");
 254:Generated_Source\PSoC5/ErikaOS_cortex_mx_ee_cpu.inc **** #else	/* __CCS__ */
 255:Generated_Source\PSoC5/ErikaOS_cortex_mx_ee_cpu.inc **** #ifdef __KEIL__
 256:Generated_Source\PSoC5/ErikaOS_cortex_mx_ee_cpu.inc **** 	register EE_FREG PRIMASK __ASM("primask");
 257:Generated_Source\PSoC5/ErikaOS_cortex_mx_ee_cpu.inc **** 	istat = PRIMASK;
 258:Generated_Source\PSoC5/ErikaOS_cortex_mx_ee_cpu.inc **** 	__disable_irq();
 259:Generated_Source\PSoC5/ErikaOS_cortex_mx_ee_cpu.inc **** #else	/* __KEIL__ */
 260:Generated_Source\PSoC5/ErikaOS_cortex_mx_ee_cpu.inc **** 	__ASM volatile ("mrs %0, primask" : "=r" (istat) );
 261:Generated_Source\PSoC5/ErikaOS_cortex_mx_ee_cpu.inc **** 	__ASM volatile ("cpsid i");
 262:Generated_Source\PSoC5/ErikaOS_cortex_mx_ee_cpu.inc **** #endif	/* !__KEIL__ */
 263:Generated_Source\PSoC5/ErikaOS_cortex_mx_ee_cpu.inc **** #endif	/* !__CCS__ */
 264:Generated_Source\PSoC5/ErikaOS_cortex_mx_ee_cpu.inc **** #endif	/* !__IAR__ */
 265:Generated_Source\PSoC5/ErikaOS_cortex_mx_ee_cpu.inc **** #ifdef __CCS__
 266:Generated_Source\PSoC5/ErikaOS_cortex_mx_ee_cpu.inc **** 	return 0;
 267:Generated_Source\PSoC5/ErikaOS_cortex_mx_ee_cpu.inc **** #else
 268:Generated_Source\PSoC5/ErikaOS_cortex_mx_ee_cpu.inc **** 	return istat;
 269:Generated_Source\PSoC5/ErikaOS_cortex_mx_ee_cpu.inc **** #endif
 270:Generated_Source\PSoC5/ErikaOS_cortex_mx_ee_cpu.inc **** }
 271:Generated_Source\PSoC5/ErikaOS_cortex_mx_ee_cpu.inc **** 
 272:Generated_Source\PSoC5/ErikaOS_cortex_mx_ee_cpu.inc **** /**
 273:Generated_Source\PSoC5/ErikaOS_cortex_mx_ee_cpu.inc ****  * Return true (not 0) if IRQs are enabled, 0 (false) if IRQ are disabled.
 274:Generated_Source\PSoC5/ErikaOS_cortex_mx_ee_cpu.inc ****  */
 275:Generated_Source\PSoC5/ErikaOS_cortex_mx_ee_cpu.inc **** __INLINE__ EE_UINT32  EE_cortex_mx_get_IRQ_enabled(void)
 276:Generated_Source\PSoC5/ErikaOS_cortex_mx_ee_cpu.inc **** {
 277:Generated_Source\PSoC5/ErikaOS_cortex_mx_ee_cpu.inc **** #ifndef __CCS__
 278:Generated_Source\PSoC5/ErikaOS_cortex_mx_ee_cpu.inc **** 	EE_UREG ie;
 279:Generated_Source\PSoC5/ErikaOS_cortex_mx_ee_cpu.inc **** #endif
 280:Generated_Source\PSoC5/ErikaOS_cortex_mx_ee_cpu.inc **** #ifdef __IAR__
 281:Generated_Source\PSoC5/ErikaOS_cortex_mx_ee_cpu.inc **** 	ie = __get_PRIMASK();
 282:Generated_Source\PSoC5/ErikaOS_cortex_mx_ee_cpu.inc **** #else	/* __IAR__ */
 283:Generated_Source\PSoC5/ErikaOS_cortex_mx_ee_cpu.inc **** #ifdef __CCS__
 284:Generated_Source\PSoC5/ErikaOS_cortex_mx_ee_cpu.inc **** 	__ASM ("    MRS     r0, PRIMASK\n"
ARM GAS  C:\Users\JASON\AppData\Local\Temp\cczgUn4m.s 			page 8


 285:Generated_Source\PSoC5/ErikaOS_cortex_mx_ee_cpu.inc **** 	       "    EOR     r0, #1\n"
 286:Generated_Source\PSoC5/ErikaOS_cortex_mx_ee_cpu.inc **** 	       "    bx      lr\n");
 287:Generated_Source\PSoC5/ErikaOS_cortex_mx_ee_cpu.inc **** #else	/* __CCS__ */
 288:Generated_Source\PSoC5/ErikaOS_cortex_mx_ee_cpu.inc **** #ifdef __KEIL__
 289:Generated_Source\PSoC5/ErikaOS_cortex_mx_ee_cpu.inc **** 	register EE_FREG PRIMASK __ASM("primask");
 290:Generated_Source\PSoC5/ErikaOS_cortex_mx_ee_cpu.inc **** 	ie = PRIMASK;
 291:Generated_Source\PSoC5/ErikaOS_cortex_mx_ee_cpu.inc **** #else	/* __KEIL__ */
 292:Generated_Source\PSoC5/ErikaOS_cortex_mx_ee_cpu.inc **** 	__ASM volatile ("MRS %0, primask" : "=r" (ie) );
 293:Generated_Source\PSoC5/ErikaOS_cortex_mx_ee_cpu.inc **** #endif	/* !__KEIL__ */
 294:Generated_Source\PSoC5/ErikaOS_cortex_mx_ee_cpu.inc **** #endif	/* !__CCS__ */
 295:Generated_Source\PSoC5/ErikaOS_cortex_mx_ee_cpu.inc **** #endif	/* !__IAR__ */
 296:Generated_Source\PSoC5/ErikaOS_cortex_mx_ee_cpu.inc **** #ifdef __CCS__
 297:Generated_Source\PSoC5/ErikaOS_cortex_mx_ee_cpu.inc **** 	return 0;
 298:Generated_Source\PSoC5/ErikaOS_cortex_mx_ee_cpu.inc **** #else
 299:Generated_Source\PSoC5/ErikaOS_cortex_mx_ee_cpu.inc **** 	return EE_cortex_mx_are_IRQs_enabled(ie);
 300:Generated_Source\PSoC5/ErikaOS_cortex_mx_ee_cpu.inc **** #endif
 301:Generated_Source\PSoC5/ErikaOS_cortex_mx_ee_cpu.inc **** }
 302:Generated_Source\PSoC5/ErikaOS_cortex_mx_ee_cpu.inc **** 
 303:Generated_Source\PSoC5/ErikaOS_cortex_mx_ee_cpu.inc **** __INLINE__ EE_TYPEISR2PRIO  EE_cortex_mx_get_int_prio(void)
 304:Generated_Source\PSoC5/ErikaOS_cortex_mx_ee_cpu.inc **** {
 305:Generated_Source\PSoC5/ErikaOS_cortex_mx_ee_cpu.inc **** #ifdef __CORTEX_M4__
 306:Generated_Source\PSoC5/ErikaOS_cortex_mx_ee_cpu.inc **** 
 307:Generated_Source\PSoC5/ErikaOS_cortex_mx_ee_cpu.inc **** #ifndef __CCS__
 308:Generated_Source\PSoC5/ErikaOS_cortex_mx_ee_cpu.inc **** 	register EE_UREG prio;
 309:Generated_Source\PSoC5/ErikaOS_cortex_mx_ee_cpu.inc **** #ifdef	__KEIL__
 310:Generated_Source\PSoC5/ErikaOS_cortex_mx_ee_cpu.inc **** 	register EE_FREG BASEPRI __ASM("basepri");
 311:Generated_Source\PSoC5/ErikaOS_cortex_mx_ee_cpu.inc **** #endif
 312:Generated_Source\PSoC5/ErikaOS_cortex_mx_ee_cpu.inc **** 
 313:Generated_Source\PSoC5/ErikaOS_cortex_mx_ee_cpu.inc **** #endif
 314:Generated_Source\PSoC5/ErikaOS_cortex_mx_ee_cpu.inc **** 
 315:Generated_Source\PSoC5/ErikaOS_cortex_mx_ee_cpu.inc **** #ifdef __CCS__
 316:Generated_Source\PSoC5/ErikaOS_cortex_mx_ee_cpu.inc **** 	/* NVIC_INT_PRI_S = 5 */
 317:Generated_Source\PSoC5/ErikaOS_cortex_mx_ee_cpu.inc **** 	__ASM ("    MRS     R0, BASEPRI\n"
 318:Generated_Source\PSoC5/ErikaOS_cortex_mx_ee_cpu.inc **** 	       "    ASR     R0, #5\n"
 319:Generated_Source\PSoC5/ErikaOS_cortex_mx_ee_cpu.inc **** 	       "    BLX     LR\n");
 320:Generated_Source\PSoC5/ErikaOS_cortex_mx_ee_cpu.inc **** #else	/* __CCS__ */
 321:Generated_Source\PSoC5/ErikaOS_cortex_mx_ee_cpu.inc **** #ifdef __KEIL__
 322:Generated_Source\PSoC5/ErikaOS_cortex_mx_ee_cpu.inc **** 	prio = BASEPRI;
 323:Generated_Source\PSoC5/ErikaOS_cortex_mx_ee_cpu.inc **** #else	/* __KEIL__ */
 324:Generated_Source\PSoC5/ErikaOS_cortex_mx_ee_cpu.inc **** #ifdef __GNU__
 325:Generated_Source\PSoC5/ErikaOS_cortex_mx_ee_cpu.inc **** 	__ASM volatile("MRS %0, BASEPRI" : "=r" (prio) :: );
  82              		.loc 2 325 0
  83              		.syntax unified
  84              	@ 325 "Generated_Source\PSoC5/ErikaOS_cortex_mx_ee_cpu.inc" 1
  85 000c EFF31184 		MRS r4, BASEPRI
  86              	@ 0 "" 2
  87              	.LVL2:
  88              		.thumb
  89              		.syntax unified
  90              	.LBE123:
  91              	.LBE122:
  92              	.LBB124:
  93              	.LBB125:
 326:Generated_Source\PSoC5/ErikaOS_cortex_mx_ee_cpu.inc **** #else
 327:Generated_Source\PSoC5/ErikaOS_cortex_mx_ee_cpu.inc **** 	__ASM volatile("MRS %0, BASEPRI" :: "=r" (prio));
 328:Generated_Source\PSoC5/ErikaOS_cortex_mx_ee_cpu.inc **** #endif	/* !__GNU__ */
 329:Generated_Source\PSoC5/ErikaOS_cortex_mx_ee_cpu.inc **** #endif	/* !__KEIL__ */
ARM GAS  C:\Users\JASON\AppData\Local\Temp\cczgUn4m.s 			page 9


 330:Generated_Source\PSoC5/ErikaOS_cortex_mx_ee_cpu.inc **** #endif	/* !__CCS__ */
 331:Generated_Source\PSoC5/ErikaOS_cortex_mx_ee_cpu.inc **** 
 332:Generated_Source\PSoC5/ErikaOS_cortex_mx_ee_cpu.inc **** #ifdef __CCS__
 333:Generated_Source\PSoC5/ErikaOS_cortex_mx_ee_cpu.inc **** 	return 0;
 334:Generated_Source\PSoC5/ErikaOS_cortex_mx_ee_cpu.inc **** #else
 335:Generated_Source\PSoC5/ErikaOS_cortex_mx_ee_cpu.inc **** 	return prio >> NVIC_INT_PRI_S;
 336:Generated_Source\PSoC5/ErikaOS_cortex_mx_ee_cpu.inc **** #endif
 337:Generated_Source\PSoC5/ErikaOS_cortex_mx_ee_cpu.inc **** 
 338:Generated_Source\PSoC5/ErikaOS_cortex_mx_ee_cpu.inc **** #else	/* __CORTEX_M4__ */
 339:Generated_Source\PSoC5/ErikaOS_cortex_mx_ee_cpu.inc **** 	return 0;
 340:Generated_Source\PSoC5/ErikaOS_cortex_mx_ee_cpu.inc **** #endif	/* !__CORTEX_M4__ */
 341:Generated_Source\PSoC5/ErikaOS_cortex_mx_ee_cpu.inc **** }
 342:Generated_Source\PSoC5/ErikaOS_cortex_mx_ee_cpu.inc **** 
 343:Generated_Source\PSoC5/ErikaOS_cortex_mx_ee_cpu.inc **** __INLINE__ void  EE_cortex_mx_set_int_prio(
 344:Generated_Source\PSoC5/ErikaOS_cortex_mx_ee_cpu.inc ****   EE_TYPEISR2PRIO prio
 345:Generated_Source\PSoC5/ErikaOS_cortex_mx_ee_cpu.inc **** )
 346:Generated_Source\PSoC5/ErikaOS_cortex_mx_ee_cpu.inc **** {
 347:Generated_Source\PSoC5/ErikaOS_cortex_mx_ee_cpu.inc **** #ifdef __CORTEX_M4__
 348:Generated_Source\PSoC5/ErikaOS_cortex_mx_ee_cpu.inc **** #ifdef __CCS__
 349:Generated_Source\PSoC5/ErikaOS_cortex_mx_ee_cpu.inc **** 	/* NVIC_INT_PRI_S = 5 */
 350:Generated_Source\PSoC5/ErikaOS_cortex_mx_ee_cpu.inc **** 	__ASM ("    LSL    R0, #5\n"
 351:Generated_Source\PSoC5/ErikaOS_cortex_mx_ee_cpu.inc **** 	       "    MSR    BASEPRI, R0\n");
 352:Generated_Source\PSoC5/ErikaOS_cortex_mx_ee_cpu.inc **** #else	/* __CCS__ */
 353:Generated_Source\PSoC5/ErikaOS_cortex_mx_ee_cpu.inc **** #ifdef __KEIL__
 354:Generated_Source\PSoC5/ErikaOS_cortex_mx_ee_cpu.inc **** 	register EE_FREG BASEPRI __ASM("basepri");
 355:Generated_Source\PSoC5/ErikaOS_cortex_mx_ee_cpu.inc **** 	BASEPRI = (prio << NVIC_INT_PRI_S);
 356:Generated_Source\PSoC5/ErikaOS_cortex_mx_ee_cpu.inc **** #else	/* __KEIL__ */
 357:Generated_Source\PSoC5/ErikaOS_cortex_mx_ee_cpu.inc **** #ifdef __GNU__
 358:Generated_Source\PSoC5/ErikaOS_cortex_mx_ee_cpu.inc **** 	__ASM volatile("MSR BASEPRI, %0" :: "r" (prio << NVIC_INT_PRI_S) : );
 359:Generated_Source\PSoC5/ErikaOS_cortex_mx_ee_cpu.inc **** #else
 360:Generated_Source\PSoC5/ErikaOS_cortex_mx_ee_cpu.inc **** 	__ASM volatile("MSR BASEPRI, %0" :: "r" (prio << NVIC_INT_PRI_S));
 361:Generated_Source\PSoC5/ErikaOS_cortex_mx_ee_cpu.inc **** #endif	/* !__GNU__ */
 362:Generated_Source\PSoC5/ErikaOS_cortex_mx_ee_cpu.inc **** #endif	/* !__KEIL__ */
 363:Generated_Source\PSoC5/ErikaOS_cortex_mx_ee_cpu.inc **** #endif	/* !__CCS__ */
 364:Generated_Source\PSoC5/ErikaOS_cortex_mx_ee_cpu.inc **** #endif	/* __CORTEX_M4__ */
 365:Generated_Source\PSoC5/ErikaOS_cortex_mx_ee_cpu.inc **** }
 366:Generated_Source\PSoC5/ErikaOS_cortex_mx_ee_cpu.inc **** 
 367:Generated_Source\PSoC5/ErikaOS_cortex_mx_ee_cpu.inc **** __INLINE__ EE_TYPEISR2PRIO  EE_cortex_mx_get_isr_prio(
 368:Generated_Source\PSoC5/ErikaOS_cortex_mx_ee_cpu.inc ****   void
 369:Generated_Source\PSoC5/ErikaOS_cortex_mx_ee_cpu.inc **** )
 370:Generated_Source\PSoC5/ErikaOS_cortex_mx_ee_cpu.inc **** {
 371:Generated_Source\PSoC5/ErikaOS_cortex_mx_ee_cpu.inc **** #ifdef __CORTEX_M4__
 372:Generated_Source\PSoC5/ErikaOS_cortex_mx_ee_cpu.inc ****   register EE_UREG vectact = NVIC_INT_CTRL_R & NVIC_INT_CTRL_VEC_ACT_M;
  94              		.loc 2 372 0
  95 0010 1E4B     		ldr	r3, .L9
  96 0012 1B68     		ldr	r3, [r3]
  97 0014 DBB2     		uxtb	r3, r3
  98              	.LVL3:
 373:Generated_Source\PSoC5/ErikaOS_cortex_mx_ee_cpu.inc ****   register EE_TYPEISR2PRIO prio = 0;
 374:Generated_Source\PSoC5/ErikaOS_cortex_mx_ee_cpu.inc **** 
 375:Generated_Source\PSoC5/ErikaOS_cortex_mx_ee_cpu.inc ****   if (vectact > EE_CORTEX_MX_SYSTICK_EXC_NUM) {
  99              		.loc 2 375 0
 100 0016 0F2B     		cmp	r3, #15
 101 0018 10D9     		bls	.L4
 376:Generated_Source\PSoC5/ErikaOS_cortex_mx_ee_cpu.inc ****     vectact -= EE_CORTEX_MX_SYSTICK_EXC_NUM + 1;
 102              		.loc 2 376 0
 103 001a 103B     		subs	r3, r3, #16
ARM GAS  C:\Users\JASON\AppData\Local\Temp\cczgUn4m.s 			page 10


 104              	.LVL4:
 377:Generated_Source\PSoC5/ErikaOS_cortex_mx_ee_cpu.inc ****     prio = NVIC_GET_PRI(vectact);
 105              		.loc 2 377 0
 106 001c 23F00302 		bic	r2, r3, #3
 107 0020 02F16042 		add	r2, r2, #-536870912
 108 0024 02F56442 		add	r2, r2, #58368
 109 0028 1168     		ldr	r1, [r2]
 110 002a DB00     		lsls	r3, r3, #3
 111              	.LVL5:
 112 002c 03F01803 		and	r3, r3, #24
 113 0030 E022     		movs	r2, #224
 114 0032 9A40     		lsls	r2, r2, r3
 115 0034 0A40     		ands	r2, r2, r1
 116 0036 22FA03F3 		lsr	r3, r2, r3
 117              	.LVL6:
 118 003a 06E0     		b	.L5
 119              	.LVL7:
 120              	.L4:
 378:Generated_Source\PSoC5/ErikaOS_cortex_mx_ee_cpu.inc ****   }
 379:Generated_Source\PSoC5/ErikaOS_cortex_mx_ee_cpu.inc **** #ifdef	__USE_SYSTICK__
 380:Generated_Source\PSoC5/ErikaOS_cortex_mx_ee_cpu.inc ****   else if (vectact == EE_CORTEX_MX_SYSTICK_EXC_NUM) {
 121              		.loc 2 380 0
 122 003c 0F2B     		cmp	r3, #15
 123 003e 03D1     		bne	.L8
 381:Generated_Source\PSoC5/ErikaOS_cortex_mx_ee_cpu.inc ****     prio = NVIC_SYS_PRI3_R >> NVIC_SYS_PRI3_TICK_S;
 124              		.loc 2 381 0
 125 0040 134B     		ldr	r3, .L9+4
 126              	.LVL8:
 127 0042 1B68     		ldr	r3, [r3]
 128 0044 1B0E     		lsrs	r3, r3, #24
 129              	.LVL9:
 130 0046 00E0     		b	.L5
 131              	.LVL10:
 132              	.L8:
 373:Generated_Source\PSoC5/ErikaOS_cortex_mx_ee_cpu.inc **** 
 133              		.loc 2 373 0
 134 0048 0023     		movs	r3, #0
 135              	.LVL11:
 136              	.L5:
 137              	.LBE125:
 138              	.LBE124:
 139              	.LBB126:
 140              	.LBB127:
 358:Generated_Source\PSoC5/ErikaOS_cortex_mx_ee_cpu.inc **** #else
 141              		.loc 2 358 0
 142              		.syntax unified
 143              	@ 358 "Generated_Source\PSoC5/ErikaOS_cortex_mx_ee_cpu.inc" 1
 144 004a 83F31188 		MSR BASEPRI, r3
 145              	@ 0 "" 2
 146              		.thumb
 147              		.syntax unified
 148              	.LBE127:
 149              	.LBE126:
 150              	.LBB128:
 151              	.LBB129:
 152              		.file 3 "Generated_Source\\PSoC5/ErikaOS_common_ee_irqstub.inc"
   1:Generated_Source\PSoC5/ErikaOS_common_ee_irqstub.inc **** /* ###*B*###
ARM GAS  C:\Users\JASON\AppData\Local\Temp\cczgUn4m.s 			page 11


   2:Generated_Source\PSoC5/ErikaOS_common_ee_irqstub.inc ****  * ERIKA Enterprise - a tiny RTOS for small microcontrollers
   3:Generated_Source\PSoC5/ErikaOS_common_ee_irqstub.inc ****  *
   4:Generated_Source\PSoC5/ErikaOS_common_ee_irqstub.inc ****  * Copyright (C) 2002-2010  Evidence Srl
   5:Generated_Source\PSoC5/ErikaOS_common_ee_irqstub.inc ****  *
   6:Generated_Source\PSoC5/ErikaOS_common_ee_irqstub.inc ****  * This file is part of ERIKA Enterprise.
   7:Generated_Source\PSoC5/ErikaOS_common_ee_irqstub.inc ****  *
   8:Generated_Source\PSoC5/ErikaOS_common_ee_irqstub.inc ****  * ERIKA Enterprise is free software; you can redistribute it
   9:Generated_Source\PSoC5/ErikaOS_common_ee_irqstub.inc ****  * and/or modify it under the terms of the GNU General Public License
  10:Generated_Source\PSoC5/ErikaOS_common_ee_irqstub.inc ****  * version 2 as published by the Free Software Foundation,
  11:Generated_Source\PSoC5/ErikaOS_common_ee_irqstub.inc ****  * (with a special exception described below).
  12:Generated_Source\PSoC5/ErikaOS_common_ee_irqstub.inc ****  *
  13:Generated_Source\PSoC5/ErikaOS_common_ee_irqstub.inc ****  * Linking this code statically or dynamically with other modules is
  14:Generated_Source\PSoC5/ErikaOS_common_ee_irqstub.inc ****  * making a combined work based on this code.  Thus, the terms and
  15:Generated_Source\PSoC5/ErikaOS_common_ee_irqstub.inc ****  * conditions of the GNU General Public License cover the whole
  16:Generated_Source\PSoC5/ErikaOS_common_ee_irqstub.inc ****  * combination.
  17:Generated_Source\PSoC5/ErikaOS_common_ee_irqstub.inc ****  *
  18:Generated_Source\PSoC5/ErikaOS_common_ee_irqstub.inc ****  * As a special exception, the copyright holders of this library give you
  19:Generated_Source\PSoC5/ErikaOS_common_ee_irqstub.inc ****  * permission to link this code with independent modules to produce an
  20:Generated_Source\PSoC5/ErikaOS_common_ee_irqstub.inc ****  * executable, regardless of the license terms of these independent
  21:Generated_Source\PSoC5/ErikaOS_common_ee_irqstub.inc ****  * modules, and to copy and distribute the resulting executable under
  22:Generated_Source\PSoC5/ErikaOS_common_ee_irqstub.inc ****  * terms of your choice, provided that you also meet, for each linked
  23:Generated_Source\PSoC5/ErikaOS_common_ee_irqstub.inc ****  * independent module, the terms and conditions of the license of that
  24:Generated_Source\PSoC5/ErikaOS_common_ee_irqstub.inc ****  * module.  An independent module is a module which is not derived from
  25:Generated_Source\PSoC5/ErikaOS_common_ee_irqstub.inc ****  * or based on this library.  If you modify this code, you may extend
  26:Generated_Source\PSoC5/ErikaOS_common_ee_irqstub.inc ****  * this exception to your version of the code, but you are not
  27:Generated_Source\PSoC5/ErikaOS_common_ee_irqstub.inc ****  * obligated to do so.  If you do not wish to do so, delete this
  28:Generated_Source\PSoC5/ErikaOS_common_ee_irqstub.inc ****  * exception statement from your version.
  29:Generated_Source\PSoC5/ErikaOS_common_ee_irqstub.inc ****  *
  30:Generated_Source\PSoC5/ErikaOS_common_ee_irqstub.inc ****  * ERIKA Enterprise is distributed in the hope that it will be
  31:Generated_Source\PSoC5/ErikaOS_common_ee_irqstub.inc ****  * useful, but WITHOUT ANY WARRANTY; without even the implied warranty
  32:Generated_Source\PSoC5/ErikaOS_common_ee_irqstub.inc ****  * of MERCHANTABILITY or FITNESS FOR A PARTICULAR PURPOSE.  See the
  33:Generated_Source\PSoC5/ErikaOS_common_ee_irqstub.inc ****  * GNU General Public License version 2 for more details.
  34:Generated_Source\PSoC5/ErikaOS_common_ee_irqstub.inc ****  *
  35:Generated_Source\PSoC5/ErikaOS_common_ee_irqstub.inc ****  * You should have received a copy of the GNU General Public License
  36:Generated_Source\PSoC5/ErikaOS_common_ee_irqstub.inc ****  * version 2 along with ERIKA Enterprise; if not, write to the
  37:Generated_Source\PSoC5/ErikaOS_common_ee_irqstub.inc ****  * Free Software Foundation, Inc., 51 Franklin Street, Fifth Floor,
  38:Generated_Source\PSoC5/ErikaOS_common_ee_irqstub.inc ****  * Boston, MA 02110-1301 USA.
  39:Generated_Source\PSoC5/ErikaOS_common_ee_irqstub.inc ****  * ###*E*### */
  40:Generated_Source\PSoC5/ErikaOS_common_ee_irqstub.inc **** 
  41:Generated_Source\PSoC5/ErikaOS_common_ee_irqstub.inc **** /*
  42:Generated_Source\PSoC5/ErikaOS_common_ee_irqstub.inc ****  * Some IRQ-related stuff.
  43:Generated_Source\PSoC5/ErikaOS_common_ee_irqstub.inc ****  * Author: 2009-2010,  Bernardo  Dal Seno
  44:Generated_Source\PSoC5/ErikaOS_common_ee_irqstub.inc ****  */
  45:Generated_Source\PSoC5/ErikaOS_common_ee_irqstub.inc **** 
  46:Generated_Source\PSoC5/ErikaOS_common_ee_irqstub.inc **** /*
  47:Generated_Source\PSoC5/ErikaOS_common_ee_irqstub.inc ****  * PSoC Port and API Generation
  48:Generated_Source\PSoC5/ErikaOS_common_ee_irqstub.inc ****  * Carlos Fernando Meier Martinez
  49:Generated_Source\PSoC5/ErikaOS_common_ee_irqstub.inc ****  * Hochschule Darmstadt, Germany. 2017.
  50:Generated_Source\PSoC5/ErikaOS_common_ee_irqstub.inc ****  */
  51:Generated_Source\PSoC5/ErikaOS_common_ee_irqstub.inc **** 
  52:Generated_Source\PSoC5/ErikaOS_common_ee_irqstub.inc **** /*******************************************************************************
  53:Generated_Source\PSoC5/ErikaOS_common_ee_irqstub.inc ****  *                        !!!WARNING!!!
  54:Generated_Source\PSoC5/ErikaOS_common_ee_irqstub.inc ****  * This header depends on "cpu/common/inc/ee_context.inc" or your own
  55:Generated_Source\PSoC5/ErikaOS_common_ee_irqstub.inc ****  * implementation of the same. You should include it file before including this
  56:Generated_Source\PSoC5/ErikaOS_common_ee_irqstub.inc ****  * file
  57:Generated_Source\PSoC5/ErikaOS_common_ee_irqstub.inc ****  ******************************************************************************/
  58:Generated_Source\PSoC5/ErikaOS_common_ee_irqstub.inc **** 
ARM GAS  C:\Users\JASON\AppData\Local\Temp\cczgUn4m.s 			page 12


  59:Generated_Source\PSoC5/ErikaOS_common_ee_irqstub.inc **** #ifndef PKG_CPU_COMMON_INC_EE_IRQSTUB_H
  60:Generated_Source\PSoC5/ErikaOS_common_ee_irqstub.inc **** #define PKG_CPU_COMMON_INC_EE_IRQSTUB_H
  61:Generated_Source\PSoC5/ErikaOS_common_ee_irqstub.inc **** 
  62:Generated_Source\PSoC5/ErikaOS_common_ee_irqstub.inc **** /* this bring EE_IRQ_nesting_level definition */
  63:Generated_Source\PSoC5/ErikaOS_common_ee_irqstub.inc **** #include "ErikaOS_common_ee_primitives.inc"
  64:Generated_Source\PSoC5/ErikaOS_common_ee_irqstub.inc **** 
  65:Generated_Source\PSoC5/ErikaOS_common_ee_irqstub.inc **** /* True if we are inside an interrupt-serving routine */
  66:Generated_Source\PSoC5/ErikaOS_common_ee_irqstub.inc **** __INLINE__ EE_TYPEBOOL  EE_is_inside_ISR_call( void )
  67:Generated_Source\PSoC5/ErikaOS_common_ee_irqstub.inc **** {
  68:Generated_Source\PSoC5/ErikaOS_common_ee_irqstub.inc ****   return (EE_IRQ_nesting_level > 0U);
  69:Generated_Source\PSoC5/ErikaOS_common_ee_irqstub.inc **** }
  70:Generated_Source\PSoC5/ErikaOS_common_ee_irqstub.inc **** 
  71:Generated_Source\PSoC5/ErikaOS_common_ee_irqstub.inc **** 
  72:Generated_Source\PSoC5/ErikaOS_common_ee_irqstub.inc **** /* EE_decrement_IRQ_nesting_level() and EE_increment_IRQ_nesting_level() are
  73:Generated_Source\PSoC5/ErikaOS_common_ee_irqstub.inc ****  * used to keep track of the current IRQ nesting level.
  74:Generated_Source\PSoC5/ErikaOS_common_ee_irqstub.inc ****  * EE_std_enableIRQ_nested() and EE_std_disableIRQ_nested() are used to control
  75:Generated_Source\PSoC5/ErikaOS_common_ee_irqstub.inc ****  * when IRQ nesting is enabled.
  76:Generated_Source\PSoC5/ErikaOS_common_ee_irqstub.inc ****  */
  77:Generated_Source\PSoC5/ErikaOS_common_ee_irqstub.inc **** #if defined(__AS_SC4__)
  78:Generated_Source\PSoC5/ErikaOS_common_ee_irqstub.inc **** /* For SC4 the nesting level is updated inside the prestub and postub */
  79:Generated_Source\PSoC5/ErikaOS_common_ee_irqstub.inc **** __INLINE__ void  EE_decrement_IRQ_nesting_level(void) {}
  80:Generated_Source\PSoC5/ErikaOS_common_ee_irqstub.inc **** __INLINE__ void  EE_increment_IRQ_nesting_level(void) {}
  81:Generated_Source\PSoC5/ErikaOS_common_ee_irqstub.inc **** __INLINE__ void  EE_std_enableIRQ_nested(void) {}
  82:Generated_Source\PSoC5/ErikaOS_common_ee_irqstub.inc **** __INLINE__ void  EE_std_disableIRQ_nested(void) {}
  83:Generated_Source\PSoC5/ErikaOS_common_ee_irqstub.inc **** #elif defined(__ALLOW_NESTED_IRQ__)
  84:Generated_Source\PSoC5/ErikaOS_common_ee_irqstub.inc **** __INLINE__ void  EE_decrement_IRQ_nesting_level(void) { --EE_IRQ_nesting_level; }
  85:Generated_Source\PSoC5/ErikaOS_common_ee_irqstub.inc **** __INLINE__ void  EE_increment_IRQ_nesting_level(void) { ++EE_IRQ_nesting_level; }
 153              		.loc 3 85 0
 154 004e 114A     		ldr	r2, .L9+8
 155 0050 1368     		ldr	r3, [r2]
 156 0052 0133     		adds	r3, r3, #1
 157 0054 1360     		str	r3, [r2]
 158              	.LBE129:
 159              	.LBE128:
  31:SourceFiles\asw/main.c **** {
 160              		.loc 1 31 0
 161 0056 012B     		cmp	r3, #1
 162 0058 01D1     		bne	.L6
  31:SourceFiles\asw/main.c **** {
 163              		.loc 1 31 0 is_stmt 0 discriminator 1
 164 005a FFF7FEFF 		bl	EE_cortex_mx_change_IRQ_stack
 165              	.LVL12:
 166              	.L6:
 167              	.LBB130:
 168              	.LBB131:
 191:Generated_Source\PSoC5/ErikaOS_cortex_mx_ee_cpu.inc **** #endif	/* !__KEIL__ */
 169              		.loc 2 191 0 is_stmt 1 discriminator 3
 170              		.syntax unified
 171              	@ 191 "Generated_Source\PSoC5/ErikaOS_cortex_mx_ee_cpu.inc" 1
 172 005e 62B6     		cpsie i
 173              	@ 0 "" 2
 174              		.thumb
 175              		.syntax unified
 176              	.LBE131:
 177              	.LBE130:
  31:SourceFiles\asw/main.c **** {
 178              		.loc 1 31 0 discriminator 3
ARM GAS  C:\Users\JASON\AppData\Local\Temp\cczgUn4m.s 			page 13


 179 0060 FFF7FEFF 		bl	ISR2_systick_handler
 180              	.LVL13:
 181              	.LBB132:
 182              	.LBB133:
 211:Generated_Source\PSoC5/ErikaOS_cortex_mx_ee_cpu.inc **** #endif	/* !__KEIL__ */
 183              		.loc 2 211 0 discriminator 3
 184              		.syntax unified
 185              	@ 211 "Generated_Source\PSoC5/ErikaOS_cortex_mx_ee_cpu.inc" 1
 186 0064 72B6     		cpsid i
 187              	@ 0 "" 2
 188              	.LVL14:
 189              		.thumb
 190              		.syntax unified
 191              	.LBE133:
 192              	.LBE132:
 193              	.LBB134:
 194              	.LBB135:
 358:Generated_Source\PSoC5/ErikaOS_cortex_mx_ee_cpu.inc **** #else
 195              		.loc 2 358 0 discriminator 3
 196              		.syntax unified
 197              	@ 358 "Generated_Source\PSoC5/ErikaOS_cortex_mx_ee_cpu.inc" 1
 198 0066 84F31188 		MSR BASEPRI, r4
 199              	@ 0 "" 2
 200              	.LVL15:
 201              		.thumb
 202              		.syntax unified
 203              	.LBE135:
 204              	.LBE134:
 205              	.LBB136:
 206              	.LBB137:
  86:Generated_Source\PSoC5/ErikaOS_common_ee_irqstub.inc **** /*  EE_std_enableIRQ_nested() and EE_std_disableIRQ_nested() must be defined in
  87:Generated_Source\PSoC5/ErikaOS_common_ee_irqstub.inc ****  *  the platform-dependent part, as they dependend on the particular way
  88:Generated_Source\PSoC5/ErikaOS_common_ee_irqstub.inc ****  *  interrupts are handled by the CPU. */
  89:Generated_Source\PSoC5/ErikaOS_common_ee_irqstub.inc **** #else
  90:Generated_Source\PSoC5/ErikaOS_common_ee_irqstub.inc **** __INLINE__ void  EE_decrement_IRQ_nesting_level(void) { EE_IRQ_nesting_level = 0U; }
  91:Generated_Source\PSoC5/ErikaOS_common_ee_irqstub.inc **** __INLINE__ void  EE_increment_IRQ_nesting_level(void) { EE_IRQ_nesting_level = 1U; }
  92:Generated_Source\PSoC5/ErikaOS_common_ee_irqstub.inc **** __INLINE__ void  EE_std_enableIRQ_nested(void) {}
  93:Generated_Source\PSoC5/ErikaOS_common_ee_irqstub.inc **** __INLINE__ void  EE_std_disableIRQ_nested(void) {}
  94:Generated_Source\PSoC5/ErikaOS_common_ee_irqstub.inc **** #endif
  95:Generated_Source\PSoC5/ErikaOS_common_ee_irqstub.inc **** 
  96:Generated_Source\PSoC5/ErikaOS_common_ee_irqstub.inc **** #if (defined(__OO_BCC1__)) || (defined(__OO_BCC2__)) || (defined(__OO_ECC1__)) \
  97:Generated_Source\PSoC5/ErikaOS_common_ee_irqstub.inc ****   || (defined(__OO_ECC2__)) || (defined(__AS_SC4__))
  98:Generated_Source\PSoC5/ErikaOS_common_ee_irqstub.inc **** /* Function to be called at the end of a function service interrupt, to execute
  99:Generated_Source\PSoC5/ErikaOS_common_ee_irqstub.inc ****    clean-up specifiend in Autosar standard */
 100:Generated_Source\PSoC5/ErikaOS_common_ee_irqstub.inc **** __INLINE__ void  EE_std_end_IRQ_post_stub(void)
 101:Generated_Source\PSoC5/ErikaOS_common_ee_irqstub.inc **** {
 102:Generated_Source\PSoC5/ErikaOS_common_ee_irqstub.inc ****   EE_IRQ_end_post_stub();
 207              		.loc 3 102 0 discriminator 3
 208 006a FFF7FEFF 		bl	EE_IRQ_end_post_stub
 209              	.LVL16:
 210              	.LBE137:
 211              	.LBE136:
 212              	.LBB138:
 213              	.LBB139:
  84:Generated_Source\PSoC5/ErikaOS_common_ee_irqstub.inc **** __INLINE__ void  EE_increment_IRQ_nesting_level(void) { ++EE_IRQ_nesting_level; }
 214              		.loc 3 84 0 discriminator 3
 215 006e 094A     		ldr	r2, .L9+8
ARM GAS  C:\Users\JASON\AppData\Local\Temp\cczgUn4m.s 			page 14


 216 0070 1368     		ldr	r3, [r2]
 217 0072 013B     		subs	r3, r3, #1
 218 0074 1360     		str	r3, [r2]
 219              	.LBE139:
 220              	.LBE138:
  31:SourceFiles\asw/main.c **** {
 221              		.loc 1 31 0 discriminator 3
 222 0076 1BB9     		cbnz	r3, .L7
  31:SourceFiles\asw/main.c **** {
 223              		.loc 1 31 0 is_stmt 0 discriminator 4
 224 0078 FFF7FEFF 		bl	EE_cortex_mx_change_IRQ_stack_back
 225              	.LVL17:
 226              	.LBB140:
 227              	.LBB141:
 228              		.file 4 "Generated_Source\\PSoC5/ErikaOS_cortex_mx_ee_irq_cng_cont.inc"
   1:Generated_Source\PSoC5/ErikaOS_cortex_mx_ee_irq_cng_cont.inc **** /* ###*B*###
   2:Generated_Source\PSoC5/ErikaOS_cortex_mx_ee_irq_cng_cont.inc ****  * ERIKA Enterprise - a tiny RTOS for small microcontrollers
   3:Generated_Source\PSoC5/ErikaOS_cortex_mx_ee_irq_cng_cont.inc ****  *
   4:Generated_Source\PSoC5/ErikaOS_cortex_mx_ee_irq_cng_cont.inc ****  * Copyright (C) 2002-2011  Evidence Srl
   5:Generated_Source\PSoC5/ErikaOS_cortex_mx_ee_irq_cng_cont.inc ****  *
   6:Generated_Source\PSoC5/ErikaOS_cortex_mx_ee_irq_cng_cont.inc ****  * This file is part of ERIKA Enterprise.
   7:Generated_Source\PSoC5/ErikaOS_cortex_mx_ee_irq_cng_cont.inc ****  *
   8:Generated_Source\PSoC5/ErikaOS_cortex_mx_ee_irq_cng_cont.inc ****  * ERIKA Enterprise is free software; you can redistribute it
   9:Generated_Source\PSoC5/ErikaOS_cortex_mx_ee_irq_cng_cont.inc ****  * and/or modify it under the terms of the GNU General Public License
  10:Generated_Source\PSoC5/ErikaOS_cortex_mx_ee_irq_cng_cont.inc ****  * version 2 as published by the Free Software Foundation, 
  11:Generated_Source\PSoC5/ErikaOS_cortex_mx_ee_irq_cng_cont.inc ****  * (with a special exception described below).
  12:Generated_Source\PSoC5/ErikaOS_cortex_mx_ee_irq_cng_cont.inc ****  *
  13:Generated_Source\PSoC5/ErikaOS_cortex_mx_ee_irq_cng_cont.inc ****  * Linking this code statically or dynamically with other modules is
  14:Generated_Source\PSoC5/ErikaOS_cortex_mx_ee_irq_cng_cont.inc ****  * making a combined work based on this code.  Thus, the terms and
  15:Generated_Source\PSoC5/ErikaOS_cortex_mx_ee_irq_cng_cont.inc ****  * conditions of the GNU General Public License cover the whole
  16:Generated_Source\PSoC5/ErikaOS_cortex_mx_ee_irq_cng_cont.inc ****  * combination.
  17:Generated_Source\PSoC5/ErikaOS_cortex_mx_ee_irq_cng_cont.inc ****  *
  18:Generated_Source\PSoC5/ErikaOS_cortex_mx_ee_irq_cng_cont.inc ****  * As a special exception, the copyright holders of this library give you
  19:Generated_Source\PSoC5/ErikaOS_cortex_mx_ee_irq_cng_cont.inc ****  * permission to link this code with independent modules to produce an
  20:Generated_Source\PSoC5/ErikaOS_cortex_mx_ee_irq_cng_cont.inc ****  * executable, regardless of the license terms of these independent
  21:Generated_Source\PSoC5/ErikaOS_cortex_mx_ee_irq_cng_cont.inc ****  * modules, and to copy and distribute the resulting executable under
  22:Generated_Source\PSoC5/ErikaOS_cortex_mx_ee_irq_cng_cont.inc ****  * terms of your choice, provided that you also meet, for each linked
  23:Generated_Source\PSoC5/ErikaOS_cortex_mx_ee_irq_cng_cont.inc ****  * independent module, the terms and conditions of the license of that
  24:Generated_Source\PSoC5/ErikaOS_cortex_mx_ee_irq_cng_cont.inc ****  * module.  An independent module is a module which is not derived from
  25:Generated_Source\PSoC5/ErikaOS_cortex_mx_ee_irq_cng_cont.inc ****  * or based on this library.  If you modify this code, you may extend
  26:Generated_Source\PSoC5/ErikaOS_cortex_mx_ee_irq_cng_cont.inc ****  * this exception to your version of the code, but you are not
  27:Generated_Source\PSoC5/ErikaOS_cortex_mx_ee_irq_cng_cont.inc ****  * obligated to do so.  If you do not wish to do so, delete this
  28:Generated_Source\PSoC5/ErikaOS_cortex_mx_ee_irq_cng_cont.inc ****  * exception statement from your version.
  29:Generated_Source\PSoC5/ErikaOS_cortex_mx_ee_irq_cng_cont.inc ****  *
  30:Generated_Source\PSoC5/ErikaOS_cortex_mx_ee_irq_cng_cont.inc ****  * ERIKA Enterprise is distributed in the hope that it will be
  31:Generated_Source\PSoC5/ErikaOS_cortex_mx_ee_irq_cng_cont.inc ****  * useful, but WITHOUT ANY WARRANTY; without even the implied warranty
  32:Generated_Source\PSoC5/ErikaOS_cortex_mx_ee_irq_cng_cont.inc ****  * of MERCHANTABILITY or FITNESS FOR A PARTICULAR PURPOSE.  See the
  33:Generated_Source\PSoC5/ErikaOS_cortex_mx_ee_irq_cng_cont.inc ****  * GNU General Public License version 2 for more details.
  34:Generated_Source\PSoC5/ErikaOS_cortex_mx_ee_irq_cng_cont.inc ****  *
  35:Generated_Source\PSoC5/ErikaOS_cortex_mx_ee_irq_cng_cont.inc ****  * You should have received a copy of the GNU General Public License
  36:Generated_Source\PSoC5/ErikaOS_cortex_mx_ee_irq_cng_cont.inc ****  * version 2 along with ERIKA Enterprise; if not, write to the
  37:Generated_Source\PSoC5/ErikaOS_cortex_mx_ee_irq_cng_cont.inc ****  * Free Software Foundation, Inc., 51 Franklin Street, Fifth Floor,
  38:Generated_Source\PSoC5/ErikaOS_cortex_mx_ee_irq_cng_cont.inc ****  * Boston, MA 02110-1301 USA.
  39:Generated_Source\PSoC5/ErikaOS_cortex_mx_ee_irq_cng_cont.inc ****  * ###*E*### */
  40:Generated_Source\PSoC5/ErikaOS_cortex_mx_ee_irq_cng_cont.inc **** 
  41:Generated_Source\PSoC5/ErikaOS_cortex_mx_ee_irq_cng_cont.inc ****  /** 
  42:Generated_Source\PSoC5/ErikaOS_cortex_mx_ee_irq_cng_cont.inc **** 	
ARM GAS  C:\Users\JASON\AppData\Local\Temp\cczgUn4m.s 			page 15


  43:Generated_Source\PSoC5/ErikaOS_cortex_mx_ee_irq_cng_cont.inc **** 	@file	ee_irq_cng_cont.h
  44:Generated_Source\PSoC5/ErikaOS_cortex_mx_ee_irq_cng_cont.inc **** 	@brief	Function active the context change interrupt
  45:Generated_Source\PSoC5/ErikaOS_cortex_mx_ee_irq_cng_cont.inc **** 	@author	Gianluca Franchino
  46:Generated_Source\PSoC5/ErikaOS_cortex_mx_ee_irq_cng_cont.inc **** 	@author	Giuseppe Serano
  47:Generated_Source\PSoC5/ErikaOS_cortex_mx_ee_irq_cng_cont.inc **** 	@date	2012
  48:Generated_Source\PSoC5/ErikaOS_cortex_mx_ee_irq_cng_cont.inc **** */ 
  49:Generated_Source\PSoC5/ErikaOS_cortex_mx_ee_irq_cng_cont.inc ****     
  50:Generated_Source\PSoC5/ErikaOS_cortex_mx_ee_irq_cng_cont.inc **** /*
  51:Generated_Source\PSoC5/ErikaOS_cortex_mx_ee_irq_cng_cont.inc ****  * PSoC Port and API Generation
  52:Generated_Source\PSoC5/ErikaOS_cortex_mx_ee_irq_cng_cont.inc ****  * Carlos Fernando Meier Martinez
  53:Generated_Source\PSoC5/ErikaOS_cortex_mx_ee_irq_cng_cont.inc ****  * Hochschule Darmstadt, Germany. 2017.
  54:Generated_Source\PSoC5/ErikaOS_cortex_mx_ee_irq_cng_cont.inc ****  */
  55:Generated_Source\PSoC5/ErikaOS_cortex_mx_ee_irq_cng_cont.inc **** 
  56:Generated_Source\PSoC5/ErikaOS_cortex_mx_ee_irq_cng_cont.inc **** #ifndef __INCLUDE_CORTEX_MX_IRQ_CNG_CONTEXT_H__
  57:Generated_Source\PSoC5/ErikaOS_cortex_mx_ee_irq_cng_cont.inc **** #define __INCLUDE_CORTEX_MX_IRQ_CNG_CONTEXT_H__
  58:Generated_Source\PSoC5/ErikaOS_cortex_mx_ee_irq_cng_cont.inc **** 
  59:Generated_Source\PSoC5/ErikaOS_cortex_mx_ee_irq_cng_cont.inc **** #ifdef __GNU__
  60:Generated_Source\PSoC5/ErikaOS_cortex_mx_ee_irq_cng_cont.inc **** #include "ErikaOS_common_ee_compiler_gcc.inc"
  61:Generated_Source\PSoC5/ErikaOS_cortex_mx_ee_irq_cng_cont.inc **** #endif
  62:Generated_Source\PSoC5/ErikaOS_cortex_mx_ee_irq_cng_cont.inc **** 
  63:Generated_Source\PSoC5/ErikaOS_cortex_mx_ee_irq_cng_cont.inc **** /* Implemented in ee_<compiler>_change_context_isr.s */
  64:Generated_Source\PSoC5/ErikaOS_cortex_mx_ee_irq_cng_cont.inc **** extern void EE_switch_context(void);
  65:Generated_Source\PSoC5/ErikaOS_cortex_mx_ee_irq_cng_cont.inc **** 
  66:Generated_Source\PSoC5/ErikaOS_cortex_mx_ee_irq_cng_cont.inc **** __INLINE__ void  EE_cortex_mx_IRQ_active_change_context(void)
  67:Generated_Source\PSoC5/ErikaOS_cortex_mx_ee_irq_cng_cont.inc **** {
  68:Generated_Source\PSoC5/ErikaOS_cortex_mx_ee_irq_cng_cont.inc **** 	EE_switch_context();
 229              		.loc 4 68 0 is_stmt 1 discriminator 4
 230 007c FFF7FEFF 		bl	EE_switch_context
 231              	.LVL18:
 232              	.L7:
 233              	.LBE141:
 234              	.LBE140:
 235              	.LBB142:
 236              	.LBB143:
 191:Generated_Source\PSoC5/ErikaOS_cortex_mx_ee_cpu.inc **** #endif	/* !__KEIL__ */
 237              		.loc 2 191 0 discriminator 6
 238              		.syntax unified
 239              	@ 191 "Generated_Source\PSoC5/ErikaOS_cortex_mx_ee_cpu.inc" 1
 240 0080 62B6     		cpsie i
 241              	@ 0 "" 2
 242              		.thumb
 243              		.syntax unified
 244              	.LBE143:
 245              	.LBE142:
  31:SourceFiles\asw/main.c **** {
 246              		.loc 1 31 0 discriminator 6
 247 0082 BDE81940 		pop	{r0, r3, r4, lr}
 248              		.cfi_restore 14
 249              		.cfi_restore 4
 250              		.cfi_restore 3
 251              		.cfi_restore 0
 252              		.cfi_def_cfa_offset 0
 253 0086 8546     		mov	sp, r0
 254 0088 7047     		bx	lr
 255              	.L10:
 256 008a 00BF     		.align	2
 257              	.L9:
ARM GAS  C:\Users\JASON\AppData\Local\Temp\cczgUn4m.s 			page 16


 258 008c 04ED00E0 		.word	-536810236
 259 0090 20ED00E0 		.word	-536810208
 260 0094 00000000 		.word	EE_IRQ_nesting_level
 261              		.cfi_endproc
 262              	.LFE131:
 263              		.size	systick_handler, .-systick_handler
 264              		.section	.text.main,"ax",%progbits
 265              		.align	2
 266              		.global	main
 267              		.thumb
 268              		.thumb_func
 269              		.type	main, %function
 270              	main:
 271              	.LFB133:
  34:SourceFiles\asw/main.c **** }
  35:SourceFiles\asw/main.c **** 
  36:SourceFiles\asw/main.c **** int main()
  37:SourceFiles\asw/main.c **** {
 272              		.loc 1 37 0
 273              		.cfi_startproc
 274              		@ Volatile: function does not return.
 275              		@ args = 0, pretend = 0, frame = 0
 276              		@ frame_needed = 0, uses_anonymous_args = 0
 277 0000 08B5     		push	{r3, lr}
 278              		.cfi_def_cfa_offset 8
 279              		.cfi_offset 3, -8
 280              		.cfi_offset 14, -4
  38:SourceFiles\asw/main.c ****     CyGlobalIntEnable; /* Enable global interrupts. */
 281              		.loc 1 38 0
 282              		.syntax unified
 283              	@ 38 "SourceFiles\asw\main.c" 1
 284 0002 62B6     		CPSIE   i
 285              	@ 0 "" 2
 286              	.LVL19:
 287              		.thumb
 288              		.syntax unified
 289              	.LBB144:
 290              	.LBB145:
 291              		.file 5 "Generated_Source\\PSoC5/ErikaOS_cortex_mx_ee_systick.inc"
   1:Generated_Source\PSoC5/ErikaOS_cortex_mx_ee_systick.inc **** /* ###*B*###
   2:Generated_Source\PSoC5/ErikaOS_cortex_mx_ee_systick.inc ****  * ERIKA Enterprise - a tiny RTOS for small microcontrollers
   3:Generated_Source\PSoC5/ErikaOS_cortex_mx_ee_systick.inc ****  *
   4:Generated_Source\PSoC5/ErikaOS_cortex_mx_ee_systick.inc ****  * Copyright (C) 2002-2012  Evidence Srl
   5:Generated_Source\PSoC5/ErikaOS_cortex_mx_ee_systick.inc ****  *
   6:Generated_Source\PSoC5/ErikaOS_cortex_mx_ee_systick.inc ****  * This file is part of ERIKA Enterprise.
   7:Generated_Source\PSoC5/ErikaOS_cortex_mx_ee_systick.inc ****  *
   8:Generated_Source\PSoC5/ErikaOS_cortex_mx_ee_systick.inc ****  * ERIKA Enterprise is free software; you can redistribute it
   9:Generated_Source\PSoC5/ErikaOS_cortex_mx_ee_systick.inc ****  * and/or modify it under the terms of the GNU General Public License
  10:Generated_Source\PSoC5/ErikaOS_cortex_mx_ee_systick.inc ****  * version 2 as published by the Free Software Foundation,
  11:Generated_Source\PSoC5/ErikaOS_cortex_mx_ee_systick.inc ****  * (with a special exception described below).
  12:Generated_Source\PSoC5/ErikaOS_cortex_mx_ee_systick.inc ****  *
  13:Generated_Source\PSoC5/ErikaOS_cortex_mx_ee_systick.inc ****  * Linking this code statically or dynamically with other modules is
  14:Generated_Source\PSoC5/ErikaOS_cortex_mx_ee_systick.inc ****  * making a combined work based on this code.  Thus, the terms and
  15:Generated_Source\PSoC5/ErikaOS_cortex_mx_ee_systick.inc ****  * conditions of the GNU General Public License cover the whole
  16:Generated_Source\PSoC5/ErikaOS_cortex_mx_ee_systick.inc ****  * combination.
  17:Generated_Source\PSoC5/ErikaOS_cortex_mx_ee_systick.inc ****  *
  18:Generated_Source\PSoC5/ErikaOS_cortex_mx_ee_systick.inc ****  * As a special exception, the copyright holders of this library give you
ARM GAS  C:\Users\JASON\AppData\Local\Temp\cczgUn4m.s 			page 17


  19:Generated_Source\PSoC5/ErikaOS_cortex_mx_ee_systick.inc ****  * permission to link this code with independent modules to produce an
  20:Generated_Source\PSoC5/ErikaOS_cortex_mx_ee_systick.inc ****  * executable, regardless of the license terms of these independent
  21:Generated_Source\PSoC5/ErikaOS_cortex_mx_ee_systick.inc ****  * modules, and to copy and distribute the resulting executable under
  22:Generated_Source\PSoC5/ErikaOS_cortex_mx_ee_systick.inc ****  * terms of your choice, provided that you also meet, for each linked
  23:Generated_Source\PSoC5/ErikaOS_cortex_mx_ee_systick.inc ****  * independent module, the terms and conditions of the license of that
  24:Generated_Source\PSoC5/ErikaOS_cortex_mx_ee_systick.inc ****  * module.  An independent module is a module which is not derived from
  25:Generated_Source\PSoC5/ErikaOS_cortex_mx_ee_systick.inc ****  * or based on this library.  If you modify this code, you may extend
  26:Generated_Source\PSoC5/ErikaOS_cortex_mx_ee_systick.inc ****  * this exception to your version of the code, but you are not
  27:Generated_Source\PSoC5/ErikaOS_cortex_mx_ee_systick.inc ****  * obligated to do so.  If you do not wish to do so, delete this
  28:Generated_Source\PSoC5/ErikaOS_cortex_mx_ee_systick.inc ****  * exception statement from your version.
  29:Generated_Source\PSoC5/ErikaOS_cortex_mx_ee_systick.inc ****  *
  30:Generated_Source\PSoC5/ErikaOS_cortex_mx_ee_systick.inc ****  * ERIKA Enterprise is distributed in the hope that it will be
  31:Generated_Source\PSoC5/ErikaOS_cortex_mx_ee_systick.inc ****  * useful, but WITHOUT ANY WARRANTY; without even the implied warranty
  32:Generated_Source\PSoC5/ErikaOS_cortex_mx_ee_systick.inc ****  * of MERCHANTABILITY or FITNESS FOR A PARTICULAR PURPOSE.  See the
  33:Generated_Source\PSoC5/ErikaOS_cortex_mx_ee_systick.inc ****  * GNU General Public License version 2 for more details.
  34:Generated_Source\PSoC5/ErikaOS_cortex_mx_ee_systick.inc ****  *
  35:Generated_Source\PSoC5/ErikaOS_cortex_mx_ee_systick.inc ****  * You should have received a copy of the GNU General Public License
  36:Generated_Source\PSoC5/ErikaOS_cortex_mx_ee_systick.inc ****  * version 2 along with ERIKA Enterprise; if not, write to the
  37:Generated_Source\PSoC5/ErikaOS_cortex_mx_ee_systick.inc ****  * Free Software Foundation, Inc., 51 Franklin Street, Fifth Floor,
  38:Generated_Source\PSoC5/ErikaOS_cortex_mx_ee_systick.inc ****  * Boston, MA 02110-1301 USA.
  39:Generated_Source\PSoC5/ErikaOS_cortex_mx_ee_systick.inc ****  * ###*E*### */
  40:Generated_Source\PSoC5/ErikaOS_cortex_mx_ee_systick.inc **** 
  41:Generated_Source\PSoC5/ErikaOS_cortex_mx_ee_systick.inc **** /**
  42:Generated_Source\PSoC5/ErikaOS_cortex_mx_ee_systick.inc ****     @file	ee_systick.h
  43:Generated_Source\PSoC5/ErikaOS_cortex_mx_ee_systick.inc ****     @brief	SysTick system timer driver header file.
  44:Generated_Source\PSoC5/ErikaOS_cortex_mx_ee_systick.inc ****     @author	Giuseppe Serano
  45:Generated_Source\PSoC5/ErikaOS_cortex_mx_ee_systick.inc ****     @date	2012
  46:Generated_Source\PSoC5/ErikaOS_cortex_mx_ee_systick.inc **** 
  47:Generated_Source\PSoC5/ErikaOS_cortex_mx_ee_systick.inc **** **/
  48:Generated_Source\PSoC5/ErikaOS_cortex_mx_ee_systick.inc **** 
  49:Generated_Source\PSoC5/ErikaOS_cortex_mx_ee_systick.inc **** /*
  50:Generated_Source\PSoC5/ErikaOS_cortex_mx_ee_systick.inc ****  * PSoC Port and API Generation
  51:Generated_Source\PSoC5/ErikaOS_cortex_mx_ee_systick.inc ****  * Carlos Fernando Meier Martinez
  52:Generated_Source\PSoC5/ErikaOS_cortex_mx_ee_systick.inc ****  * Hochschule Darmstadt, Germany. 2017.
  53:Generated_Source\PSoC5/ErikaOS_cortex_mx_ee_systick.inc ****  */
  54:Generated_Source\PSoC5/ErikaOS_cortex_mx_ee_systick.inc **** 
  55:Generated_Source\PSoC5/ErikaOS_cortex_mx_ee_systick.inc **** #ifndef	__INCLUDE_CORTEX_MX_SYSTICK_H__
  56:Generated_Source\PSoC5/ErikaOS_cortex_mx_ee_systick.inc **** #define	__INCLUDE_CORTEX_MX_SYSTICK_H__
  57:Generated_Source\PSoC5/ErikaOS_cortex_mx_ee_systick.inc **** 
  58:Generated_Source\PSoC5/ErikaOS_cortex_mx_ee_systick.inc **** #ifdef	__USE_SYSTICK__
  59:Generated_Source\PSoC5/ErikaOS_cortex_mx_ee_systick.inc **** 
  60:Generated_Source\PSoC5/ErikaOS_cortex_mx_ee_systick.inc **** /** error value. No errors happened **/
  61:Generated_Source\PSoC5/ErikaOS_cortex_mx_ee_systick.inc **** #define	EE_SYSTICK_NO_ERRORS	0
  62:Generated_Source\PSoC5/ErikaOS_cortex_mx_ee_systick.inc **** /** error value. Wrong funtion arguments values **/
  63:Generated_Source\PSoC5/ErikaOS_cortex_mx_ee_systick.inc **** #define	EE_SYSTICK_ERR_BAD_ARGS	1
  64:Generated_Source\PSoC5/ErikaOS_cortex_mx_ee_systick.inc **** 
  65:Generated_Source\PSoC5/ErikaOS_cortex_mx_ee_systick.inc **** /**
  66:Generated_Source\PSoC5/ErikaOS_cortex_mx_ee_systick.inc ****     @brief Start SysTick.
  67:Generated_Source\PSoC5/ErikaOS_cortex_mx_ee_systick.inc **** 
  68:Generated_Source\PSoC5/ErikaOS_cortex_mx_ee_systick.inc ****     This will start the SysTick counter.  If an ISR has been defined, it is
  69:Generated_Source\PSoC5/ErikaOS_cortex_mx_ee_systick.inc ****     called when the SysTick counter rolls over.
  70:Generated_Source\PSoC5/ErikaOS_cortex_mx_ee_systick.inc **** 
  71:Generated_Source\PSoC5/ErikaOS_cortex_mx_ee_systick.inc ****     @note Calling this function will cause the SysTick counter to (re)commence
  72:Generated_Source\PSoC5/ErikaOS_cortex_mx_ee_systick.inc ****     counting from its current value.  The counter is not automatically reloaded
  73:Generated_Source\PSoC5/ErikaOS_cortex_mx_ee_systick.inc ****     with the period as specified in a previous call to EE_systick_set_period().
  74:Generated_Source\PSoC5/ErikaOS_cortex_mx_ee_systick.inc ****     If an immediate reload is required, the \b NVIC_ST_CURRENT register must be
  75:Generated_Source\PSoC5/ErikaOS_cortex_mx_ee_systick.inc ****     written to force this.  Any write to this register clears the SysTick
ARM GAS  C:\Users\JASON\AppData\Local\Temp\cczgUn4m.s 			page 18


  76:Generated_Source\PSoC5/ErikaOS_cortex_mx_ee_systick.inc ****     counter to 0 and will cause a reload with the supplied period on the next
  77:Generated_Source\PSoC5/ErikaOS_cortex_mx_ee_systick.inc ****     clock.
  78:Generated_Source\PSoC5/ErikaOS_cortex_mx_ee_systick.inc ****  */
  79:Generated_Source\PSoC5/ErikaOS_cortex_mx_ee_systick.inc **** __INLINE__ void  EE_systick_start(void)
  80:Generated_Source\PSoC5/ErikaOS_cortex_mx_ee_systick.inc **** {
  81:Generated_Source\PSoC5/ErikaOS_cortex_mx_ee_systick.inc ****   NVIC_ST_CTRL_R |= NVIC_ST_CTRL_CLK_SRC | NVIC_ST_CTRL_ENABLE;
  82:Generated_Source\PSoC5/ErikaOS_cortex_mx_ee_systick.inc **** }
  83:Generated_Source\PSoC5/ErikaOS_cortex_mx_ee_systick.inc **** 
  84:Generated_Source\PSoC5/ErikaOS_cortex_mx_ee_systick.inc **** /**
  85:Generated_Source\PSoC5/ErikaOS_cortex_mx_ee_systick.inc ****     @brief Stop SysTick.
  86:Generated_Source\PSoC5/ErikaOS_cortex_mx_ee_systick.inc **** 
  87:Generated_Source\PSoC5/ErikaOS_cortex_mx_ee_systick.inc ****     This will stop the SysTick counter.  If an ISR has been defined, it will
  88:Generated_Source\PSoC5/ErikaOS_cortex_mx_ee_systick.inc ****     no longer be called until SysTick is restarted.
  89:Generated_Source\PSoC5/ErikaOS_cortex_mx_ee_systick.inc **** */
  90:Generated_Source\PSoC5/ErikaOS_cortex_mx_ee_systick.inc **** __INLINE__ void  EE_systick_stop(void)
  91:Generated_Source\PSoC5/ErikaOS_cortex_mx_ee_systick.inc **** {
  92:Generated_Source\PSoC5/ErikaOS_cortex_mx_ee_systick.inc ****   NVIC_ST_CTRL_R &= ~(NVIC_ST_CTRL_ENABLE);
  93:Generated_Source\PSoC5/ErikaOS_cortex_mx_ee_systick.inc **** }
  94:Generated_Source\PSoC5/ErikaOS_cortex_mx_ee_systick.inc **** 
  95:Generated_Source\PSoC5/ErikaOS_cortex_mx_ee_systick.inc **** /**
  96:Generated_Source\PSoC5/ErikaOS_cortex_mx_ee_systick.inc ****     @brief Enables the SysTick interrupt.
  97:Generated_Source\PSoC5/ErikaOS_cortex_mx_ee_systick.inc **** 
  98:Generated_Source\PSoC5/ErikaOS_cortex_mx_ee_systick.inc ****     This function will enable the SysTick interrupt, allowing it to be
  99:Generated_Source\PSoC5/ErikaOS_cortex_mx_ee_systick.inc ****     reflected to the processor.
 100:Generated_Source\PSoC5/ErikaOS_cortex_mx_ee_systick.inc **** 
 101:Generated_Source\PSoC5/ErikaOS_cortex_mx_ee_systick.inc ****     @note The SysTick ISR does not need to clear the SysTick interrupt source as
 102:Generated_Source\PSoC5/ErikaOS_cortex_mx_ee_systick.inc ****     this is done automatically by NVIC when the interrupt ISR is called.
 103:Generated_Source\PSoC5/ErikaOS_cortex_mx_ee_systick.inc ****  */
 104:Generated_Source\PSoC5/ErikaOS_cortex_mx_ee_systick.inc **** __INLINE__ void  EE_systick_enable_int()
 105:Generated_Source\PSoC5/ErikaOS_cortex_mx_ee_systick.inc **** {
 106:Generated_Source\PSoC5/ErikaOS_cortex_mx_ee_systick.inc ****   NVIC_ST_CTRL_R |= NVIC_ST_CTRL_INTEN;
 107:Generated_Source\PSoC5/ErikaOS_cortex_mx_ee_systick.inc **** }
 108:Generated_Source\PSoC5/ErikaOS_cortex_mx_ee_systick.inc **** 
 109:Generated_Source\PSoC5/ErikaOS_cortex_mx_ee_systick.inc **** /**
 110:Generated_Source\PSoC5/ErikaOS_cortex_mx_ee_systick.inc ****     @brief Disables the SysTick interrupt.
 111:Generated_Source\PSoC5/ErikaOS_cortex_mx_ee_systick.inc **** 
 112:Generated_Source\PSoC5/ErikaOS_cortex_mx_ee_systick.inc ****     This function will disable the SysTick interrupt, preventing it from being
 113:Generated_Source\PSoC5/ErikaOS_cortex_mx_ee_systick.inc ****     reflected to the processor.
 114:Generated_Source\PSoC5/ErikaOS_cortex_mx_ee_systick.inc ****  */
 115:Generated_Source\PSoC5/ErikaOS_cortex_mx_ee_systick.inc **** __INLINE__ void  EE_systick_disable_int()
 116:Generated_Source\PSoC5/ErikaOS_cortex_mx_ee_systick.inc **** {
 117:Generated_Source\PSoC5/ErikaOS_cortex_mx_ee_systick.inc ****   NVIC_ST_CTRL_R &= ~(NVIC_ST_CTRL_INTEN);
 118:Generated_Source\PSoC5/ErikaOS_cortex_mx_ee_systick.inc **** }
 119:Generated_Source\PSoC5/ErikaOS_cortex_mx_ee_systick.inc **** 
 120:Generated_Source\PSoC5/ErikaOS_cortex_mx_ee_systick.inc **** /**
 121:Generated_Source\PSoC5/ErikaOS_cortex_mx_ee_systick.inc ****     @brief Sets the period of the SysTick counter.
 122:Generated_Source\PSoC5/ErikaOS_cortex_mx_ee_systick.inc **** 
 123:Generated_Source\PSoC5/ErikaOS_cortex_mx_ee_systick.inc ****     @param period is the number of clock ticks in each period of the SysTick
 124:Generated_Source\PSoC5/ErikaOS_cortex_mx_ee_systick.inc ****     counter; must be between 1 and 16,777,216, inclusive. If the \e period is
 125:Generated_Source\PSoC5/ErikaOS_cortex_mx_ee_systick.inc ****     out of range the function returns \b EE_SYSTICK_ERR_BAD_ARGS, else it will
 126:Generated_Source\PSoC5/ErikaOS_cortex_mx_ee_systick.inc ****     returns \b EE_SYSTICK_NO_ERRORS.
 127:Generated_Source\PSoC5/ErikaOS_cortex_mx_ee_systick.inc **** 
 128:Generated_Source\PSoC5/ErikaOS_cortex_mx_ee_systick.inc ****     This function sets the rate at which the SysTick counter wraps; this
 129:Generated_Source\PSoC5/ErikaOS_cortex_mx_ee_systick.inc ****     equates to the number of processor clocks between interrupts.
 130:Generated_Source\PSoC5/ErikaOS_cortex_mx_ee_systick.inc **** 
 131:Generated_Source\PSoC5/ErikaOS_cortex_mx_ee_systick.inc ****     @note Calling this function does not cause the SysTick counter to reload
 132:Generated_Source\PSoC5/ErikaOS_cortex_mx_ee_systick.inc ****     immediately.  If an immediate reload is required, the \b NVIC_ST_CURRENT
ARM GAS  C:\Users\JASON\AppData\Local\Temp\cczgUn4m.s 			page 19


 133:Generated_Source\PSoC5/ErikaOS_cortex_mx_ee_systick.inc ****     register must be written.  Any write to this register clears the SysTick
 134:Generated_Source\PSoC5/ErikaOS_cortex_mx_ee_systick.inc ****     counter to 0 and will cause a reload with the \e period supplied here on
 135:Generated_Source\PSoC5/ErikaOS_cortex_mx_ee_systick.inc ****     the next clock after the SysTick is enabled.
 136:Generated_Source\PSoC5/ErikaOS_cortex_mx_ee_systick.inc ****  */
 137:Generated_Source\PSoC5/ErikaOS_cortex_mx_ee_systick.inc **** __INLINE__ EE_UREG  EE_systick_set_period(EE_UREG period)
 138:Generated_Source\PSoC5/ErikaOS_cortex_mx_ee_systick.inc **** {
 139:Generated_Source\PSoC5/ErikaOS_cortex_mx_ee_systick.inc ****   if ((period == NVIC_ST_RELOAD_S) || (period > NVIC_ST_RELOAD_M))
 140:Generated_Source\PSoC5/ErikaOS_cortex_mx_ee_systick.inc ****     return EE_SYSTICK_ERR_BAD_ARGS;
 141:Generated_Source\PSoC5/ErikaOS_cortex_mx_ee_systick.inc **** 
 142:Generated_Source\PSoC5/ErikaOS_cortex_mx_ee_systick.inc ****   NVIC_ST_RELOAD_R = period - 1;
 292              		.loc 5 142 0
 293 0004 45F6BF52 		movw	r2, #23999
 294 0008 054B     		ldr	r3, .L14
 295 000a 1A60     		str	r2, [r3]
 296              	.LVL20:
 297              	.LBE145:
 298              	.LBE144:
 299              	.LBB146:
 300              	.LBB147:
 106:Generated_Source\PSoC5/ErikaOS_cortex_mx_ee_systick.inc **** }
 301              		.loc 5 106 0
 302 000c 054A     		ldr	r2, .L14+4
 303 000e 1368     		ldr	r3, [r2]
 304 0010 43F00203 		orr	r3, r3, #2
 305 0014 1360     		str	r3, [r2]
 306              	.L12:
 307              	.LBE147:
 308              	.LBE146:
  39:SourceFiles\asw/main.c ****    
  40:SourceFiles\asw/main.c ****     //Set systick period to 1 ms. Enable the INT and start it.
  41:SourceFiles\asw/main.c **** 	EE_systick_set_period(MILLISECONDS_TO_TICKS(1, BCLK__BUS_CLK__HZ));
  42:SourceFiles\asw/main.c **** 	EE_systick_enable_int();
  43:SourceFiles\asw/main.c ****    
  44:SourceFiles\asw/main.c ****     // Start Operating System
  45:SourceFiles\asw/main.c ****     for(;;)	    
  46:SourceFiles\asw/main.c ****     	StartOS(OSDEFAULTAPPMODE);
 309              		.loc 1 46 0 discriminator 1
 310 0016 0020     		movs	r0, #0
 311 0018 FFF7FEFF 		bl	EE_oo_StartOS
 312              	.LVL21:
 313 001c FBE7     		b	.L12
 314              	.L15:
 315 001e 00BF     		.align	2
 316              	.L14:
 317 0020 14E000E0 		.word	-536813548
 318 0024 10E000E0 		.word	-536813552
 319              		.cfi_endproc
 320              	.LFE133:
 321              		.size	main, .-main
 322              		.section	.text.unhandledException,"ax",%progbits
 323              		.align	2
 324              		.global	unhandledException
 325              		.thumb
 326              		.thumb_func
 327              		.type	unhandledException, %function
 328              	unhandledException:
 329              	.LFB134:
ARM GAS  C:\Users\JASON\AppData\Local\Temp\cczgUn4m.s 			page 20


  47:SourceFiles\asw/main.c **** }
  48:SourceFiles\asw/main.c **** 
  49:SourceFiles\asw/main.c **** void unhandledException()
  50:SourceFiles\asw/main.c **** {
 330              		.loc 1 50 0
 331              		.cfi_startproc
 332              		@ args = 0, pretend = 0, frame = 0
 333              		@ frame_needed = 0, uses_anonymous_args = 0
 334              		@ link register save eliminated.
  51:SourceFiles\asw/main.c ****     //Ooops, something terrible happened....check the call stack to see how we got here...
  52:SourceFiles\asw/main.c ****     __asm("bkpt");
 335              		.loc 1 52 0
 336              		.syntax unified
 337              	@ 52 "SourceFiles\asw\main.c" 1
 338 0000 00BE     		bkpt
 339              	@ 0 "" 2
 340              		.thumb
 341              		.syntax unified
 342 0002 7047     		bx	lr
 343              		.cfi_endproc
 344              	.LFE134:
 345              		.size	unhandledException, .-unhandledException
 346              		.section	.text.Functsk_init,"ax",%progbits
 347              		.align	2
 348              		.global	Functsk_init
 349              		.thumb
 350              		.thumb_func
 351              		.type	Functsk_init, %function
 352              	Functsk_init:
 353              	.LFB135:
  53:SourceFiles\asw/main.c **** }
  54:SourceFiles\asw/main.c **** 
  55:SourceFiles\asw/main.c **** /********************************************************************************
  56:SourceFiles\asw/main.c ****  * Task Definitions
  57:SourceFiles\asw/main.c ****  ********************************************************************************/
  58:SourceFiles\asw/main.c **** 
  59:SourceFiles\asw/main.c **** TASK(tsk_init)
  60:SourceFiles\asw/main.c **** {
 354              		.loc 1 60 0
 355              		.cfi_startproc
 356              		@ args = 0, pretend = 0, frame = 0
 357              		@ frame_needed = 0, uses_anonymous_args = 0
 358 0000 08B5     		push	{r3, lr}
 359              		.cfi_def_cfa_offset 8
 360              		.cfi_offset 3, -8
 361              		.cfi_offset 14, -4
  61:SourceFiles\asw/main.c ****     //Init MCAL Drivers
  62:SourceFiles\asw/main.c ****     UART_LOG_Start();
 362              		.loc 1 62 0
 363 0002 FFF7FEFF 		bl	UART_LOG_Start
 364              	.LVL22:
  63:SourceFiles\asw/main.c ****     TFT_init();
 365              		.loc 1 63 0
 366 0006 FFF7FEFF 		bl	TFT_init
 367              	.LVL23:
  64:SourceFiles\asw/main.c ****     
  65:SourceFiles\asw/main.c ****     //Reconfigure ISRs with OS parameters.
ARM GAS  C:\Users\JASON\AppData\Local\Temp\cczgUn4m.s 			page 21


  66:SourceFiles\asw/main.c ****     //This line MUST be called after the hardware driver initialisation!
  67:SourceFiles\asw/main.c ****     EE_system_init();
 368              		.loc 1 67 0
 369 000a FFF7FEFF 		bl	EE_system_init
 370              	.LVL24:
 371              	.LBB148:
 372              	.LBB149:
  81:Generated_Source\PSoC5/ErikaOS_cortex_mx_ee_systick.inc **** }
 373              		.loc 5 81 0
 374 000e 0B4A     		ldr	r2, .L19
 375 0010 1368     		ldr	r3, [r2]
 376 0012 43F00503 		orr	r3, r3, #5
 377 0016 1360     		str	r3, [r2]
 378              	.LBE149:
 379              	.LBE148:
  68:SourceFiles\asw/main.c **** 	
  69:SourceFiles\asw/main.c ****     //Start SysTick
  70:SourceFiles\asw/main.c **** 	//Must be done here, because otherwise the isr vector is not overwritten yet
  71:SourceFiles\asw/main.c ****     EE_systick_start();  
  72:SourceFiles\asw/main.c **** 	
  73:SourceFiles\asw/main.c ****     //Start the alarm with 1ms cycle time
  74:SourceFiles\asw/main.c ****     SetRelAlarm(alrm_cyclic_1ms,1,1);
 380              		.loc 1 74 0
 381 0018 0122     		movs	r2, #1
 382 001a 1146     		mov	r1, r2
 383 001c 0020     		movs	r0, #0
 384 001e FFF7FEFF 		bl	EE_oo_SetRelAlarm
 385              	.LVL25:
  75:SourceFiles\asw/main.c ****     
  76:SourceFiles\asw/main.c ****     //Tasks that need to be activated
  77:SourceFiles\asw/main.c ****     ActivateTask(tsk_control);
 386              		.loc 1 77 0
 387 0022 0220     		movs	r0, #2
 388 0024 FFF7FEFF 		bl	EE_oo_ActivateTask
 389              	.LVL26:
  78:SourceFiles\asw/main.c ****     ActivateTask(tsk_background);
 390              		.loc 1 78 0
 391 0028 0120     		movs	r0, #1
 392 002a FFF7FEFF 		bl	EE_oo_ActivateTask
 393              	.LVL27:
  79:SourceFiles\asw/main.c ****     
  80:SourceFiles\asw/main.c ****     //State machine initialization
  81:SourceFiles\asw/main.c ****     CLOCK_CONTROL_init_run(0);
 394              		.loc 1 81 0
 395 002e 0020     		movs	r0, #0
 396 0030 FFF7FEFF 		bl	CLOCK_CONTROL_init_run
 397              	.LVL28:
  82:SourceFiles\asw/main.c ****     
  83:SourceFiles\asw/main.c ****     TerminateTask();
 398              		.loc 1 83 0
 399 0034 FFF7FEFF 		bl	EE_oo_TerminateTask
 400              	.LVL29:
 401 0038 08BD     		pop	{r3, pc}
 402              	.L20:
 403 003a 00BF     		.align	2
 404              	.L19:
 405 003c 10E000E0 		.word	-536813552
ARM GAS  C:\Users\JASON\AppData\Local\Temp\cczgUn4m.s 			page 22


 406              		.cfi_endproc
 407              	.LFE135:
 408              		.size	Functsk_init, .-Functsk_init
 409              		.section	.text.alrm_callback,"ax",%progbits
 410              		.align	2
 411              		.global	alrm_callback
 412              		.thumb
 413              		.thumb_func
 414              		.type	alrm_callback, %function
 415              	alrm_callback:
 416              	.LFB136:
  84:SourceFiles\asw/main.c ****     
  85:SourceFiles\asw/main.c **** }
  86:SourceFiles\asw/main.c **** 
  87:SourceFiles\asw/main.c **** void alrm_callback()
  88:SourceFiles\asw/main.c **** {   
 417              		.loc 1 88 0
 418              		.cfi_startproc
 419              		@ args = 0, pretend = 0, frame = 0
 420              		@ frame_needed = 0, uses_anonymous_args = 0
 421 0000 38B5     		push	{r3, r4, r5, lr}
 422              		.cfi_def_cfa_offset 16
 423              		.cfi_offset 3, -16
 424              		.cfi_offset 4, -12
 425              		.cfi_offset 5, -8
 426              		.cfi_offset 14, -4
  89:SourceFiles\asw/main.c ****     /**
  90:SourceFiles\asw/main.c **** 	 * @brief counter to trigger event associated with 1 minute.
  91:SourceFiles\asw/main.c **** 	 */
  92:SourceFiles\asw/main.c **** 	static uint32_t alrm_1min = 0;
  93:SourceFiles\asw/main.c **** 	/**
  94:SourceFiles\asw/main.c **** 	 * @brief counter to trigger event associated with 250 ms.
  95:SourceFiles\asw/main.c **** 	 */
  96:SourceFiles\asw/main.c ****     static uint32_t alrm_250ms = 0;
  97:SourceFiles\asw/main.c ****     
  98:SourceFiles\asw/main.c **** 	//Event associated with 1 minute is triggered only when increment1Min_st is true.
  99:SourceFiles\asw/main.c ****     if(TRUE == increment1Min_st)
 427              		.loc 1 99 0
 428 0002 3F4B     		ldr	r3, .L39
 429 0004 1B78     		ldrb	r3, [r3]	@ zero_extendqisi2
 430 0006 012B     		cmp	r3, #1
 431 0008 38D1     		bne	.L22
 100:SourceFiles\asw/main.c ****     {
 101:SourceFiles\asw/main.c ****         if(60000 == alrm_1min)
 432              		.loc 1 101 0
 433 000a 3E4B     		ldr	r3, .L39+4
 434 000c 1B68     		ldr	r3, [r3]
 435 000e 4EF66022 		movw	r2, #60000
 436 0012 9342     		cmp	r3, r2
 437 0014 2FD1     		bne	.L23
 438              	.LBB150:
 102:SourceFiles\asw/main.c ****         {
 103:SourceFiles\asw/main.c ****             alrm_1min = 0;
 439              		.loc 1 103 0
 440 0016 0022     		movs	r2, #0
 441 0018 3A4B     		ldr	r3, .L39+4
 442 001a 1A60     		str	r2, [r3]
ARM GAS  C:\Users\JASON\AppData\Local\Temp\cczgUn4m.s 			page 23


 443              	.LVL30:
 444              	.LBB151:
 445              	.LBB152:
 446              		.file 6 ".\\SourceFiles\\rte/sc_event.h"
   1:.\SourceFiles\rte/sc_event.h **** 
   2:.\SourceFiles\rte/sc_event.h **** 
   3:.\SourceFiles\rte/sc_event.h **** /**
   4:.\SourceFiles\rte/sc_event.h **** *  file    SC_EVENT_signal.h
   5:.\SourceFiles\rte/sc_event.h **** *
   6:.\SourceFiles\rte/sc_event.h **** *  brief   signal base class for signal sc_event
   7:.\SourceFiles\rte/sc_event.h **** *
   8:.\SourceFiles\rte/sc_event.h **** *  author  Autogenerated, Peter Fromm       <peter.fromm@h-da.de>
   9:.\SourceFiles\rte/sc_event.h **** *
  10:.\SourceFiles\rte/sc_event.h **** *
  11:.\SourceFiles\rte/sc_event.h **** */
  12:.\SourceFiles\rte/sc_event.h **** 
  13:.\SourceFiles\rte/sc_event.h **** /*
  14:.\SourceFiles\rte/sc_event.h **** * description: Signalclass of the Events.
  15:.\SourceFiles\rte/sc_event.h **** * name: sc_EVENT
  16:.\SourceFiles\rte/sc_event.h **** * shortname: EVENT
  17:.\SourceFiles\rte/sc_event.h **** */
  18:.\SourceFiles\rte/sc_event.h **** 
  19:.\SourceFiles\rte/sc_event.h **** #ifndef SC_EVENT_SIGNAL_H_INCLUDED
  20:.\SourceFiles\rte/sc_event.h **** #define SC_EVENT_SIGNAL_H_INCLUDED
  21:.\SourceFiles\rte/sc_event.h **** 
  22:.\SourceFiles\rte/sc_event.h **** /*================================================[ public includes  ]=============================
  23:.\SourceFiles\rte/sc_event.h **** #include "global.h"
  24:.\SourceFiles\rte/sc_event.h **** #include "project.h"
  25:.\SourceFiles\rte/sc_event.h **** #include "rte.h"
  26:.\SourceFiles\rte/sc_event.h **** #include "rte_types.h"
  27:.\SourceFiles\rte/sc_event.h **** 
  28:.\SourceFiles\rte/sc_event.h **** #include "sc_event_type.h"
  29:.\SourceFiles\rte/sc_event.h **** 
  30:.\SourceFiles\rte/sc_event.h **** 
  31:.\SourceFiles\rte/sc_event.h **** /**************************************************************************************************
  32:.\SourceFiles\rte/sc_event.h **** /* The driver API block																						*/
  33:.\SourceFiles\rte/sc_event.h **** /**************************************************************************************************
  34:.\SourceFiles\rte/sc_event.h ****                                                                                                    
  35:.\SourceFiles\rte/sc_event.h **** /**
  36:.\SourceFiles\rte/sc_event.h ****  *  Definition of function types for driver interfaces.
  37:.\SourceFiles\rte/sc_event.h ****  *  I-Port
  38:.\SourceFiles\rte/sc_event.h ****  */
  39:.\SourceFiles\rte/sc_event.h **** typedef RC_t (*SC_EVENT_driverIn_t)(SC_EVENT_data_t * const);
  40:.\SourceFiles\rte/sc_event.h **** 
  41:.\SourceFiles\rte/sc_event.h **** /**
  42:.\SourceFiles\rte/sc_event.h ****  *  Definition of function types for driver interfaces.
  43:.\SourceFiles\rte/sc_event.h ****  *  O-Port
  44:.\SourceFiles\rte/sc_event.h ****  */
  45:.\SourceFiles\rte/sc_event.h **** typedef RC_t (*SC_EVENT_driverOut_t)( const SC_EVENT_data_t * const);
  46:.\SourceFiles\rte/sc_event.h **** 
  47:.\SourceFiles\rte/sc_event.h **** 
  48:.\SourceFiles\rte/sc_event.h **** /**************************************************************************************************
  49:.\SourceFiles\rte/sc_event.h **** /* The signal configuration API block																				*/
  50:.\SourceFiles\rte/sc_event.h **** /**************************************************************************************************
  51:.\SourceFiles\rte/sc_event.h **** 
  52:.\SourceFiles\rte/sc_event.h **** /**
  53:.\SourceFiles\rte/sc_event.h ****  * Instances of the struct SC_EVENT_cfg_t represent the signal object configuration.
ARM GAS  C:\Users\JASON\AppData\Local\Temp\cczgUn4m.s 			page 24


  54:.\SourceFiles\rte/sc_event.h ****  */
  55:.\SourceFiles\rte/sc_event.h **** struct SC_EVENT_cfg_s
  56:.\SourceFiles\rte/sc_event.h **** {
  57:.\SourceFiles\rte/sc_event.h ****     /**
  58:.\SourceFiles\rte/sc_event.h ****      * Function pointer to the input driver
  59:.\SourceFiles\rte/sc_event.h ****      */
  60:.\SourceFiles\rte/sc_event.h ****     SC_EVENT_driverIn_t const inDriver;
  61:.\SourceFiles\rte/sc_event.h **** 
  62:.\SourceFiles\rte/sc_event.h ****     /**
  63:.\SourceFiles\rte/sc_event.h ****      * Function pointer to the output driver table
  64:.\SourceFiles\rte/sc_event.h ****      */
  65:.\SourceFiles\rte/sc_event.h ****    SC_EVENT_driverOut_t const outDriver;
  66:.\SourceFiles\rte/sc_event.h ****    
  67:.\SourceFiles\rte/sc_event.h ****     /**
  68:.\SourceFiles\rte/sc_event.h ****      * Event onUpdate
  69:.\SourceFiles\rte/sc_event.h ****      */
  70:.\SourceFiles\rte/sc_event.h ****     EventMaskType const evOnUpdate;
  71:.\SourceFiles\rte/sc_event.h ****     
  72:.\SourceFiles\rte/sc_event.h ****     
  73:.\SourceFiles\rte/sc_event.h ****     /**
  74:.\SourceFiles\rte/sc_event.h ****      * Event onError
  75:.\SourceFiles\rte/sc_event.h ****      */
  76:.\SourceFiles\rte/sc_event.h ****     EventMaskType const evOnError;
  77:.\SourceFiles\rte/sc_event.h ****     
  78:.\SourceFiles\rte/sc_event.h ****     /**
  79:.\SourceFiles\rte/sc_event.h ****      * Task Count onUpdate
  80:.\SourceFiles\rte/sc_event.h ****      */
  81:.\SourceFiles\rte/sc_event.h ****     size_t const onUpdateTaskCount;
  82:.\SourceFiles\rte/sc_event.h **** 
  83:.\SourceFiles\rte/sc_event.h ****     /**
  84:.\SourceFiles\rte/sc_event.h ****      * Task List onUpdate
  85:.\SourceFiles\rte/sc_event.h ****      */
  86:.\SourceFiles\rte/sc_event.h ****     TaskTypeArray* const onUpdateTasks;
  87:.\SourceFiles\rte/sc_event.h ****     
  88:.\SourceFiles\rte/sc_event.h ****     /**
  89:.\SourceFiles\rte/sc_event.h ****      * Task Count onError
  90:.\SourceFiles\rte/sc_event.h ****      */
  91:.\SourceFiles\rte/sc_event.h ****     size_t const onErrorTaskCount;
  92:.\SourceFiles\rte/sc_event.h **** 
  93:.\SourceFiles\rte/sc_event.h ****     /**
  94:.\SourceFiles\rte/sc_event.h ****      * Task List onError
  95:.\SourceFiles\rte/sc_event.h ****      */
  96:.\SourceFiles\rte/sc_event.h ****     TaskTypeArray* const onErrorTasks;
  97:.\SourceFiles\rte/sc_event.h **** 	
  98:.\SourceFiles\rte/sc_event.h **** 	
  99:.\SourceFiles\rte/sc_event.h **** 	/**
 100:.\SourceFiles\rte/sc_event.h **** 	 * Ressourse is active? We need an additional boolean as a ressource value 0 is valid.
 101:.\SourceFiles\rte/sc_event.h **** 	 */
 102:.\SourceFiles\rte/sc_event.h **** 	 boolean_t const resourceActive;
 103:.\SourceFiles\rte/sc_event.h **** 	 
 104:.\SourceFiles\rte/sc_event.h **** 	/**
 105:.\SourceFiles\rte/sc_event.h **** 	 * Ressourse 
 106:.\SourceFiles\rte/sc_event.h **** 	 */
 107:.\SourceFiles\rte/sc_event.h **** 	 ResourceType const resource;
 108:.\SourceFiles\rte/sc_event.h **** 
 109:.\SourceFiles\rte/sc_event.h **** };                                                                                                 
 110:.\SourceFiles\rte/sc_event.h **** typedef const struct SC_EVENT_cfg_s SC_EVENT_cfg_t;
ARM GAS  C:\Users\JASON\AppData\Local\Temp\cczgUn4m.s 			page 25


 111:.\SourceFiles\rte/sc_event.h ****                               
 112:.\SourceFiles\rte/sc_event.h **** /**************************************************************************************************
 113:.\SourceFiles\rte/sc_event.h **** /* The data interface block																							*/
 114:.\SourceFiles\rte/sc_event.h **** /**************************************************************************************************
 115:.\SourceFiles\rte/sc_event.h **** 
 116:.\SourceFiles\rte/sc_event.h ****                                                                                                    
 117:.\SourceFiles\rte/sc_event.h **** 							  
 118:.\SourceFiles\rte/sc_event.h **** /**
 119:.\SourceFiles\rte/sc_event.h ****  * Instances of the struct SC_EVENT_t represent the signal objects.
 120:.\SourceFiles\rte/sc_event.h ****  * A signal object contains the current application value 'value' as well as relevant meta data.
 121:.\SourceFiles\rte/sc_event.h ****  */
 122:.\SourceFiles\rte/sc_event.h **** struct SC_EVENT_s
 123:.\SourceFiles\rte/sc_event.h **** {                                                                                                  
 124:.\SourceFiles\rte/sc_event.h **** 
 125:.\SourceFiles\rte/sc_event.h **** 	/**
 126:.\SourceFiles\rte/sc_event.h **** 	 * Data buffer for the application value
 127:.\SourceFiles\rte/sc_event.h **** 	 */
 128:.\SourceFiles\rte/sc_event.h ****     SC_EVENT_data_t value;
 129:.\SourceFiles\rte/sc_event.h **** 
 130:.\SourceFiles\rte/sc_event.h ****     /**
 131:.\SourceFiles\rte/sc_event.h ****      * Current signal status
 132:.\SourceFiles\rte/sc_event.h ****      */
 133:.\SourceFiles\rte/sc_event.h ****     RTE_signalStatus_t status;
 134:.\SourceFiles\rte/sc_event.h **** 
 135:.\SourceFiles\rte/sc_event.h ****     /**
 136:.\SourceFiles\rte/sc_event.h ****      * Current age of the signal (in calling cycles)
 137:.\SourceFiles\rte/sc_event.h ****      */
 138:.\SourceFiles\rte/sc_event.h ****     uint32_t age;
 139:.\SourceFiles\rte/sc_event.h **** 
 140:.\SourceFiles\rte/sc_event.h ****     /**
 141:.\SourceFiles\rte/sc_event.h ****      * Pointer to the signal configuration
 142:.\SourceFiles\rte/sc_event.h ****      */
 143:.\SourceFiles\rte/sc_event.h **** 	const SC_EVENT_cfg_t * const    pSigCfg;
 144:.\SourceFiles\rte/sc_event.h **** 
 145:.\SourceFiles\rte/sc_event.h **** };                                                                                                 
 146:.\SourceFiles\rte/sc_event.h **** typedef struct SC_EVENT_s SC_EVENT_t;
 147:.\SourceFiles\rte/sc_event.h **** 
 148:.\SourceFiles\rte/sc_event.h **** /**************************************************************************************************
 149:.\SourceFiles\rte/sc_event.h **** /* Signal initialisation   																							*/
 150:.\SourceFiles\rte/sc_event.h **** /**************************************************************************************************
 151:.\SourceFiles\rte/sc_event.h **** 
 152:.\SourceFiles\rte/sc_event.h **** /**
 153:.\SourceFiles\rte/sc_event.h ****  * Initializes a signal instance with a passed init value.
 154:.\SourceFiles\rte/sc_event.h ****  * Depending on the configured conversion or scaling function the raw_value will be calculated.
 155:.\SourceFiles\rte/sc_event.h ****  * Signal status will change from RTE_SIGNALSTATUS_STARTUP to RTE_SIGNALSTATUS_INITIALIZED.
 156:.\SourceFiles\rte/sc_event.h ****  *
 157:.\SourceFiles\rte/sc_event.h ****  * @param  SC_EVENT_t * const signal: Pointer to the signal object which will be initialised
 158:.\SourceFiles\rte/sc_event.h ****  * @param const sc_event_data_t * const value: Pointer to initial value of the application data
 159:.\SourceFiles\rte/sc_event.h ****  * @return RC_t: standard return code, currently only RC_SUCCESS
 160:.\SourceFiles\rte/sc_event.h ****  *
 161:.\SourceFiles\rte/sc_event.h ****  **/
 162:.\SourceFiles\rte/sc_event.h **** inline RC_t RTE_SC_EVENT_init( SC_EVENT_t * const signal, const SC_EVENT_data_t * const value )
 163:.\SourceFiles\rte/sc_event.h **** {                                                                                                  
 164:.\SourceFiles\rte/sc_event.h **** 
 165:.\SourceFiles\rte/sc_event.h ****    RC_t ret = RC_SUCCESS;
 166:.\SourceFiles\rte/sc_event.h **** 
 167:.\SourceFiles\rte/sc_event.h ****    //Set value and raw value
ARM GAS  C:\Users\JASON\AppData\Local\Temp\cczgUn4m.s 			page 26


 168:.\SourceFiles\rte/sc_event.h ****    signal->value  = *value;
 169:.\SourceFiles\rte/sc_event.h ****    signal->age    = 0;
 170:.\SourceFiles\rte/sc_event.h ****    signal->status = RTE_SIGNALSTATUS_INITIALIZED;
 171:.\SourceFiles\rte/sc_event.h **** 
 172:.\SourceFiles\rte/sc_event.h ****    return ret;
 173:.\SourceFiles\rte/sc_event.h **** }
 174:.\SourceFiles\rte/sc_event.h **** 
 175:.\SourceFiles\rte/sc_event.h **** /**************************************************************************************************
 176:.\SourceFiles\rte/sc_event.h **** /* Status and timeout control																						*/
 177:.\SourceFiles\rte/sc_event.h **** /**************************************************************************************************
 178:.\SourceFiles\rte/sc_event.h **** 
 179:.\SourceFiles\rte/sc_event.h **** /**
 180:.\SourceFiles\rte/sc_event.h ****  *  Returns the current signal status of the passed signal instance.
 181:.\SourceFiles\rte/sc_event.h ****  *
 182:.\SourceFiles\rte/sc_event.h ****  * @param  SC_EVENT_t * const signal: Pointer to the signal object
 183:.\SourceFiles\rte/sc_event.h ****  * @return  sig_status_t: The current signal status
 184:.\SourceFiles\rte/sc_event.h ****  *
 185:.\SourceFiles\rte/sc_event.h ****  **/
 186:.\SourceFiles\rte/sc_event.h **** inline RTE_signalStatus_t RTE_SC_EVENT_getStatus( const SC_EVENT_t * const signal )
 187:.\SourceFiles\rte/sc_event.h **** {
 188:.\SourceFiles\rte/sc_event.h ****    return signal->status;
 189:.\SourceFiles\rte/sc_event.h **** }
 190:.\SourceFiles\rte/sc_event.h **** 
 191:.\SourceFiles\rte/sc_event.h **** 
 192:.\SourceFiles\rte/sc_event.h **** /**
 193:.\SourceFiles\rte/sc_event.h ****  *  Sets a new signal status of the passed signal instance by passing the new status.
 194:.\SourceFiles\rte/sc_event.h ****  *
 195:.\SourceFiles\rte/sc_event.h ****  * @param  SC_EVENT_t * const signal: Pointer to the signal object
 196:.\SourceFiles\rte/sc_event.h ****  * @param  const sig_status_t status: New signal status
 197:.\SourceFiles\rte/sc_event.h ****  * @return RC_t: standard return code, currently only RC_SUCCESS
 198:.\SourceFiles\rte/sc_event.h ****  *
 199:.\SourceFiles\rte/sc_event.h ****  */
 200:.\SourceFiles\rte/sc_event.h **** inline RC_t RTE_SC_EVENT_setStatus( SC_EVENT_t * const signal, const RTE_signalStatus_t status )
 201:.\SourceFiles\rte/sc_event.h **** {
 202:.\SourceFiles\rte/sc_event.h ****    signal->status = status;
 203:.\SourceFiles\rte/sc_event.h ****    size_t taskNum=0;
 204:.\SourceFiles\rte/sc_event.h ****    
 205:.\SourceFiles\rte/sc_event.h ****    //Fire error events in case of invalid state
 206:.\SourceFiles\rte/sc_event.h ****    if (signal->status == RTE_SIGNALSTATUS_INVALID)
 207:.\SourceFiles\rte/sc_event.h ****    {
 208:.\SourceFiles\rte/sc_event.h **** 	    //Pointer to the Taskarray, containing the tasks receiving the onUpdate events
 209:.\SourceFiles\rte/sc_event.h **** 		TaskTypeArray* pTaskArray = signal->pSigCfg->onErrorTasks;
 210:.\SourceFiles\rte/sc_event.h **** 
 211:.\SourceFiles\rte/sc_event.h **** 		if (NULL!=signal->pSigCfg->evOnError && NULL != pTaskArray){
 212:.\SourceFiles\rte/sc_event.h **** 			for( taskNum=0 ; taskNum < signal->pSigCfg->onErrorTaskCount ;taskNum++){
 213:.\SourceFiles\rte/sc_event.h **** 				TaskType task = (*pTaskArray)[taskNum];
 214:.\SourceFiles\rte/sc_event.h **** 				SetEvent( task, signal->pSigCfg->evOnError);
 215:.\SourceFiles\rte/sc_event.h **** 			}
 216:.\SourceFiles\rte/sc_event.h **** 		}
 217:.\SourceFiles\rte/sc_event.h ****    }
 218:.\SourceFiles\rte/sc_event.h ****    
 219:.\SourceFiles\rte/sc_event.h ****    return RC_SUCCESS;
 220:.\SourceFiles\rte/sc_event.h **** }
 221:.\SourceFiles\rte/sc_event.h **** 
 222:.\SourceFiles\rte/sc_event.h **** 
 223:.\SourceFiles\rte/sc_event.h **** /**
 224:.\SourceFiles\rte/sc_event.h ****  * Returns the count of refreshing trials (refresh, set or set_raw) that failed.
ARM GAS  C:\Users\JASON\AppData\Local\Temp\cczgUn4m.s 			page 27


 225:.\SourceFiles\rte/sc_event.h ****  * Prerquisite: The signal is refreshed cyclically
 226:.\SourceFiles\rte/sc_event.h ****  *
 227:.\SourceFiles\rte/sc_event.h ****  * @param  SC_EVENT_t * const signal: Pointer to the signal object
 228:.\SourceFiles\rte/sc_event.h ****  * @return uint32_t: Number of cycles since the signal has been updated for the last time
 229:.\SourceFiles\rte/sc_event.h ****  */
 230:.\SourceFiles\rte/sc_event.h **** inline uint32_t RTE_SC_EVENT_getAge( const SC_EVENT_t * const signal )
 231:.\SourceFiles\rte/sc_event.h **** {
 232:.\SourceFiles\rte/sc_event.h ****    return signal->age;
 233:.\SourceFiles\rte/sc_event.h **** }
 234:.\SourceFiles\rte/sc_event.h **** 
 235:.\SourceFiles\rte/sc_event.h **** /**
 236:.\SourceFiles\rte/sc_event.h ****  * Should be called by application or driver if no new value can be provided.
 237:.\SourceFiles\rte/sc_event.h ****  * @param  SC_EVENT_t * const signal: Pointer to the signal object
 238:.\SourceFiles\rte/sc_event.h ****  * @param uint32_t increment: incrementvalue, typically in [ms]
 239:.\SourceFiles\rte/sc_event.h ****  * @return void
 240:.\SourceFiles\rte/sc_event.h ****  */
 241:.\SourceFiles\rte/sc_event.h **** inline void RTE_SC_EVENT_incAge(  SC_EVENT_t * const signal , uint32_t increment)
 242:.\SourceFiles\rte/sc_event.h **** {
 243:.\SourceFiles\rte/sc_event.h **** 	   //Hack....
 244:.\SourceFiles\rte/sc_event.h **** 	   if ( 0xFFFF0000 > (signal->age + increment) )
 245:.\SourceFiles\rte/sc_event.h **** 	   {
 246:.\SourceFiles\rte/sc_event.h **** 	      signal->age += increment;
 247:.\SourceFiles\rte/sc_event.h **** 	   }
 248:.\SourceFiles\rte/sc_event.h **** }
 249:.\SourceFiles\rte/sc_event.h **** 
 250:.\SourceFiles\rte/sc_event.h **** 
 251:.\SourceFiles\rte/sc_event.h **** /**************************************************************************************************
 252:.\SourceFiles\rte/sc_event.h **** /* Application Data read/write Interface																			*/
 253:.\SourceFiles\rte/sc_event.h **** /**************************************************************************************************
 254:.\SourceFiles\rte/sc_event.h **** 
 255:.\SourceFiles\rte/sc_event.h **** /**
 256:.\SourceFiles\rte/sc_event.h ****  * Returns the current application value of the passed signal instance.
 257:.\SourceFiles\rte/sc_event.h ****  *
 258:.\SourceFiles\rte/sc_event.h ****  * @param  SC_EVENT_t * const signal: Pointer to the signal object
 259:.\SourceFiles\rte/sc_event.h ****  * @return sc_event_data_t: current value of the application data buffer
 260:.\SourceFiles\rte/sc_event.h ****  *
 261:.\SourceFiles\rte/sc_event.h ****  **/
 262:.\SourceFiles\rte/sc_event.h **** inline SC_EVENT_data_t RTE_SC_EVENT_get( const SC_EVENT_t * const signal )
 263:.\SourceFiles\rte/sc_event.h **** {               
 264:.\SourceFiles\rte/sc_event.h ****    //Todo: Critical region cannot be protected using return values																						
 265:.\SourceFiles\rte/sc_event.h ****    return signal->value;                                                                           
 266:.\SourceFiles\rte/sc_event.h **** }                                                                                                  
 267:.\SourceFiles\rte/sc_event.h ****                                                                                                    
 268:.\SourceFiles\rte/sc_event.h **** /**
 269:.\SourceFiles\rte/sc_event.h ****  * Returns the current application value of the passed signal instance threadsafe.
 270:.\SourceFiles\rte/sc_event.h ****  *
 271:.\SourceFiles\rte/sc_event.h ****  * @param  SC_EVENT_t * const signal: Pointer to the signal object
 272:.\SourceFiles\rte/sc_event.h ****  * @param  SC_EVENT_data_t* data: Pointer to the return data Pointer to the signal object
 273:.\SourceFiles\rte/sc_event.h ****  * @return RC_SUCCESS
 274:.\SourceFiles\rte/sc_event.h ****  *
 275:.\SourceFiles\rte/sc_event.h ****  **/
 276:.\SourceFiles\rte/sc_event.h **** inline RC_t RTE_SC_EVENT_getThreadSafe( const SC_EVENT_t * const signal, SC_EVENT_data_t * const da
 277:.\SourceFiles\rte/sc_event.h **** {    
 278:.\SourceFiles\rte/sc_event.h ****    if (TRUE == signal->pSigCfg->resourceActive) GetResource(signal->pSigCfg->resource);
 279:.\SourceFiles\rte/sc_event.h ****    *data = signal->value;
 280:.\SourceFiles\rte/sc_event.h ****    if (TRUE == signal->pSigCfg->resourceActive) ReleaseResource(signal->pSigCfg->resource);        
 281:.\SourceFiles\rte/sc_event.h **** 
ARM GAS  C:\Users\JASON\AppData\Local\Temp\cczgUn4m.s 			page 28


 282:.\SourceFiles\rte/sc_event.h ****    return RC_SUCCESS;                                                                   
 283:.\SourceFiles\rte/sc_event.h ****    
 284:.\SourceFiles\rte/sc_event.h **** }                                                                                                  
 285:.\SourceFiles\rte/sc_event.h ****                                                                                                    
 286:.\SourceFiles\rte/sc_event.h **** /**
 287:.\SourceFiles\rte/sc_event.h ****  * Sets a new application value to the passed signal instance by passing the new value.
 288:.\SourceFiles\rte/sc_event.h ****  * The corresponding driver raw value will be calculated immediately by using the default conversio
 289:.\SourceFiles\rte/sc_event.h ****  * signal specific scaling function.
 290:.\SourceFiles\rte/sc_event.h ****  * The signal age will be set to 0 and the new status will be 'RTE_SIGNALSTATUS_VALID'.
 291:.\SourceFiles\rte/sc_event.h ****  *
 292:.\SourceFiles\rte/sc_event.h ****  * @param  SC_EVENT_t * const signal: Pointer to the signal object
 293:.\SourceFiles\rte/sc_event.h ****  * @param  sc_event_data_t const value: value for the application data buffer
 294:.\SourceFiles\rte/sc_event.h ****  * @return RC_t: standard return code, currently only RC_SUCCESS
 295:.\SourceFiles\rte/sc_event.h ****  *
 296:.\SourceFiles\rte/sc_event.h ****  **/
 297:.\SourceFiles\rte/sc_event.h **** inline RC_t RTE_SC_EVENT_set(SC_EVENT_t * const signal, const SC_EVENT_data_t value  )
 298:.\SourceFiles\rte/sc_event.h **** {
 299:.\SourceFiles\rte/sc_event.h **** 
 300:.\SourceFiles\rte/sc_event.h ****    RC_t ret = RC_SUCCESS;
 301:.\SourceFiles\rte/sc_event.h ****    size_t taskNum=0;
 302:.\SourceFiles\rte/sc_event.h **** 
 303:.\SourceFiles\rte/sc_event.h **** 
 304:.\SourceFiles\rte/sc_event.h ****    if (TRUE == signal->pSigCfg->resourceActive) GetResource(signal->pSigCfg->resource);
 447              		.loc 6 304 0
 448 001c 3A4B     		ldr	r3, .L39+8
 449 001e 9B68     		ldr	r3, [r3, #8]
 450 0020 93F82020 		ldrb	r2, [r3, #32]	@ zero_extendqisi2
 451 0024 012A     		cmp	r2, #1
 452 0026 02D1     		bne	.L24
 453 0028 586A     		ldr	r0, [r3, #36]
 454 002a FFF7FEFF 		bl	EE_oo_GetResource
 455              	.LVL31:
 456              	.L24:
 305:.\SourceFiles\rte/sc_event.h ****    signal->value  = value;
 457              		.loc 6 305 0
 458 002e 364B     		ldr	r3, .L39+8
 459 0030 0522     		movs	r2, #5
 460 0032 1A70     		strb	r2, [r3]
 306:.\SourceFiles\rte/sc_event.h ****    signal->age    = 0;
 461              		.loc 6 306 0
 462 0034 0022     		movs	r2, #0
 463 0036 5A60     		str	r2, [r3, #4]
 307:.\SourceFiles\rte/sc_event.h ****    signal->status = RTE_SIGNALSTATUS_VALID;
 464              		.loc 6 307 0
 465 0038 0222     		movs	r2, #2
 466 003a 5A70     		strb	r2, [r3, #1]
 308:.\SourceFiles\rte/sc_event.h ****    if (TRUE == signal->pSigCfg->resourceActive) ReleaseResource(signal->pSigCfg->resource);
 467              		.loc 6 308 0
 468 003c 9B68     		ldr	r3, [r3, #8]
 469 003e 93F82020 		ldrb	r2, [r3, #32]	@ zero_extendqisi2
 470 0042 012A     		cmp	r2, #1
 471 0044 02D1     		bne	.L25
 472 0046 586A     		ldr	r0, [r3, #36]
 473 0048 FFF7FEFF 		bl	EE_oo_ReleaseResource
 474              	.LVL32:
 475              	.L25:
 309:.\SourceFiles\rte/sc_event.h **** 
ARM GAS  C:\Users\JASON\AppData\Local\Temp\cczgUn4m.s 			page 29


 310:.\SourceFiles\rte/sc_event.h ****    //Pointer to the Taskarray, containing the tasks receiving the onUpdate events
 311:.\SourceFiles\rte/sc_event.h ****    TaskTypeArray* pTaskArray = signal->pSigCfg->onUpdateTasks;
 476              		.loc 6 311 0
 477 004c 2E4B     		ldr	r3, .L39+8
 478 004e 9B68     		ldr	r3, [r3, #8]
 479 0050 5D69     		ldr	r5, [r3, #20]
 480              	.LVL33:
 312:.\SourceFiles\rte/sc_event.h **** 
 313:.\SourceFiles\rte/sc_event.h ****    if (NULL!=signal->pSigCfg->evOnUpdate && NULL != pTaskArray){
 481              		.loc 6 313 0
 482 0052 9B68     		ldr	r3, [r3, #8]
 483 0054 93B1     		cbz	r3, .L22
 484 0056 3DB9     		cbnz	r5, .L36
 485 0058 10E0     		b	.L22
 486              	.LVL34:
 487              	.L28:
 488              	.LBB153:
 314:.\SourceFiles\rte/sc_event.h ****       for( taskNum=0 ; taskNum < signal->pSigCfg->onUpdateTaskCount ;taskNum++){
 315:.\SourceFiles\rte/sc_event.h **** 		  
 316:.\SourceFiles\rte/sc_event.h ****           TaskType task = (*pTaskArray)[taskNum];
 317:.\SourceFiles\rte/sc_event.h **** 	      SetEvent( task, signal->pSigCfg->evOnUpdate);
 489              		.loc 6 317 0
 490 005a 9968     		ldr	r1, [r3, #8]
 491 005c 55F82400 		ldr	r0, [r5, r4, lsl #2]
 492 0060 FFF7FEFF 		bl	EE_oo_SetEvent
 493              	.LVL35:
 494              	.LBE153:
 314:.\SourceFiles\rte/sc_event.h ****       for( taskNum=0 ; taskNum < signal->pSigCfg->onUpdateTaskCount ;taskNum++){
 495              		.loc 6 314 0
 496 0064 0134     		adds	r4, r4, #1
 497              	.LVL36:
 498 0066 00E0     		b	.L27
 499              	.LVL37:
 500              	.L36:
 313:.\SourceFiles\rte/sc_event.h ****       for( taskNum=0 ; taskNum < signal->pSigCfg->onUpdateTaskCount ;taskNum++){
 501              		.loc 6 313 0
 502 0068 0024     		movs	r4, #0
 503              	.LVL38:
 504              	.L27:
 314:.\SourceFiles\rte/sc_event.h ****       for( taskNum=0 ; taskNum < signal->pSigCfg->onUpdateTaskCount ;taskNum++){
 505              		.loc 6 314 0
 506 006a 274B     		ldr	r3, .L39+8
 507 006c 9B68     		ldr	r3, [r3, #8]
 508 006e 1A69     		ldr	r2, [r3, #16]
 509 0070 9442     		cmp	r4, r2
 510 0072 F2D3     		bcc	.L28
 511 0074 02E0     		b	.L22
 512              	.LVL39:
 513              	.L23:
 514              	.LBE152:
 515              	.LBE151:
 516              	.LBE150:
 104:SourceFiles\asw/main.c ****             SC_EVENT_data_t ev = {EV_1MIN};
 105:SourceFiles\asw/main.c ****             RTE_SC_EVENT_set(&SO_EVENT_signal, ev);
 106:SourceFiles\asw/main.c ****         }
 107:SourceFiles\asw/main.c ****         else
 108:SourceFiles\asw/main.c ****         {
ARM GAS  C:\Users\JASON\AppData\Local\Temp\cczgUn4m.s 			page 30


 109:SourceFiles\asw/main.c ****             alrm_1min++;   
 517              		.loc 1 109 0
 518 0076 0133     		adds	r3, r3, #1
 519 0078 224A     		ldr	r2, .L39+4
 520 007a 1360     		str	r3, [r2]
 521              	.L22:
 110:SourceFiles\asw/main.c ****         }
 111:SourceFiles\asw/main.c ****     }
 112:SourceFiles\asw/main.c ****     
 113:SourceFiles\asw/main.c **** 	//Event associated with 250 ms is triggered only when autoIncrement_st is true.
 114:SourceFiles\asw/main.c ****     if(TRUE == autoIncrement_st)
 522              		.loc 1 114 0
 523 007c 234B     		ldr	r3, .L39+12
 524 007e 1B78     		ldrb	r3, [r3]	@ zero_extendqisi2
 525 0080 012B     		cmp	r3, #1
 526 0082 36D1     		bne	.L29
 115:SourceFiles\asw/main.c ****     {
 116:SourceFiles\asw/main.c ****         if(250 == alrm_250ms)
 527              		.loc 1 116 0
 528 0084 1F4B     		ldr	r3, .L39+4
 529 0086 5B68     		ldr	r3, [r3, #4]
 530 0088 FA2B     		cmp	r3, #250
 531 008a 2FD1     		bne	.L30
 532              	.LBB154:
 117:SourceFiles\asw/main.c ****         {
 118:SourceFiles\asw/main.c ****             alrm_250ms = 0;
 533              		.loc 1 118 0
 534 008c 0022     		movs	r2, #0
 535 008e 1D4B     		ldr	r3, .L39+4
 536 0090 5A60     		str	r2, [r3, #4]
 537              	.LVL40:
 538              	.LBB155:
 539              	.LBB156:
 304:.\SourceFiles\rte/sc_event.h ****    signal->value  = value;
 540              		.loc 6 304 0
 541 0092 1D4B     		ldr	r3, .L39+8
 542 0094 9B68     		ldr	r3, [r3, #8]
 543 0096 93F82020 		ldrb	r2, [r3, #32]	@ zero_extendqisi2
 544 009a 012A     		cmp	r2, #1
 545 009c 02D1     		bne	.L31
 546 009e 586A     		ldr	r0, [r3, #36]
 547 00a0 FFF7FEFF 		bl	EE_oo_GetResource
 548              	.LVL41:
 549              	.L31:
 305:.\SourceFiles\rte/sc_event.h ****    signal->age    = 0;
 550              		.loc 6 305 0
 551 00a4 184B     		ldr	r3, .L39+8
 552 00a6 0422     		movs	r2, #4
 553 00a8 1A70     		strb	r2, [r3]
 306:.\SourceFiles\rte/sc_event.h ****    signal->status = RTE_SIGNALSTATUS_VALID;
 554              		.loc 6 306 0
 555 00aa 0022     		movs	r2, #0
 556 00ac 5A60     		str	r2, [r3, #4]
 307:.\SourceFiles\rte/sc_event.h ****    if (TRUE == signal->pSigCfg->resourceActive) ReleaseResource(signal->pSigCfg->resource);
 557              		.loc 6 307 0
 558 00ae 0222     		movs	r2, #2
 559 00b0 5A70     		strb	r2, [r3, #1]
ARM GAS  C:\Users\JASON\AppData\Local\Temp\cczgUn4m.s 			page 31


 308:.\SourceFiles\rte/sc_event.h **** 
 560              		.loc 6 308 0
 561 00b2 9B68     		ldr	r3, [r3, #8]
 562 00b4 93F82020 		ldrb	r2, [r3, #32]	@ zero_extendqisi2
 563 00b8 012A     		cmp	r2, #1
 564 00ba 02D1     		bne	.L32
 565 00bc 586A     		ldr	r0, [r3, #36]
 566 00be FFF7FEFF 		bl	EE_oo_ReleaseResource
 567              	.LVL42:
 568              	.L32:
 311:.\SourceFiles\rte/sc_event.h **** 
 569              		.loc 6 311 0
 570 00c2 114B     		ldr	r3, .L39+8
 571 00c4 9B68     		ldr	r3, [r3, #8]
 572 00c6 5D69     		ldr	r5, [r3, #20]
 573              	.LVL43:
 313:.\SourceFiles\rte/sc_event.h ****       for( taskNum=0 ; taskNum < signal->pSigCfg->onUpdateTaskCount ;taskNum++){
 574              		.loc 6 313 0
 575 00c8 9B68     		ldr	r3, [r3, #8]
 576 00ca 93B1     		cbz	r3, .L29
 577 00cc 3DB9     		cbnz	r5, .L37
 578 00ce 10E0     		b	.L29
 579              	.LVL44:
 580              	.L35:
 581              	.LBB157:
 582              		.loc 6 317 0
 583 00d0 9968     		ldr	r1, [r3, #8]
 584 00d2 55F82400 		ldr	r0, [r5, r4, lsl #2]
 585 00d6 FFF7FEFF 		bl	EE_oo_SetEvent
 586              	.LVL45:
 587              	.LBE157:
 314:.\SourceFiles\rte/sc_event.h **** 		  
 588              		.loc 6 314 0
 589 00da 0134     		adds	r4, r4, #1
 590              	.LVL46:
 591 00dc 00E0     		b	.L34
 592              	.LVL47:
 593              	.L37:
 313:.\SourceFiles\rte/sc_event.h ****       for( taskNum=0 ; taskNum < signal->pSigCfg->onUpdateTaskCount ;taskNum++){
 594              		.loc 6 313 0
 595 00de 0024     		movs	r4, #0
 596              	.LVL48:
 597              	.L34:
 314:.\SourceFiles\rte/sc_event.h **** 		  
 598              		.loc 6 314 0
 599 00e0 094B     		ldr	r3, .L39+8
 600 00e2 9B68     		ldr	r3, [r3, #8]
 601 00e4 1A69     		ldr	r2, [r3, #16]
 602 00e6 9442     		cmp	r4, r2
 603 00e8 F2D3     		bcc	.L35
 604 00ea 02E0     		b	.L29
 605              	.LVL49:
 606              	.L30:
 607              	.LBE156:
 608              	.LBE155:
 609              	.LBE154:
 119:SourceFiles\asw/main.c ****             SC_EVENT_data_t ev = {EV_250MS};
ARM GAS  C:\Users\JASON\AppData\Local\Temp\cczgUn4m.s 			page 32


 120:SourceFiles\asw/main.c ****             RTE_SC_EVENT_set(&SO_EVENT_signal, ev); 
 121:SourceFiles\asw/main.c ****         }
 122:SourceFiles\asw/main.c ****         else
 123:SourceFiles\asw/main.c ****         {
 124:SourceFiles\asw/main.c ****             alrm_250ms++;   
 610              		.loc 1 124 0
 611 00ec 0133     		adds	r3, r3, #1
 612 00ee 054A     		ldr	r2, .L39+4
 613 00f0 5360     		str	r3, [r2, #4]
 614              	.L29:
 125:SourceFiles\asw/main.c ****         }
 126:SourceFiles\asw/main.c ****     }
 127:SourceFiles\asw/main.c ****     
 128:SourceFiles\asw/main.c **** 	// The below cyclic tasks are activated every 1 ms such that the runnables associated
 129:SourceFiles\asw/main.c **** 	// with these tasks are called based on the corresponding RTE cyclic table.
 130:SourceFiles\asw/main.c ****     ActivateTask(tsk_input);
 615              		.loc 1 130 0
 616 00f2 0320     		movs	r0, #3
 617 00f4 FFF7FEFF 		bl	EE_oo_ActivateTask
 618              	.LVL50:
 131:SourceFiles\asw/main.c ****     ActivateTask(tsk_display);
 619              		.loc 1 131 0
 620 00f8 0520     		movs	r0, #5
 621 00fa FFF7FEFF 		bl	EE_oo_ActivateTask
 622              	.LVL51:
 623 00fe 38BD     		pop	{r3, r4, r5, pc}
 624              	.L40:
 625              		.align	2
 626              	.L39:
 627 0100 00000000 		.word	increment1Min_st
 628 0104 00000000 		.word	.LANCHOR0
 629 0108 00000000 		.word	SO_EVENT_signal
 630 010c 00000000 		.word	autoIncrement_st
 631              		.cfi_endproc
 632              	.LFE136:
 633              		.size	alrm_callback, .-alrm_callback
 634              		.section	.text.ISR2_isr_ButtonLeft,"ax",%progbits
 635              		.align	2
 636              		.global	ISR2_isr_ButtonLeft
 637              		.thumb
 638              		.thumb_func
 639              		.type	ISR2_isr_ButtonLeft, %function
 640              	ISR2_isr_ButtonLeft:
 641              	.LFB138:
 132:SourceFiles\asw/main.c ****     
 133:SourceFiles\asw/main.c **** }
 134:SourceFiles\asw/main.c **** 
 135:SourceFiles\asw/main.c **** /********************************************************************************
 136:SourceFiles\asw/main.c ****  * ISR Definitions
 137:SourceFiles\asw/main.c ****  ********************************************************************************/
 138:SourceFiles\asw/main.c **** 
 139:SourceFiles\asw/main.c **** 
 140:SourceFiles\asw/main.c **** ISR2(isr_ButtonLeft)
 141:SourceFiles\asw/main.c **** {
 642              		.loc 1 141 0
 643              		.cfi_startproc
 644              		@ args = 0, pretend = 0, frame = 0
ARM GAS  C:\Users\JASON\AppData\Local\Temp\cczgUn4m.s 			page 33


 645              		@ frame_needed = 0, uses_anonymous_args = 0
 646 0000 38B5     		push	{r3, r4, r5, lr}
 647              		.cfi_def_cfa_offset 16
 648              		.cfi_offset 3, -16
 649              		.cfi_offset 4, -12
 650              		.cfi_offset 5, -8
 651              		.cfi_offset 14, -4
 142:SourceFiles\asw/main.c ****     if(TRUE == button_1_Read())
 652              		.loc 1 142 0
 653 0002 FFF7FEFF 		bl	button_1_Read
 654              	.LVL52:
 655 0006 0128     		cmp	r0, #1
 656 0008 2BD1     		bne	.L41
 657              	.LVL53:
 658              	.LBB158:
 659              	.LBB159:
 660              	.LBB160:
 304:.\SourceFiles\rte/sc_event.h ****    signal->value  = value;
 661              		.loc 6 304 0
 662 000a 164B     		ldr	r3, .L50
 663 000c 9B68     		ldr	r3, [r3, #8]
 664 000e 93F82020 		ldrb	r2, [r3, #32]	@ zero_extendqisi2
 665 0012 012A     		cmp	r2, #1
 666 0014 02D1     		bne	.L43
 667 0016 586A     		ldr	r0, [r3, #36]
 668 0018 FFF7FEFF 		bl	EE_oo_GetResource
 669              	.LVL54:
 670              	.L43:
 305:.\SourceFiles\rte/sc_event.h ****    signal->age    = 0;
 671              		.loc 6 305 0
 672 001c 114B     		ldr	r3, .L50
 673 001e 0122     		movs	r2, #1
 674 0020 1A70     		strb	r2, [r3]
 306:.\SourceFiles\rte/sc_event.h ****    signal->status = RTE_SIGNALSTATUS_VALID;
 675              		.loc 6 306 0
 676 0022 0022     		movs	r2, #0
 677 0024 5A60     		str	r2, [r3, #4]
 307:.\SourceFiles\rte/sc_event.h ****    if (TRUE == signal->pSigCfg->resourceActive) ReleaseResource(signal->pSigCfg->resource);
 678              		.loc 6 307 0
 679 0026 0222     		movs	r2, #2
 680 0028 5A70     		strb	r2, [r3, #1]
 308:.\SourceFiles\rte/sc_event.h **** 
 681              		.loc 6 308 0
 682 002a 9B68     		ldr	r3, [r3, #8]
 683 002c 93F82020 		ldrb	r2, [r3, #32]	@ zero_extendqisi2
 684 0030 012A     		cmp	r2, #1
 685 0032 02D1     		bne	.L44
 686 0034 586A     		ldr	r0, [r3, #36]
 687 0036 FFF7FEFF 		bl	EE_oo_ReleaseResource
 688              	.LVL55:
 689              	.L44:
 311:.\SourceFiles\rte/sc_event.h **** 
 690              		.loc 6 311 0
 691 003a 0A4B     		ldr	r3, .L50
 692 003c 9B68     		ldr	r3, [r3, #8]
 693 003e 5D69     		ldr	r5, [r3, #20]
 694              	.LVL56:
ARM GAS  C:\Users\JASON\AppData\Local\Temp\cczgUn4m.s 			page 34


 313:.\SourceFiles\rte/sc_event.h ****       for( taskNum=0 ; taskNum < signal->pSigCfg->onUpdateTaskCount ;taskNum++){
 695              		.loc 6 313 0
 696 0040 9B68     		ldr	r3, [r3, #8]
 697 0042 73B1     		cbz	r3, .L41
 698 0044 3DB9     		cbnz	r5, .L48
 699 0046 38BD     		pop	{r3, r4, r5, pc}
 700              	.LVL57:
 701              	.L47:
 702              	.LBB161:
 703              		.loc 6 317 0
 704 0048 9968     		ldr	r1, [r3, #8]
 705 004a 55F82400 		ldr	r0, [r5, r4, lsl #2]
 706 004e FFF7FEFF 		bl	EE_oo_SetEvent
 707              	.LVL58:
 708              	.LBE161:
 314:.\SourceFiles\rte/sc_event.h **** 		  
 709              		.loc 6 314 0
 710 0052 0134     		adds	r4, r4, #1
 711              	.LVL59:
 712 0054 00E0     		b	.L46
 713              	.LVL60:
 714              	.L48:
 313:.\SourceFiles\rte/sc_event.h ****       for( taskNum=0 ; taskNum < signal->pSigCfg->onUpdateTaskCount ;taskNum++){
 715              		.loc 6 313 0
 716 0056 0024     		movs	r4, #0
 717              	.LVL61:
 718              	.L46:
 314:.\SourceFiles\rte/sc_event.h **** 		  
 719              		.loc 6 314 0
 720 0058 024B     		ldr	r3, .L50
 721 005a 9B68     		ldr	r3, [r3, #8]
 722 005c 1A69     		ldr	r2, [r3, #16]
 723 005e 9442     		cmp	r4, r2
 724 0060 F2D3     		bcc	.L47
 725              	.LVL62:
 726              	.L41:
 727 0062 38BD     		pop	{r3, r4, r5, pc}
 728              	.L51:
 729              		.align	2
 730              	.L50:
 731 0064 00000000 		.word	SO_EVENT_signal
 732              	.LBE160:
 733              	.LBE159:
 734              	.LBE158:
 735              		.cfi_endproc
 736              	.LFE138:
 737              		.size	ISR2_isr_ButtonLeft, .-ISR2_isr_ButtonLeft
 738              		.section	.text.isr_ButtonLeft,"ax",%progbits
 739              		.align	2
 740              		.global	isr_ButtonLeft
 741              		.thumb
 742              		.thumb_func
 743              		.type	isr_ButtonLeft, %function
 744              	isr_ButtonLeft:
 745              	.LFB137:
 140:SourceFiles\asw/main.c **** {
 746              		.loc 1 140 0
ARM GAS  C:\Users\JASON\AppData\Local\Temp\cczgUn4m.s 			page 35


 747              		.cfi_startproc
 748              		@ Stack Align: May be called with mis-aligned SP.
 749              		@ args = 0, pretend = 0, frame = 0
 750              		@ frame_needed = 0, uses_anonymous_args = 0
 751 0000 6846     		mov	r0, sp
 752              		.cfi_register 13, 0
 753 0002 20F00701 		bic	r1, r0, #7
 754 0006 8D46     		mov	sp, r1
 755 0008 19B5     		push	{r0, r3, r4, lr}
 756              		.cfi_def_cfa_offset 16
 757              		.cfi_offset 13, -16
 758              		.cfi_offset 3, -12
 759              		.cfi_offset 4, -8
 760              		.cfi_offset 14, -4
 761              	.LVL63:
 762              	.LBB186:
 763              	.LBB187:
 211:Generated_Source\PSoC5/ErikaOS_cortex_mx_ee_cpu.inc **** #endif	/* !__KEIL__ */
 764              		.loc 2 211 0
 765              		.syntax unified
 766              	@ 211 "Generated_Source\PSoC5/ErikaOS_cortex_mx_ee_cpu.inc" 1
 767 000a 72B6     		cpsid i
 768              	@ 0 "" 2
 769              		.thumb
 770              		.syntax unified
 771              	.LBE187:
 772              	.LBE186:
 773              	.LBB188:
 774              	.LBB189:
 325:Generated_Source\PSoC5/ErikaOS_cortex_mx_ee_cpu.inc **** #else
 775              		.loc 2 325 0
 776              		.syntax unified
 777              	@ 325 "Generated_Source\PSoC5/ErikaOS_cortex_mx_ee_cpu.inc" 1
 778 000c EFF31184 		MRS r4, BASEPRI
 779              	@ 0 "" 2
 780              	.LVL64:
 781              		.thumb
 782              		.syntax unified
 783              	.LBE189:
 784              	.LBE188:
 785              	.LBB190:
 786              	.LBB191:
 372:Generated_Source\PSoC5/ErikaOS_cortex_mx_ee_cpu.inc ****   register EE_TYPEISR2PRIO prio = 0;
 787              		.loc 2 372 0
 788 0010 1E4B     		ldr	r3, .L58
 789 0012 1B68     		ldr	r3, [r3]
 790 0014 DBB2     		uxtb	r3, r3
 791              	.LVL65:
 375:Generated_Source\PSoC5/ErikaOS_cortex_mx_ee_cpu.inc ****     vectact -= EE_CORTEX_MX_SYSTICK_EXC_NUM + 1;
 792              		.loc 2 375 0
 793 0016 0F2B     		cmp	r3, #15
 794 0018 10D9     		bls	.L53
 376:Generated_Source\PSoC5/ErikaOS_cortex_mx_ee_cpu.inc ****     prio = NVIC_GET_PRI(vectact);
 795              		.loc 2 376 0
 796 001a 103B     		subs	r3, r3, #16
 797              	.LVL66:
 377:Generated_Source\PSoC5/ErikaOS_cortex_mx_ee_cpu.inc ****   }
ARM GAS  C:\Users\JASON\AppData\Local\Temp\cczgUn4m.s 			page 36


 798              		.loc 2 377 0
 799 001c 23F00302 		bic	r2, r3, #3
 800 0020 02F16042 		add	r2, r2, #-536870912
 801 0024 02F56442 		add	r2, r2, #58368
 802 0028 1168     		ldr	r1, [r2]
 803 002a DB00     		lsls	r3, r3, #3
 804              	.LVL67:
 805 002c 03F01803 		and	r3, r3, #24
 806 0030 E022     		movs	r2, #224
 807 0032 9A40     		lsls	r2, r2, r3
 808 0034 0A40     		ands	r2, r2, r1
 809 0036 22FA03F3 		lsr	r3, r2, r3
 810              	.LVL68:
 811 003a 06E0     		b	.L54
 812              	.LVL69:
 813              	.L53:
 380:Generated_Source\PSoC5/ErikaOS_cortex_mx_ee_cpu.inc ****     prio = NVIC_SYS_PRI3_R >> NVIC_SYS_PRI3_TICK_S;
 814              		.loc 2 380 0
 815 003c 0F2B     		cmp	r3, #15
 816 003e 03D1     		bne	.L57
 817              		.loc 2 381 0
 818 0040 134B     		ldr	r3, .L58+4
 819              	.LVL70:
 820 0042 1B68     		ldr	r3, [r3]
 821 0044 1B0E     		lsrs	r3, r3, #24
 822              	.LVL71:
 823 0046 00E0     		b	.L54
 824              	.LVL72:
 825              	.L57:
 373:Generated_Source\PSoC5/ErikaOS_cortex_mx_ee_cpu.inc **** 
 826              		.loc 2 373 0
 827 0048 0023     		movs	r3, #0
 828              	.LVL73:
 829              	.L54:
 830              	.LBE191:
 831              	.LBE190:
 832              	.LBB192:
 833              	.LBB193:
 358:Generated_Source\PSoC5/ErikaOS_cortex_mx_ee_cpu.inc **** #else
 834              		.loc 2 358 0
 835              		.syntax unified
 836              	@ 358 "Generated_Source\PSoC5/ErikaOS_cortex_mx_ee_cpu.inc" 1
 837 004a 83F31188 		MSR BASEPRI, r3
 838              	@ 0 "" 2
 839              		.thumb
 840              		.syntax unified
 841              	.LBE193:
 842              	.LBE192:
 843              	.LBB194:
 844              	.LBB195:
  85:Generated_Source\PSoC5/ErikaOS_common_ee_irqstub.inc **** /*  EE_std_enableIRQ_nested() and EE_std_disableIRQ_nested() must be defined in
 845              		.loc 3 85 0
 846 004e 114A     		ldr	r2, .L58+8
 847 0050 1368     		ldr	r3, [r2]
 848 0052 0133     		adds	r3, r3, #1
 849 0054 1360     		str	r3, [r2]
 850              	.LBE195:
ARM GAS  C:\Users\JASON\AppData\Local\Temp\cczgUn4m.s 			page 37


 851              	.LBE194:
 140:SourceFiles\asw/main.c **** {
 852              		.loc 1 140 0
 853 0056 012B     		cmp	r3, #1
 854 0058 01D1     		bne	.L55
 140:SourceFiles\asw/main.c **** {
 855              		.loc 1 140 0 is_stmt 0 discriminator 1
 856 005a FFF7FEFF 		bl	EE_cortex_mx_change_IRQ_stack
 857              	.LVL74:
 858              	.L55:
 859              	.LBB196:
 860              	.LBB197:
 191:Generated_Source\PSoC5/ErikaOS_cortex_mx_ee_cpu.inc **** #endif	/* !__KEIL__ */
 861              		.loc 2 191 0 is_stmt 1 discriminator 3
 862              		.syntax unified
 863              	@ 191 "Generated_Source\PSoC5/ErikaOS_cortex_mx_ee_cpu.inc" 1
 864 005e 62B6     		cpsie i
 865              	@ 0 "" 2
 866              		.thumb
 867              		.syntax unified
 868              	.LBE197:
 869              	.LBE196:
 140:SourceFiles\asw/main.c **** {
 870              		.loc 1 140 0 discriminator 3
 871 0060 FFF7FEFF 		bl	ISR2_isr_ButtonLeft
 872              	.LVL75:
 873              	.LBB198:
 874              	.LBB199:
 211:Generated_Source\PSoC5/ErikaOS_cortex_mx_ee_cpu.inc **** #endif	/* !__KEIL__ */
 875              		.loc 2 211 0 discriminator 3
 876              		.syntax unified
 877              	@ 211 "Generated_Source\PSoC5/ErikaOS_cortex_mx_ee_cpu.inc" 1
 878 0064 72B6     		cpsid i
 879              	@ 0 "" 2
 880              	.LVL76:
 881              		.thumb
 882              		.syntax unified
 883              	.LBE199:
 884              	.LBE198:
 885              	.LBB200:
 886              	.LBB201:
 358:Generated_Source\PSoC5/ErikaOS_cortex_mx_ee_cpu.inc **** #else
 887              		.loc 2 358 0 discriminator 3
 888              		.syntax unified
 889              	@ 358 "Generated_Source\PSoC5/ErikaOS_cortex_mx_ee_cpu.inc" 1
 890 0066 84F31188 		MSR BASEPRI, r4
 891              	@ 0 "" 2
 892              	.LVL77:
 893              		.thumb
 894              		.syntax unified
 895              	.LBE201:
 896              	.LBE200:
 897              	.LBB202:
 898              	.LBB203:
 899              		.loc 3 102 0 discriminator 3
 900 006a FFF7FEFF 		bl	EE_IRQ_end_post_stub
 901              	.LVL78:
ARM GAS  C:\Users\JASON\AppData\Local\Temp\cczgUn4m.s 			page 38


 902              	.LBE203:
 903              	.LBE202:
 904              	.LBB204:
 905              	.LBB205:
  84:Generated_Source\PSoC5/ErikaOS_common_ee_irqstub.inc **** __INLINE__ void  EE_increment_IRQ_nesting_level(void) { ++EE_IRQ_nesting_level; }
 906              		.loc 3 84 0 discriminator 3
 907 006e 094A     		ldr	r2, .L58+8
 908 0070 1368     		ldr	r3, [r2]
 909 0072 013B     		subs	r3, r3, #1
 910 0074 1360     		str	r3, [r2]
 911              	.LBE205:
 912              	.LBE204:
 140:SourceFiles\asw/main.c **** {
 913              		.loc 1 140 0 discriminator 3
 914 0076 1BB9     		cbnz	r3, .L56
 140:SourceFiles\asw/main.c **** {
 915              		.loc 1 140 0 is_stmt 0 discriminator 4
 916 0078 FFF7FEFF 		bl	EE_cortex_mx_change_IRQ_stack_back
 917              	.LVL79:
 918              	.LBB206:
 919              	.LBB207:
 920              		.loc 4 68 0 is_stmt 1 discriminator 4
 921 007c FFF7FEFF 		bl	EE_switch_context
 922              	.LVL80:
 923              	.L56:
 924              	.LBE207:
 925              	.LBE206:
 926              	.LBB208:
 927              	.LBB209:
 191:Generated_Source\PSoC5/ErikaOS_cortex_mx_ee_cpu.inc **** #endif	/* !__KEIL__ */
 928              		.loc 2 191 0 discriminator 6
 929              		.syntax unified
 930              	@ 191 "Generated_Source\PSoC5/ErikaOS_cortex_mx_ee_cpu.inc" 1
 931 0080 62B6     		cpsie i
 932              	@ 0 "" 2
 933              		.thumb
 934              		.syntax unified
 935              	.LBE209:
 936              	.LBE208:
 140:SourceFiles\asw/main.c **** {
 937              		.loc 1 140 0 discriminator 6
 938 0082 BDE81940 		pop	{r0, r3, r4, lr}
 939              		.cfi_restore 14
 940              		.cfi_restore 4
 941              		.cfi_restore 3
 942              		.cfi_restore 0
 943              		.cfi_def_cfa_offset 0
 944 0086 8546     		mov	sp, r0
 945 0088 7047     		bx	lr
 946              	.L59:
 947 008a 00BF     		.align	2
 948              	.L58:
 949 008c 04ED00E0 		.word	-536810236
 950 0090 20ED00E0 		.word	-536810208
 951 0094 00000000 		.word	EE_IRQ_nesting_level
 952              		.cfi_endproc
 953              	.LFE137:
ARM GAS  C:\Users\JASON\AppData\Local\Temp\cczgUn4m.s 			page 39


 954              		.size	isr_ButtonLeft, .-isr_ButtonLeft
 955              		.section	.text.ISR2_isr_ButtonRight,"ax",%progbits
 956              		.align	2
 957              		.global	ISR2_isr_ButtonRight
 958              		.thumb
 959              		.thumb_func
 960              		.type	ISR2_isr_ButtonRight, %function
 961              	ISR2_isr_ButtonRight:
 962              	.LFB140:
 143:SourceFiles\asw/main.c ****     {
 144:SourceFiles\asw/main.c ****         // Set event associated with the left button pressed which then triggers the ev_onUpdate
 145:SourceFiles\asw/main.c **** 		SC_EVENT_data_t ev = {EV_KEYLEFT};
 146:SourceFiles\asw/main.c ****         RTE_SC_EVENT_set(&SO_EVENT_signal, ev);
 147:SourceFiles\asw/main.c ****     }
 148:SourceFiles\asw/main.c **** }
 149:SourceFiles\asw/main.c **** 
 150:SourceFiles\asw/main.c **** ISR2(isr_ButtonRight)
 151:SourceFiles\asw/main.c **** {
 963              		.loc 1 151 0
 964              		.cfi_startproc
 965              		@ args = 0, pretend = 0, frame = 0
 966              		@ frame_needed = 0, uses_anonymous_args = 0
 967 0000 38B5     		push	{r3, r4, r5, lr}
 968              		.cfi_def_cfa_offset 16
 969              		.cfi_offset 3, -16
 970              		.cfi_offset 4, -12
 971              		.cfi_offset 5, -8
 972              		.cfi_offset 14, -4
 152:SourceFiles\asw/main.c ****     if(TRUE == button_2_Read())
 973              		.loc 1 152 0
 974 0002 FFF7FEFF 		bl	button_2_Read
 975              	.LVL81:
 976 0006 0128     		cmp	r0, #1
 977 0008 2BD1     		bne	.L60
 978              	.LVL82:
 979              	.LBB210:
 980              	.LBB211:
 981              	.LBB212:
 304:.\SourceFiles\rte/sc_event.h ****    signal->value  = value;
 982              		.loc 6 304 0
 983 000a 164B     		ldr	r3, .L69
 984 000c 9B68     		ldr	r3, [r3, #8]
 985 000e 93F82020 		ldrb	r2, [r3, #32]	@ zero_extendqisi2
 986 0012 012A     		cmp	r2, #1
 987 0014 02D1     		bne	.L62
 988 0016 586A     		ldr	r0, [r3, #36]
 989 0018 FFF7FEFF 		bl	EE_oo_GetResource
 990              	.LVL83:
 991              	.L62:
 305:.\SourceFiles\rte/sc_event.h ****    signal->age    = 0;
 992              		.loc 6 305 0
 993 001c 114B     		ldr	r3, .L69
 994 001e 0222     		movs	r2, #2
 995 0020 1A70     		strb	r2, [r3]
 306:.\SourceFiles\rte/sc_event.h ****    signal->status = RTE_SIGNALSTATUS_VALID;
 996              		.loc 6 306 0
 997 0022 0022     		movs	r2, #0
ARM GAS  C:\Users\JASON\AppData\Local\Temp\cczgUn4m.s 			page 40


 998 0024 5A60     		str	r2, [r3, #4]
 307:.\SourceFiles\rte/sc_event.h ****    if (TRUE == signal->pSigCfg->resourceActive) ReleaseResource(signal->pSigCfg->resource);
 999              		.loc 6 307 0
 1000 0026 0222     		movs	r2, #2
 1001 0028 5A70     		strb	r2, [r3, #1]
 308:.\SourceFiles\rte/sc_event.h **** 
 1002              		.loc 6 308 0
 1003 002a 9B68     		ldr	r3, [r3, #8]
 1004 002c 93F82020 		ldrb	r2, [r3, #32]	@ zero_extendqisi2
 1005 0030 012A     		cmp	r2, #1
 1006 0032 02D1     		bne	.L63
 1007 0034 586A     		ldr	r0, [r3, #36]
 1008 0036 FFF7FEFF 		bl	EE_oo_ReleaseResource
 1009              	.LVL84:
 1010              	.L63:
 311:.\SourceFiles\rte/sc_event.h **** 
 1011              		.loc 6 311 0
 1012 003a 0A4B     		ldr	r3, .L69
 1013 003c 9B68     		ldr	r3, [r3, #8]
 1014 003e 5D69     		ldr	r5, [r3, #20]
 1015              	.LVL85:
 313:.\SourceFiles\rte/sc_event.h ****       for( taskNum=0 ; taskNum < signal->pSigCfg->onUpdateTaskCount ;taskNum++){
 1016              		.loc 6 313 0
 1017 0040 9B68     		ldr	r3, [r3, #8]
 1018 0042 73B1     		cbz	r3, .L60
 1019 0044 3DB9     		cbnz	r5, .L67
 1020 0046 38BD     		pop	{r3, r4, r5, pc}
 1021              	.LVL86:
 1022              	.L66:
 1023              	.LBB213:
 1024              		.loc 6 317 0
 1025 0048 9968     		ldr	r1, [r3, #8]
 1026 004a 55F82400 		ldr	r0, [r5, r4, lsl #2]
 1027 004e FFF7FEFF 		bl	EE_oo_SetEvent
 1028              	.LVL87:
 1029              	.LBE213:
 314:.\SourceFiles\rte/sc_event.h **** 		  
 1030              		.loc 6 314 0
 1031 0052 0134     		adds	r4, r4, #1
 1032              	.LVL88:
 1033 0054 00E0     		b	.L65
 1034              	.LVL89:
 1035              	.L67:
 313:.\SourceFiles\rte/sc_event.h ****       for( taskNum=0 ; taskNum < signal->pSigCfg->onUpdateTaskCount ;taskNum++){
 1036              		.loc 6 313 0
 1037 0056 0024     		movs	r4, #0
 1038              	.LVL90:
 1039              	.L65:
 314:.\SourceFiles\rte/sc_event.h **** 		  
 1040              		.loc 6 314 0
 1041 0058 024B     		ldr	r3, .L69
 1042 005a 9B68     		ldr	r3, [r3, #8]
 1043 005c 1A69     		ldr	r2, [r3, #16]
 1044 005e 9442     		cmp	r4, r2
 1045 0060 F2D3     		bcc	.L66
 1046              	.LVL91:
 1047              	.L60:
ARM GAS  C:\Users\JASON\AppData\Local\Temp\cczgUn4m.s 			page 41


 1048 0062 38BD     		pop	{r3, r4, r5, pc}
 1049              	.L70:
 1050              		.align	2
 1051              	.L69:
 1052 0064 00000000 		.word	SO_EVENT_signal
 1053              	.LBE212:
 1054              	.LBE211:
 1055              	.LBE210:
 1056              		.cfi_endproc
 1057              	.LFE140:
 1058              		.size	ISR2_isr_ButtonRight, .-ISR2_isr_ButtonRight
 1059              		.section	.text.isr_ButtonRight,"ax",%progbits
 1060              		.align	2
 1061              		.global	isr_ButtonRight
 1062              		.thumb
 1063              		.thumb_func
 1064              		.type	isr_ButtonRight, %function
 1065              	isr_ButtonRight:
 1066              	.LFB139:
 150:SourceFiles\asw/main.c **** {
 1067              		.loc 1 150 0
 1068              		.cfi_startproc
 1069              		@ Stack Align: May be called with mis-aligned SP.
 1070              		@ args = 0, pretend = 0, frame = 0
 1071              		@ frame_needed = 0, uses_anonymous_args = 0
 1072 0000 6846     		mov	r0, sp
 1073              		.cfi_register 13, 0
 1074 0002 20F00701 		bic	r1, r0, #7
 1075 0006 8D46     		mov	sp, r1
 1076 0008 19B5     		push	{r0, r3, r4, lr}
 1077              		.cfi_def_cfa_offset 16
 1078              		.cfi_offset 13, -16
 1079              		.cfi_offset 3, -12
 1080              		.cfi_offset 4, -8
 1081              		.cfi_offset 14, -4
 1082              	.LVL92:
 1083              	.LBB238:
 1084              	.LBB239:
 211:Generated_Source\PSoC5/ErikaOS_cortex_mx_ee_cpu.inc **** #endif	/* !__KEIL__ */
 1085              		.loc 2 211 0
 1086              		.syntax unified
 1087              	@ 211 "Generated_Source\PSoC5/ErikaOS_cortex_mx_ee_cpu.inc" 1
 1088 000a 72B6     		cpsid i
 1089              	@ 0 "" 2
 1090              		.thumb
 1091              		.syntax unified
 1092              	.LBE239:
 1093              	.LBE238:
 1094              	.LBB240:
 1095              	.LBB241:
 325:Generated_Source\PSoC5/ErikaOS_cortex_mx_ee_cpu.inc **** #else
 1096              		.loc 2 325 0
 1097              		.syntax unified
 1098              	@ 325 "Generated_Source\PSoC5/ErikaOS_cortex_mx_ee_cpu.inc" 1
 1099 000c EFF31184 		MRS r4, BASEPRI
 1100              	@ 0 "" 2
 1101              	.LVL93:
ARM GAS  C:\Users\JASON\AppData\Local\Temp\cczgUn4m.s 			page 42


 1102              		.thumb
 1103              		.syntax unified
 1104              	.LBE241:
 1105              	.LBE240:
 1106              	.LBB242:
 1107              	.LBB243:
 372:Generated_Source\PSoC5/ErikaOS_cortex_mx_ee_cpu.inc ****   register EE_TYPEISR2PRIO prio = 0;
 1108              		.loc 2 372 0
 1109 0010 1E4B     		ldr	r3, .L77
 1110 0012 1B68     		ldr	r3, [r3]
 1111 0014 DBB2     		uxtb	r3, r3
 1112              	.LVL94:
 375:Generated_Source\PSoC5/ErikaOS_cortex_mx_ee_cpu.inc ****     vectact -= EE_CORTEX_MX_SYSTICK_EXC_NUM + 1;
 1113              		.loc 2 375 0
 1114 0016 0F2B     		cmp	r3, #15
 1115 0018 10D9     		bls	.L72
 376:Generated_Source\PSoC5/ErikaOS_cortex_mx_ee_cpu.inc ****     prio = NVIC_GET_PRI(vectact);
 1116              		.loc 2 376 0
 1117 001a 103B     		subs	r3, r3, #16
 1118              	.LVL95:
 377:Generated_Source\PSoC5/ErikaOS_cortex_mx_ee_cpu.inc ****   }
 1119              		.loc 2 377 0
 1120 001c 23F00302 		bic	r2, r3, #3
 1121 0020 02F16042 		add	r2, r2, #-536870912
 1122 0024 02F56442 		add	r2, r2, #58368
 1123 0028 1168     		ldr	r1, [r2]
 1124 002a DB00     		lsls	r3, r3, #3
 1125              	.LVL96:
 1126 002c 03F01803 		and	r3, r3, #24
 1127 0030 E022     		movs	r2, #224
 1128 0032 9A40     		lsls	r2, r2, r3
 1129 0034 0A40     		ands	r2, r2, r1
 1130 0036 22FA03F3 		lsr	r3, r2, r3
 1131              	.LVL97:
 1132 003a 06E0     		b	.L73
 1133              	.LVL98:
 1134              	.L72:
 380:Generated_Source\PSoC5/ErikaOS_cortex_mx_ee_cpu.inc ****     prio = NVIC_SYS_PRI3_R >> NVIC_SYS_PRI3_TICK_S;
 1135              		.loc 2 380 0
 1136 003c 0F2B     		cmp	r3, #15
 1137 003e 03D1     		bne	.L76
 1138              		.loc 2 381 0
 1139 0040 134B     		ldr	r3, .L77+4
 1140              	.LVL99:
 1141 0042 1B68     		ldr	r3, [r3]
 1142 0044 1B0E     		lsrs	r3, r3, #24
 1143              	.LVL100:
 1144 0046 00E0     		b	.L73
 1145              	.LVL101:
 1146              	.L76:
 373:Generated_Source\PSoC5/ErikaOS_cortex_mx_ee_cpu.inc **** 
 1147              		.loc 2 373 0
 1148 0048 0023     		movs	r3, #0
 1149              	.LVL102:
 1150              	.L73:
 1151              	.LBE243:
 1152              	.LBE242:
ARM GAS  C:\Users\JASON\AppData\Local\Temp\cczgUn4m.s 			page 43


 1153              	.LBB244:
 1154              	.LBB245:
 358:Generated_Source\PSoC5/ErikaOS_cortex_mx_ee_cpu.inc **** #else
 1155              		.loc 2 358 0
 1156              		.syntax unified
 1157              	@ 358 "Generated_Source\PSoC5/ErikaOS_cortex_mx_ee_cpu.inc" 1
 1158 004a 83F31188 		MSR BASEPRI, r3
 1159              	@ 0 "" 2
 1160              		.thumb
 1161              		.syntax unified
 1162              	.LBE245:
 1163              	.LBE244:
 1164              	.LBB246:
 1165              	.LBB247:
  85:Generated_Source\PSoC5/ErikaOS_common_ee_irqstub.inc **** /*  EE_std_enableIRQ_nested() and EE_std_disableIRQ_nested() must be defined in
 1166              		.loc 3 85 0
 1167 004e 114A     		ldr	r2, .L77+8
 1168 0050 1368     		ldr	r3, [r2]
 1169 0052 0133     		adds	r3, r3, #1
 1170 0054 1360     		str	r3, [r2]
 1171              	.LBE247:
 1172              	.LBE246:
 150:SourceFiles\asw/main.c **** {
 1173              		.loc 1 150 0
 1174 0056 012B     		cmp	r3, #1
 1175 0058 01D1     		bne	.L74
 150:SourceFiles\asw/main.c **** {
 1176              		.loc 1 150 0 is_stmt 0 discriminator 1
 1177 005a FFF7FEFF 		bl	EE_cortex_mx_change_IRQ_stack
 1178              	.LVL103:
 1179              	.L74:
 1180              	.LBB248:
 1181              	.LBB249:
 191:Generated_Source\PSoC5/ErikaOS_cortex_mx_ee_cpu.inc **** #endif	/* !__KEIL__ */
 1182              		.loc 2 191 0 is_stmt 1 discriminator 3
 1183              		.syntax unified
 1184              	@ 191 "Generated_Source\PSoC5/ErikaOS_cortex_mx_ee_cpu.inc" 1
 1185 005e 62B6     		cpsie i
 1186              	@ 0 "" 2
 1187              		.thumb
 1188              		.syntax unified
 1189              	.LBE249:
 1190              	.LBE248:
 150:SourceFiles\asw/main.c **** {
 1191              		.loc 1 150 0 discriminator 3
 1192 0060 FFF7FEFF 		bl	ISR2_isr_ButtonRight
 1193              	.LVL104:
 1194              	.LBB250:
 1195              	.LBB251:
 211:Generated_Source\PSoC5/ErikaOS_cortex_mx_ee_cpu.inc **** #endif	/* !__KEIL__ */
 1196              		.loc 2 211 0 discriminator 3
 1197              		.syntax unified
 1198              	@ 211 "Generated_Source\PSoC5/ErikaOS_cortex_mx_ee_cpu.inc" 1
 1199 0064 72B6     		cpsid i
 1200              	@ 0 "" 2
 1201              	.LVL105:
 1202              		.thumb
ARM GAS  C:\Users\JASON\AppData\Local\Temp\cczgUn4m.s 			page 44


 1203              		.syntax unified
 1204              	.LBE251:
 1205              	.LBE250:
 1206              	.LBB252:
 1207              	.LBB253:
 358:Generated_Source\PSoC5/ErikaOS_cortex_mx_ee_cpu.inc **** #else
 1208              		.loc 2 358 0 discriminator 3
 1209              		.syntax unified
 1210              	@ 358 "Generated_Source\PSoC5/ErikaOS_cortex_mx_ee_cpu.inc" 1
 1211 0066 84F31188 		MSR BASEPRI, r4
 1212              	@ 0 "" 2
 1213              	.LVL106:
 1214              		.thumb
 1215              		.syntax unified
 1216              	.LBE253:
 1217              	.LBE252:
 1218              	.LBB254:
 1219              	.LBB255:
 1220              		.loc 3 102 0 discriminator 3
 1221 006a FFF7FEFF 		bl	EE_IRQ_end_post_stub
 1222              	.LVL107:
 1223              	.LBE255:
 1224              	.LBE254:
 1225              	.LBB256:
 1226              	.LBB257:
  84:Generated_Source\PSoC5/ErikaOS_common_ee_irqstub.inc **** __INLINE__ void  EE_increment_IRQ_nesting_level(void) { ++EE_IRQ_nesting_level; }
 1227              		.loc 3 84 0 discriminator 3
 1228 006e 094A     		ldr	r2, .L77+8
 1229 0070 1368     		ldr	r3, [r2]
 1230 0072 013B     		subs	r3, r3, #1
 1231 0074 1360     		str	r3, [r2]
 1232              	.LBE257:
 1233              	.LBE256:
 150:SourceFiles\asw/main.c **** {
 1234              		.loc 1 150 0 discriminator 3
 1235 0076 1BB9     		cbnz	r3, .L75
 150:SourceFiles\asw/main.c **** {
 1236              		.loc 1 150 0 is_stmt 0 discriminator 4
 1237 0078 FFF7FEFF 		bl	EE_cortex_mx_change_IRQ_stack_back
 1238              	.LVL108:
 1239              	.LBB258:
 1240              	.LBB259:
 1241              		.loc 4 68 0 is_stmt 1 discriminator 4
 1242 007c FFF7FEFF 		bl	EE_switch_context
 1243              	.LVL109:
 1244              	.L75:
 1245              	.LBE259:
 1246              	.LBE258:
 1247              	.LBB260:
 1248              	.LBB261:
 191:Generated_Source\PSoC5/ErikaOS_cortex_mx_ee_cpu.inc **** #endif	/* !__KEIL__ */
 1249              		.loc 2 191 0 discriminator 6
 1250              		.syntax unified
 1251              	@ 191 "Generated_Source\PSoC5/ErikaOS_cortex_mx_ee_cpu.inc" 1
 1252 0080 62B6     		cpsie i
 1253              	@ 0 "" 2
 1254              		.thumb
ARM GAS  C:\Users\JASON\AppData\Local\Temp\cczgUn4m.s 			page 45


 1255              		.syntax unified
 1256              	.LBE261:
 1257              	.LBE260:
 150:SourceFiles\asw/main.c **** {
 1258              		.loc 1 150 0 discriminator 6
 1259 0082 BDE81940 		pop	{r0, r3, r4, lr}
 1260              		.cfi_restore 14
 1261              		.cfi_restore 4
 1262              		.cfi_restore 3
 1263              		.cfi_restore 0
 1264              		.cfi_def_cfa_offset 0
 1265 0086 8546     		mov	sp, r0
 1266 0088 7047     		bx	lr
 1267              	.L78:
 1268 008a 00BF     		.align	2
 1269              	.L77:
 1270 008c 04ED00E0 		.word	-536810236
 1271 0090 20ED00E0 		.word	-536810208
 1272 0094 00000000 		.word	EE_IRQ_nesting_level
 1273              		.cfi_endproc
 1274              	.LFE139:
 1275              		.size	isr_ButtonRight, .-isr_ButtonRight
 1276              		.bss
 1277              		.align	2
 1278              		.set	.LANCHOR0,. + 0
 1279              		.type	alrm_1min.7679, %object
 1280              		.size	alrm_1min.7679, 4
 1281              	alrm_1min.7679:
 1282 0000 00000000 		.space	4
 1283              		.type	alrm_250ms.7680, %object
 1284              		.size	alrm_250ms.7680, 4
 1285              	alrm_250ms.7680:
 1286 0004 00000000 		.space	4
 1287              		.text
 1288              	.Letext0:
 1289              		.file 7 "c:\\program files (x86)\\cypress\\psoc creator\\4.4\\psoc creator\\import\\gnu\\arm\\5.4.
 1290              		.file 8 "c:\\program files (x86)\\cypress\\psoc creator\\4.4\\psoc creator\\import\\gnu\\arm\\5.4.
 1291              		.file 9 "c:\\program files (x86)\\cypress\\psoc creator\\4.4\\psoc creator\\import\\gnu\\arm\\5.4.
 1292              		.file 10 "Generated_Source\\PSoC5/ErikaOS_common_ee_types.inc"
 1293              		.file 11 "Generated_Source\\PSoC5/ErikaOS_ee_oo_common.inc"
 1294              		.file 12 ".\\SourceFiles\\bsw/global.h"
 1295              		.file 13 ".\\SourceFiles\\rte/rte_types.h"
 1296              		.file 14 ".\\SourceFiles\\rte/rte.h"
 1297              		.file 15 ".\\SourceFiles\\asw/clock_statemachine_cfg.h"
 1298              		.file 16 ".\\SourceFiles\\rte/sc_event_type.h"
 1299              		.file 17 "Generated_Source\\PSoC5/ErikaOS_ee_oo_intfunc.inc"
 1300              		.file 18 "Generated_Source\\PSoC5/ErikaOS_cortex_mx_ee_context.inc"
 1301              		.file 19 "Generated_Source\\PSoC5/ErikaOS_common_ee_primitives.inc"
 1302              		.file 20 "Generated_Source\\PSoC5/core_cm3.h"
 1303              		.file 21 "SourceFiles\\asw\\common.h"
 1304              		.file 22 ".\\SourceFiles\\rte/sp_common.h"
 1305              		.file 23 "Generated_Source\\PSoC5/ErikaOS_ee_oo_kernel.inc"
 1306              		.file 24 "Generated_Source\\PSoC5/ErikaOS_ee_oo_irq.inc"
 1307              		.file 25 "Generated_Source\\PSoC5/ErikaOS_cortex_mx_ee_irq.inc"
 1308              		.file 26 "Generated_Source\\PSoC5/UART_LOG.h"
 1309              		.file 27 ".\\SourceFiles\\bsw\\tft/tft.h"
 1310              		.file 28 "SourceFiles\\asw\\swc_clock_control.h"
ARM GAS  C:\Users\JASON\AppData\Local\Temp\cczgUn4m.s 			page 46


 1311              		.file 29 "Generated_Source\\PSoC5/button_1.h"
 1312              		.file 30 "Generated_Source\\PSoC5/button_2.h"