ARM GAS  C:\Users\JASON\AppData\Local\Temp\cct5bgFA.s 			page 1


   1              		.syntax unified
   2              		.cpu cortex-m3
   3              		.fpu softvfp
   4              		.eabi_attribute 20, 1
   5              		.eabi_attribute 21, 1
   6              		.eabi_attribute 23, 3
   7              		.eabi_attribute 24, 1
   8              		.eabi_attribute 25, 1
   9              		.eabi_attribute 26, 1
  10              		.eabi_attribute 30, 1
  11              		.eabi_attribute 34, 1
  12              		.eabi_attribute 18, 4
  13              		.thumb
  14              		.syntax unified
  15              		.file	"swc_clock_control.c"
  16              		.text
  17              	.Ltext0:
  18              		.cfi_sections	.debug_frame
  19              		.section	.text.CLOCK_setIncrement1Min,"ax",%progbits
  20              		.align	2
  21              		.thumb
  22              		.thumb_func
  23              		.type	CLOCK_setIncrement1Min, %function
  24              	CLOCK_setIncrement1Min:
  25              	.LFB144:
  26              		.file 1 "SourceFiles\\asw\\swc_clock_control.c"
   1:SourceFiles\asw/swc_clock_control.c **** 
   2:SourceFiles\asw/swc_clock_control.c **** 
   3:SourceFiles\asw/swc_clock_control.c **** /*
   4:SourceFiles\asw/swc_clock_control.c ****  * Filename: swc_clock_control.c
   5:SourceFiles\asw/swc_clock_control.c ****  *
   6:SourceFiles\asw/swc_clock_control.c ****  * Author: Autogenerated by H-DA RTE Generator, (c) Prof. Fromm
   7:SourceFiles\asw/swc_clock_control.c ****  */
   8:SourceFiles\asw/swc_clock_control.c **** 
   9:SourceFiles\asw/swc_clock_control.c **** #include "project.h"
  10:SourceFiles\asw/swc_clock_control.c **** #include "global.h"
  11:SourceFiles\asw/swc_clock_control.c **** #include "rte.h"
  12:SourceFiles\asw/swc_clock_control.c **** #include "rte_types.h"
  13:SourceFiles\asw/swc_clock_control.c **** #include "swc_clock_control.h"
  14:SourceFiles\asw/swc_clock_control.c **** 
  15:SourceFiles\asw/swc_clock_control.c **** 
  16:SourceFiles\asw/swc_clock_control.c **** 
  17:SourceFiles\asw/swc_clock_control.c **** /* USER CODE START SWC_CLOCK_CONTROL_INCLUDE */
  18:SourceFiles\asw/swc_clock_control.c **** #include "tft.h"
  19:SourceFiles\asw/swc_clock_control.c **** #include "common.h"
  20:SourceFiles\asw/swc_clock_control.c **** #include "intToASCII.h"
  21:SourceFiles\asw/swc_clock_control.c **** #include "clock_statemachine.h"
  22:SourceFiles\asw/swc_clock_control.c **** #include "sc_clock.h"
  23:SourceFiles\asw/swc_clock_control.c **** #include "sc_event.h"
  24:SourceFiles\asw/swc_clock_control.c **** /* USER CODE END SWC_CLOCK_CONTROL_INCLUDE */
  25:SourceFiles\asw/swc_clock_control.c **** 
  26:SourceFiles\asw/swc_clock_control.c **** 
  27:SourceFiles\asw/swc_clock_control.c **** #include "sp_common.h"
  28:SourceFiles\asw/swc_clock_control.c **** 
  29:SourceFiles\asw/swc_clock_control.c **** /* USER CODE START SWC_CLOCK_CONTROL_USERDEFINITIONS */
  30:SourceFiles\asw/swc_clock_control.c **** // Global variable. Flag variable that is set only when the machine is in ISDISPLAY Container state
  31:SourceFiles\asw/swc_clock_control.c **** boolean_t increment1Min_st = FALSE;
ARM GAS  C:\Users\JASON\AppData\Local\Temp\cct5bgFA.s 			page 2


  32:SourceFiles\asw/swc_clock_control.c **** // Global variable. Flag variable that is set only when the machine is in ISAUTOINCREMENT Widget st
  33:SourceFiles\asw/swc_clock_control.c **** boolean_t autoIncrement_st = FALSE;
  34:SourceFiles\asw/swc_clock_control.c **** 
  35:SourceFiles\asw/swc_clock_control.c **** // Macros to set and reset flags
  36:SourceFiles\asw/swc_clock_control.c **** #define SETFLAG(x)      (x = TRUE)
  37:SourceFiles\asw/swc_clock_control.c **** #define RESETFLAG(x)    (x = FALSE)
  38:SourceFiles\asw/swc_clock_control.c **** 
  39:SourceFiles\asw/swc_clock_control.c **** /**
  40:SourceFiles\asw/swc_clock_control.c ****  * @brief General dispatcher to save the clock states.
  41:SourceFiles\asw/swc_clock_control.c ****  * @brief STATE_Event_t ev              :   Event that occured in the container that must be
  42:SourceFiles\asw/swc_clock_control.c ****                                             parsed to the widget.
  43:SourceFiles\asw/swc_clock_control.c ****  * @brief CLOCK_active_widget_t widget  :   Current active widget, based on whether the 
  44:SourceFiles\asw/swc_clock_control.c ****                                             container is in editing mode for hours or minutes.
  45:SourceFiles\asw/swc_clock_control.c ****  */
  46:SourceFiles\asw/swc_clock_control.c **** static void CLOCK__dispatch_wrapper(    STATE_Event_t ev,
  47:SourceFiles\asw/swc_clock_control.c ****                                         CLOCK_active_widget_t widget);
  48:SourceFiles\asw/swc_clock_control.c **** 
  49:SourceFiles\asw/swc_clock_control.c **** /**
  50:SourceFiles\asw/swc_clock_control.c ****  * @brief Dispatcher when left key is pressed in ISDISPLAYING container state.
  51:SourceFiles\asw/swc_clock_control.c ****  */
  52:SourceFiles\asw/swc_clock_control.c **** static void CLOCK__dispatch_KL_Hours();
  53:SourceFiles\asw/swc_clock_control.c **** /**
  54:SourceFiles\asw/swc_clock_control.c ****  * @brief Dispatcher when right key is pressed in ISEDITINGHOURS container state.
  55:SourceFiles\asw/swc_clock_control.c ****  */
  56:SourceFiles\asw/swc_clock_control.c **** static void CLOCK__dispatch_KR_Hours();
  57:SourceFiles\asw/swc_clock_control.c **** /**
  58:SourceFiles\asw/swc_clock_control.c ****  * @brief Dispatcher when left key is pressed in ISEDITINGHOURS container state.
  59:SourceFiles\asw/swc_clock_control.c ****  */
  60:SourceFiles\asw/swc_clock_control.c **** static void CLOCK__dispatch_KL_HoursMin();
  61:SourceFiles\asw/swc_clock_control.c **** /**
  62:SourceFiles\asw/swc_clock_control.c ****  * @brief Dispatcher when left key is pressed in ISEDITINGMINUTES container state.
  63:SourceFiles\asw/swc_clock_control.c ****  */
  64:SourceFiles\asw/swc_clock_control.c **** static void CLOCK__dispatch_KL_Min();
  65:SourceFiles\asw/swc_clock_control.c **** /**
  66:SourceFiles\asw/swc_clock_control.c ****  * @brief Dispatcher when right key is pressed in ISEDITINGMINUTES container state.
  67:SourceFiles\asw/swc_clock_control.c ****  */
  68:SourceFiles\asw/swc_clock_control.c **** static void CLOCK__dispatch_KR_Min();
  69:SourceFiles\asw/swc_clock_control.c **** /**
  70:SourceFiles\asw/swc_clock_control.c ****  * @brief Dispatcher when long press of right key occurs in ISEDITINGHOURS container state.
  71:SourceFiles\asw/swc_clock_control.c ****  */
  72:SourceFiles\asw/swc_clock_control.c **** static void CLOCK__dispatch_KRLP_Hours();
  73:SourceFiles\asw/swc_clock_control.c **** /**
  74:SourceFiles\asw/swc_clock_control.c ****  * @brief Dispatcher when long press of right key occurs in ISEDITINGMINUTES container state.
  75:SourceFiles\asw/swc_clock_control.c ****  */
  76:SourceFiles\asw/swc_clock_control.c **** static void CLOCK__dispatch_KRLP_Min();
  77:SourceFiles\asw/swc_clock_control.c **** /**
  78:SourceFiles\asw/swc_clock_control.c ****  * @brief Dispatcher for auto increment event of 250ms in ISEDITINGHOURS container state.
  79:SourceFiles\asw/swc_clock_control.c ****  */
  80:SourceFiles\asw/swc_clock_control.c **** static void CLOCK__dispatch_250MS_Hours();
  81:SourceFiles\asw/swc_clock_control.c **** /**
  82:SourceFiles\asw/swc_clock_control.c ****  * @brief Dispatcher for auto increment event of 250ms in ISEDITINGMINUTES container state.
  83:SourceFiles\asw/swc_clock_control.c ****  */
  84:SourceFiles\asw/swc_clock_control.c **** static void CLOCK__dispatch_250MS_Min();
  85:SourceFiles\asw/swc_clock_control.c **** /**
  86:SourceFiles\asw/swc_clock_control.c ****  * @brief Dispatcher for 1 minute increment in ISDISPLAYING container state.
  87:SourceFiles\asw/swc_clock_control.c ****  */
  88:SourceFiles\asw/swc_clock_control.c **** static void CLOCK__increment1Minute();
ARM GAS  C:\Users\JASON\AppData\Local\Temp\cct5bgFA.s 			page 3


  89:SourceFiles\asw/swc_clock_control.c **** /**
  90:SourceFiles\asw/swc_clock_control.c ****  * @brief Entry function to ISDISPLAYING container state to set flag for increment at every 1 minut
  91:SourceFiles\asw/swc_clock_control.c ****  */
  92:SourceFiles\asw/swc_clock_control.c **** static void CLOCK_setIncrement1Min();
  93:SourceFiles\asw/swc_clock_control.c **** /**
  94:SourceFiles\asw/swc_clock_control.c ****  * @brief Exit function from ISDISPLAYING container state to reset flag for increment at every 1 mi
  95:SourceFiles\asw/swc_clock_control.c ****  */
  96:SourceFiles\asw/swc_clock_control.c **** static void CLOCK_resetIncrement1Min();
  97:SourceFiles\asw/swc_clock_control.c **** /**
  98:SourceFiles\asw/swc_clock_control.c ****  * @brief Action (transition) function from ISDISPLAYING to ISEDITING widget state 
  99:SourceFiles\asw/swc_clock_control.c ****  * that sets the font of the currently active widget.
 100:SourceFiles\asw/swc_clock_control.c ****  */
 101:SourceFiles\asw/swc_clock_control.c **** static void CLOCK__setEditFonts();
 102:SourceFiles\asw/swc_clock_control.c **** /**
 103:SourceFiles\asw/swc_clock_control.c ****  * @brief Action (transition) function from ISEDITING and ISAUTOINCREMENT to ISDISPLAYING
 104:SourceFiles\asw/swc_clock_control.c ****  * widget state that resets the font to display mode.
 105:SourceFiles\asw/swc_clock_control.c ****  */
 106:SourceFiles\asw/swc_clock_control.c **** static void CLOCK__setDisplayFonts();
 107:SourceFiles\asw/swc_clock_control.c **** /**
 108:SourceFiles\asw/swc_clock_control.c ****  * @brief Action function in ISEDITING and ISAUTOINCREMENT widget states 
 109:SourceFiles\asw/swc_clock_control.c ****  * that updates the widget value, depending on the current active widget.
 110:SourceFiles\asw/swc_clock_control.c ****  */
 111:SourceFiles\asw/swc_clock_control.c **** static void CLOCK__incrementWidget();
 112:SourceFiles\asw/swc_clock_control.c **** /**
 113:SourceFiles\asw/swc_clock_control.c ****  * @brief Entry function to ISAUTOINCREMENT widget state to set flag for increment at every 250 ms.
 114:SourceFiles\asw/swc_clock_control.c ****  */
 115:SourceFiles\asw/swc_clock_control.c **** static void CLOCK_setAutoIncrement();
 116:SourceFiles\asw/swc_clock_control.c **** /**
 117:SourceFiles\asw/swc_clock_control.c ****  * @brief Exit function from ISAUTOINCREMENT widget state to reset flag for increment at every 250 
 118:SourceFiles\asw/swc_clock_control.c ****  */
 119:SourceFiles\asw/swc_clock_control.c **** static void CLOCK_resetAutoIncrement();
 120:SourceFiles\asw/swc_clock_control.c **** /**
 121:SourceFiles\asw/swc_clock_control.c ****  * @brief Error handler : sets an error event.
 122:SourceFiles\asw/swc_clock_control.c ****  */
 123:SourceFiles\asw/swc_clock_control.c **** static void CLOCK__errorHandler();
 124:SourceFiles\asw/swc_clock_control.c **** /**
 125:SourceFiles\asw/swc_clock_control.c ****  * @brief Error handler routine : handling of error is done here.
 126:SourceFiles\asw/swc_clock_control.c ****  */
 127:SourceFiles\asw/swc_clock_control.c **** static void CLOCK__errorHandlerRoutine();
 128:SourceFiles\asw/swc_clock_control.c **** 
 129:SourceFiles\asw/swc_clock_control.c **** //================================CONTAINER==================================
 130:SourceFiles\asw/swc_clock_control.c **** /** ===CLOCK_C_ISDISPLAYING=== */
 131:SourceFiles\asw/swc_clock_control.c **** static const STATE_stateInnerTransitionTable_t STATE_CLOCK_C_ISDISPLAYING_Transitions =
 132:SourceFiles\asw/swc_clock_control.c **** {
 133:SourceFiles\asw/swc_clock_control.c **** /*  Event                       ToState                                  Guard       Action      */
 134:SourceFiles\asw/swc_clock_control.c ****     {EV_KEYLEFT,                STATE_CLOCK_C_ISEDITINGHOURS,            0,          CLOCK__dispatc
 135:SourceFiles\asw/swc_clock_control.c ****     {EV_1MIN,                   STATE_CLOCK_C_ISDISPLAYING,              0,          CLOCK__increme
 136:SourceFiles\asw/swc_clock_control.c **** };
 137:SourceFiles\asw/swc_clock_control.c **** 
 138:SourceFiles\asw/swc_clock_control.c **** /** ===CLOCK_C_ISEDITINGHOURS=== */
 139:SourceFiles\asw/swc_clock_control.c **** static const STATE_stateInnerTransitionTable_t STATE_CLOCK_C_ISEDITINGHOURS_Transitions =
 140:SourceFiles\asw/swc_clock_control.c **** {
 141:SourceFiles\asw/swc_clock_control.c **** /*  Event                       ToState                                 Guard       Action      */
 142:SourceFiles\asw/swc_clock_control.c ****     {EV_KEYLEFT,                STATE_CLOCK_C_ISEDITINGMINUTES,         0,          CLOCK__dispatch
 143:SourceFiles\asw/swc_clock_control.c ****     {EV_KEYRIGHT,               STATE_CLOCK_C_ISEDITINGHOURS,           0,          CLOCK__dispatch
 144:SourceFiles\asw/swc_clock_control.c ****     {EV_KEYRIGHTLONGPRESS,      STATE_CLOCK_C_ISEDITINGHOURS,           0,          CLOCK__dispatch
 145:SourceFiles\asw/swc_clock_control.c ****     {EV_250MS,                  STATE_CLOCK_C_ISEDITINGHOURS,           0,          CLOCK__dispatch
ARM GAS  C:\Users\JASON\AppData\Local\Temp\cct5bgFA.s 			page 4


 146:SourceFiles\asw/swc_clock_control.c **** };
 147:SourceFiles\asw/swc_clock_control.c **** 
 148:SourceFiles\asw/swc_clock_control.c **** /** ===CLOCK_C_ISEDITINGMINUTES=== */
 149:SourceFiles\asw/swc_clock_control.c **** static const STATE_stateInnerTransitionTable_t STATE_CLOCK_C_ISEDITINGMINUTES_Transitions =
 150:SourceFiles\asw/swc_clock_control.c **** {
 151:SourceFiles\asw/swc_clock_control.c **** /*  Event                       ToState                                 Guard       Action      */
 152:SourceFiles\asw/swc_clock_control.c ****     {EV_KEYLEFT,                STATE_CLOCK_C_ISDISPLAYING,             0,          CLOCK__dispatch
 153:SourceFiles\asw/swc_clock_control.c ****     {EV_KEYRIGHT,               STATE_CLOCK_C_ISEDITINGMINUTES,         0,          CLOCK__dispatch
 154:SourceFiles\asw/swc_clock_control.c ****     {EV_KEYRIGHTLONGPRESS,      STATE_CLOCK_C_ISEDITINGMINUTES,         0,          CLOCK__dispatch
 155:SourceFiles\asw/swc_clock_control.c ****     {EV_250MS,                  STATE_CLOCK_C_ISEDITINGMINUTES,         0,          CLOCK__dispatch
 156:SourceFiles\asw/swc_clock_control.c **** };
 157:SourceFiles\asw/swc_clock_control.c **** 
 158:SourceFiles\asw/swc_clock_control.c **** /** ===CLOCK_CONTAINER=== */
 159:SourceFiles\asw/swc_clock_control.c **** static const STATE_stateOuterTransitionTable_t CLOCK_Container_Transitions =
 160:SourceFiles\asw/swc_clock_control.c **** {
 161:SourceFiles\asw/swc_clock_control.c **** /*  fromState							Pointer to transition table                      Size of transition table (elem
 162:SourceFiles\asw/swc_clock_control.c ****     {STATE_CLOCK_C_ISDISPLAYING,        &STATE_CLOCK_C_ISDISPLAYING_Transitions,         sizeof(STA
 163:SourceFiles\asw/swc_clock_control.c ****     {STATE_CLOCK_C_ISEDITINGMINUTES,    &STATE_CLOCK_C_ISEDITINGMINUTES_Transitions,     sizeof(STA
 164:SourceFiles\asw/swc_clock_control.c ****     {STATE_CLOCK_C_ISEDITINGHOURS,      &STATE_CLOCK_C_ISEDITINGHOURS_Transitions,       sizeof(STA
 165:SourceFiles\asw/swc_clock_control.c **** };
 166:SourceFiles\asw/swc_clock_control.c **** 
 167:SourceFiles\asw/swc_clock_control.c **** /** ===CLOCK_CONTAINE SIZE=== */
 168:SourceFiles\asw/swc_clock_control.c **** static const uint16_t CLOCK_Container_Transitions_Size  =   sizeof(CLOCK_Container_Transitions)/siz
 169:SourceFiles\asw/swc_clock_control.c **** 
 170:SourceFiles\asw/swc_clock_control.c **** //================================WIDGET=====================================
 171:SourceFiles\asw/swc_clock_control.c **** /** ===CLOCK_W_ISDISPLAYING=== */
 172:SourceFiles\asw/swc_clock_control.c **** static const STATE_stateInnerTransitionTable_t STATE_CLOCK_W_ISDISPLAYING_Transitions =
 173:SourceFiles\asw/swc_clock_control.c **** {
 174:SourceFiles\asw/swc_clock_control.c **** /*  Event                       ToState                                 Guard       Action      */
 175:SourceFiles\asw/swc_clock_control.c ****     {EV_KEYLEFT,                STATE_CLOCK_W_ISEDITING,                0,          CLOCK__setEditF
 176:SourceFiles\asw/swc_clock_control.c **** };
 177:SourceFiles\asw/swc_clock_control.c **** 
 178:SourceFiles\asw/swc_clock_control.c **** /** ===CLOCK_W_ISEDITING=== */
 179:SourceFiles\asw/swc_clock_control.c **** static const STATE_stateInnerTransitionTable_t STATE_CLOCK_W_ISEDITING_Transitions =
 180:SourceFiles\asw/swc_clock_control.c **** {
 181:SourceFiles\asw/swc_clock_control.c **** /*  Event                       ToState                                 Guard       Action      */
 182:SourceFiles\asw/swc_clock_control.c ****     {EV_KEYRIGHT,               STATE_CLOCK_W_ISEDITING,                0,          CLOCK__incremen
 183:SourceFiles\asw/swc_clock_control.c ****     {EV_KEYRIGHTLONGPRESS,      STATE_CLOCK_W_ISAUTOINCREMENT,          0,          0              
 184:SourceFiles\asw/swc_clock_control.c ****     {EV_KEYLEFT,                STATE_CLOCK_W_ISDISPLAYING,             0,          CLOCK__setDispl
 185:SourceFiles\asw/swc_clock_control.c **** };
 186:SourceFiles\asw/swc_clock_control.c **** 
 187:SourceFiles\asw/swc_clock_control.c **** /** ===CLOCK_W_ISAUTOINCREMENT=== */
 188:SourceFiles\asw/swc_clock_control.c **** static const STATE_stateInnerTransitionTable_t STATE_CLOCK_W_ISAUTOINCREMENT_Transitions =
 189:SourceFiles\asw/swc_clock_control.c **** {
 190:SourceFiles\asw/swc_clock_control.c **** /*  Event                       ToState                                 Guard       Action      */
 191:SourceFiles\asw/swc_clock_control.c ****     {EV_KEYRIGHT,               STATE_CLOCK_W_ISEDITING,                0,          0},
 192:SourceFiles\asw/swc_clock_control.c ****     {EV_250MS,                  STATE_CLOCK_W_ISAUTOINCREMENT,          0,          CLOCK__incremen
 193:SourceFiles\asw/swc_clock_control.c **** 	#if TESTERROR == 0
 194:SourceFiles\asw/swc_clock_control.c ****     {EV_KEYLEFT,                STATE_CLOCK_W_ISDISPLAYING,             0,          CLOCK__setDispl
 195:SourceFiles\asw/swc_clock_control.c ****     #endif
 196:SourceFiles\asw/swc_clock_control.c ****     #if TESTERROR == 1
 197:SourceFiles\asw/swc_clock_control.c ****     {EV_KEYLEFT,                STATE_CLOCK_W_ISDISPLAYING,             0,          CLOCK__errorHan
 198:SourceFiles\asw/swc_clock_control.c ****     #endif
 199:SourceFiles\asw/swc_clock_control.c **** };
 200:SourceFiles\asw/swc_clock_control.c **** 
 201:SourceFiles\asw/swc_clock_control.c **** /** ===CLOCK_WIDGET=== */
 202:SourceFiles\asw/swc_clock_control.c **** static const STATE_stateOuterTransitionTable_t CLOCK_Widget_Transitions =
ARM GAS  C:\Users\JASON\AppData\Local\Temp\cct5bgFA.s 			page 5


 203:SourceFiles\asw/swc_clock_control.c **** {
 204:SourceFiles\asw/swc_clock_control.c **** /*  fromState							Pointer to transition table                      Size of transition table (elem
 205:SourceFiles\asw/swc_clock_control.c ****     {STATE_CLOCK_W_ISDISPLAYING,        &STATE_CLOCK_W_ISDISPLAYING_Transitions,         sizeof(STA
 206:SourceFiles\asw/swc_clock_control.c ****     {STATE_CLOCK_W_ISEDITING,           &STATE_CLOCK_W_ISEDITING_Transitions,            sizeof(STA
 207:SourceFiles\asw/swc_clock_control.c ****     {STATE_CLOCK_W_ISAUTOINCREMENT,     &STATE_CLOCK_W_ISAUTOINCREMENT_Transitions,      sizeof(STA
 208:SourceFiles\asw/swc_clock_control.c **** };
 209:SourceFiles\asw/swc_clock_control.c **** 
 210:SourceFiles\asw/swc_clock_control.c **** /** ===CLOCK_CONTAINE SIZE=== */
 211:SourceFiles\asw/swc_clock_control.c **** static const uint16_t CLOCK_Widget_Transitions_Size =   sizeof(CLOCK_Widget_Transitions)/sizeof(STA
 212:SourceFiles\asw/swc_clock_control.c **** 
 213:SourceFiles\asw/swc_clock_control.c **** /** ===ACTION TABLE=== */
 214:SourceFiles\asw/swc_clock_control.c **** 
 215:SourceFiles\asw/swc_clock_control.c **** static const STATE_stateActionTable_t CLOCK_StateActions = {
 216:SourceFiles\asw/swc_clock_control.c **** /*  State                               Entry                       Exit    */
 217:SourceFiles\asw/swc_clock_control.c ****   { STATE_CLOCK_C_ISDISPLAYING,         CLOCK_setIncrement1Min,     CLOCK_resetIncrement1Min},  
 218:SourceFiles\asw/swc_clock_control.c ****   { STATE_CLOCK_W_ISAUTOINCREMENT,      CLOCK_setAutoIncrement,     CLOCK_resetAutoIncrement}
 219:SourceFiles\asw/swc_clock_control.c **** };
 220:SourceFiles\asw/swc_clock_control.c **** static const uint16_t CLOCK_StateActions_size = sizeof(CLOCK_StateActions)/sizeof(STATE_stateAction
 221:SourceFiles\asw/swc_clock_control.c **** 
 222:SourceFiles\asw/swc_clock_control.c **** /* USER CODE END SWC_CLOCK_CONTROL_USERDEFINITIONS */
 223:SourceFiles\asw/swc_clock_control.c **** 
 224:SourceFiles\asw/swc_clock_control.c **** 
 225:SourceFiles\asw/swc_clock_control.c **** 
 226:SourceFiles\asw/swc_clock_control.c **** /*
 227:SourceFiles\asw/swc_clock_control.c **** * component: swc_CLOCK_control
 228:SourceFiles\asw/swc_clock_control.c **** * cycletime: 0
 229:SourceFiles\asw/swc_clock_control.c **** * description: Runnable for clock control.
 230:SourceFiles\asw/swc_clock_control.c **** * events: ev_event_onData
 231:SourceFiles\asw/swc_clock_control.c **** * name: CLOCK_CONTROL__run
 232:SourceFiles\asw/swc_clock_control.c **** * shortname: 
 233:SourceFiles\asw/swc_clock_control.c **** * signalIN: so_EVENT
 234:SourceFiles\asw/swc_clock_control.c **** * signalOUT: so_CLOCK
 235:SourceFiles\asw/swc_clock_control.c **** * task: tsk_control
 236:SourceFiles\asw/swc_clock_control.c **** */
 237:SourceFiles\asw/swc_clock_control.c **** void CLOCK_CONTROL__run(RTE_event ev){
 238:SourceFiles\asw/swc_clock_control.c **** 	
 239:SourceFiles\asw/swc_clock_control.c **** 	/* USER CODE START CLOCK_CONTROL__run */
 240:SourceFiles\asw/swc_clock_control.c ****     // Read the clock object
 241:SourceFiles\asw/swc_clock_control.c ****     SC_CLOCK_data_t clock = RTE_SC_CLOCK_get(&SO_CLOCK_signal);
 242:SourceFiles\asw/swc_clock_control.c ****     
 243:SourceFiles\asw/swc_clock_control.c ****     SC_EVENT_data_t event = RTE_SC_EVENT_get(&SO_EVENT_signal);
 244:SourceFiles\asw/swc_clock_control.c ****     
 245:SourceFiles\asw/swc_clock_control.c ****     if(EV_ERROR == event.m_ev)
 246:SourceFiles\asw/swc_clock_control.c ****     {
 247:SourceFiles\asw/swc_clock_control.c ****         // call the error handler routine when an error event is received.
 248:SourceFiles\asw/swc_clock_control.c ****         CLOCK__errorHandlerRoutine();
 249:SourceFiles\asw/swc_clock_control.c ****     }
 250:SourceFiles\asw/swc_clock_control.c ****     else
 251:SourceFiles\asw/swc_clock_control.c ****     {
 252:SourceFiles\asw/swc_clock_control.c ****         // Get fromState
 253:SourceFiles\asw/swc_clock_control.c ****         STATE_State_t state = clock.m_containerState;
 254:SourceFiles\asw/swc_clock_control.c ****         //Call the state machine and process the event
 255:SourceFiles\asw/swc_clock_control.c ****         RC_t result = STATE_processEvent(   CLOCK_Container_Transitions, CLOCK_Container_Transition
 256:SourceFiles\asw/swc_clock_control.c ****                                         CLOCK_StateActions, CLOCK_StateActions_size,
 257:SourceFiles\asw/swc_clock_control.c ****                                         event.m_ev, &state);
 258:SourceFiles\asw/swc_clock_control.c ****         // update the fromState after the event has been processed and set the clock.
 259:SourceFiles\asw/swc_clock_control.c ****         clock = RTE_SC_CLOCK_get(&SO_CLOCK_signal);
ARM GAS  C:\Users\JASON\AppData\Local\Temp\cct5bgFA.s 			page 6


 260:SourceFiles\asw/swc_clock_control.c ****         clock.m_containerState = state; 
 261:SourceFiles\asw/swc_clock_control.c ****         RTE_SC_CLOCK_set(&SO_CLOCK_signal, clock);
 262:SourceFiles\asw/swc_clock_control.c ****     }
 263:SourceFiles\asw/swc_clock_control.c ****     
 264:SourceFiles\asw/swc_clock_control.c ****     // Debugging through verbosity via UART
 265:SourceFiles\asw/swc_clock_control.c ****     
 266:SourceFiles\asw/swc_clock_control.c ****     static char asciiConvert[30];
 267:SourceFiles\asw/swc_clock_control.c ****     
 268:SourceFiles\asw/swc_clock_control.c ****     UART_LOG_PutString("\n");
 269:SourceFiles\asw/swc_clock_control.c ****     intToASCII((uint32_t)clock.m_hours.m_value, (uint8_t*)&asciiConvert, 2);
 270:SourceFiles\asw/swc_clock_control.c ****     UART_LOG_PutString(asciiConvert);
 271:SourceFiles\asw/swc_clock_control.c ****     UART_LOG_PutChar(':');
 272:SourceFiles\asw/swc_clock_control.c ****     intToASCII((uint32_t)clock.m_minutes.m_value, (uint8_t*)&asciiConvert, 2);
 273:SourceFiles\asw/swc_clock_control.c ****     UART_LOG_PutString(asciiConvert);
 274:SourceFiles\asw/swc_clock_control.c ****     UART_LOG_PutString("\n\n\n");
 275:SourceFiles\asw/swc_clock_control.c ****     
 276:SourceFiles\asw/swc_clock_control.c ****     /* USER CODE END CLOCK_CONTROL__run */
 277:SourceFiles\asw/swc_clock_control.c **** }
 278:SourceFiles\asw/swc_clock_control.c **** 
 279:SourceFiles\asw/swc_clock_control.c **** /*
 280:SourceFiles\asw/swc_clock_control.c **** * component: swc_CLOCK_control
 281:SourceFiles\asw/swc_clock_control.c **** * cycletime: 0
 282:SourceFiles\asw/swc_clock_control.c **** * description: Runnable for control swc initialization
 283:SourceFiles\asw/swc_clock_control.c **** * events: 
 284:SourceFiles\asw/swc_clock_control.c **** * name: CLOCK_CONTROL_init_run
 285:SourceFiles\asw/swc_clock_control.c **** * shortname: init
 286:SourceFiles\asw/swc_clock_control.c **** * signalIN: 
 287:SourceFiles\asw/swc_clock_control.c **** * signalOUT: 
 288:SourceFiles\asw/swc_clock_control.c **** * task: tsk_control
 289:SourceFiles\asw/swc_clock_control.c **** */
 290:SourceFiles\asw/swc_clock_control.c **** void CLOCK_CONTROL_init_run(RTE_event ev){
 291:SourceFiles\asw/swc_clock_control.c **** 	
 292:SourceFiles\asw/swc_clock_control.c **** 	/* USER CODE START CLOCK_CONTROL_init_run */
 293:SourceFiles\asw/swc_clock_control.c ****     SC_CLOCK_data_t clock;
 294:SourceFiles\asw/swc_clock_control.c ****     
 295:SourceFiles\asw/swc_clock_control.c ****     clock.m_transitions     =   (STATE_stateOuterTransitionTable_t*)    CLOCK_Container_Transitions
 296:SourceFiles\asw/swc_clock_control.c ****     clock.m_stateActions    =   (STATE_ActionPtr_t*)                    0;
 297:SourceFiles\asw/swc_clock_control.c ****     clock.m_activeWidget    =                                           CLOCK_NONE;
 298:SourceFiles\asw/swc_clock_control.c ****     
 299:SourceFiles\asw/swc_clock_control.c ****     CLOCK_widget_t widget;
 300:SourceFiles\asw/swc_clock_control.c ****     
 301:SourceFiles\asw/swc_clock_control.c ****     widget.m_state          =                                           STATE_CLOCK_W_ISDISPLAYING;
 302:SourceFiles\asw/swc_clock_control.c ****     widget.m_transitions    =   (STATE_stateInnerTransitionTable_t*)    CLOCK_Widget_Transitions;
 303:SourceFiles\asw/swc_clock_control.c ****     widget.m_stateActions   =   (STATE_stateAction_t*)                  CLOCK_StateActions;
 304:SourceFiles\asw/swc_clock_control.c ****     widget.m_value          =                                           0;
 305:SourceFiles\asw/swc_clock_control.c ****     
 306:SourceFiles\asw/swc_clock_control.c ****     CLOCK_font_t font;
 307:SourceFiles\asw/swc_clock_control.c ****     
 308:SourceFiles\asw/swc_clock_control.c ****     font.foreground         =   WHITE;
 309:SourceFiles\asw/swc_clock_control.c ****     font.background         =   BLACK;
 310:SourceFiles\asw/swc_clock_control.c ****     
 311:SourceFiles\asw/swc_clock_control.c ****     widget.m_font           =   font;
 312:SourceFiles\asw/swc_clock_control.c ****     
 313:SourceFiles\asw/swc_clock_control.c ****     clock.m_hours           =   widget;
 314:SourceFiles\asw/swc_clock_control.c ****     
 315:SourceFiles\asw/swc_clock_control.c ****     widget.m_state          =                                           STATE_CLOCK_W_ISDISPLAYING;
 316:SourceFiles\asw/swc_clock_control.c ****     widget.m_transitions    =   (STATE_stateInnerTransitionTable_t*)    CLOCK_Widget_Transitions;
ARM GAS  C:\Users\JASON\AppData\Local\Temp\cct5bgFA.s 			page 7


 317:SourceFiles\asw/swc_clock_control.c ****     widget.m_stateActions   =   (STATE_stateAction_t*)                  CLOCK_StateActions;
 318:SourceFiles\asw/swc_clock_control.c ****     widget.m_value          =                                           0;
 319:SourceFiles\asw/swc_clock_control.c ****     
 320:SourceFiles\asw/swc_clock_control.c ****     font.foreground         =   WHITE;
 321:SourceFiles\asw/swc_clock_control.c ****     font.background         =   BLACK;
 322:SourceFiles\asw/swc_clock_control.c ****     
 323:SourceFiles\asw/swc_clock_control.c ****     widget.m_font           =   font;
 324:SourceFiles\asw/swc_clock_control.c ****     
 325:SourceFiles\asw/swc_clock_control.c ****     clock.m_minutes         =   widget;
 326:SourceFiles\asw/swc_clock_control.c ****     
 327:SourceFiles\asw/swc_clock_control.c ****     STATE_State_t state;
 328:SourceFiles\asw/swc_clock_control.c ****     
 329:SourceFiles\asw/swc_clock_control.c ****     STATE_initState(CLOCK_StateActions, CLOCK_StateActions_size, &state);
 330:SourceFiles\asw/swc_clock_control.c ****     
 331:SourceFiles\asw/swc_clock_control.c ****     clock.m_containerState  =   state;
 332:SourceFiles\asw/swc_clock_control.c ****     
 333:SourceFiles\asw/swc_clock_control.c ****     RTE_SC_CLOCK_set(&SO_CLOCK_signal, clock);
 334:SourceFiles\asw/swc_clock_control.c ****     
 335:SourceFiles\asw/swc_clock_control.c ****     // Initialize tft brightness, fore- and backgorund colors and text size.
 336:SourceFiles\asw/swc_clock_control.c ****     TFT_setBacklight(100);
 337:SourceFiles\asw/swc_clock_control.c ****     TFT_setColors(WHITE, BLACK);
 338:SourceFiles\asw/swc_clock_control.c ****     TFT_setTextSize(3);
 339:SourceFiles\asw/swc_clock_control.c ****     
 340:SourceFiles\asw/swc_clock_control.c ****     /* USER CODE END CLOCK_CONTROL_init_run */
 341:SourceFiles\asw/swc_clock_control.c **** }
 342:SourceFiles\asw/swc_clock_control.c **** 
 343:SourceFiles\asw/swc_clock_control.c **** /* USER CODE START SWC_CLOCK_CONTROL_FUNCTIONS */
 344:SourceFiles\asw/swc_clock_control.c **** /**
 345:SourceFiles\asw/swc_clock_control.c ****  * @brief General dispatcher to save the clock states.
 346:SourceFiles\asw/swc_clock_control.c ****  * @brief STATE_Event_t ev              :   Event that occured in the container that must be
 347:SourceFiles\asw/swc_clock_control.c ****                                             parsed to the widget.
 348:SourceFiles\asw/swc_clock_control.c ****  * @brief CLOCK_active_widget_t widget  :   Current active widget, based on whether the 
 349:SourceFiles\asw/swc_clock_control.c ****                                             container is in editing mode for hours or minutes.
 350:SourceFiles\asw/swc_clock_control.c ****  */
 351:SourceFiles\asw/swc_clock_control.c **** static void CLOCK__dispatch_wrapper(STATE_Event_t ev, CLOCK_active_widget_t widget)
 352:SourceFiles\asw/swc_clock_control.c **** {
 353:SourceFiles\asw/swc_clock_control.c ****     //Read the state object (container)
 354:SourceFiles\asw/swc_clock_control.c ****     SC_CLOCK_data_t clock = RTE_SC_CLOCK_get(&SO_CLOCK_signal);
 355:SourceFiles\asw/swc_clock_control.c ****     
 356:SourceFiles\asw/swc_clock_control.c ****     //Set the active widget
 357:SourceFiles\asw/swc_clock_control.c ****     clock.m_activeWidget = widget;
 358:SourceFiles\asw/swc_clock_control.c ****     
 359:SourceFiles\asw/swc_clock_control.c ****     //Write the changed widget back to the clock object
 360:SourceFiles\asw/swc_clock_control.c ****     RTE_SC_CLOCK_set(&SO_CLOCK_signal, clock);
 361:SourceFiles\asw/swc_clock_control.c ****     
 362:SourceFiles\asw/swc_clock_control.c ****     //And fire it to the container state machine.
 363:SourceFiles\asw/swc_clock_control.c ****     //The widget state machine will be called by the container actions.
 364:SourceFiles\asw/swc_clock_control.c ****     //We need a local copy of the widget state as the widget object is also changed by the widget a
 365:SourceFiles\asw/swc_clock_control.c ****     if(CLOCK_HOURWIDGET == widget)
 366:SourceFiles\asw/swc_clock_control.c ****     {
 367:SourceFiles\asw/swc_clock_control.c ****         CLOCK_State_t localState = clock.m_hours.m_state;
 368:SourceFiles\asw/swc_clock_control.c **** 
 369:SourceFiles\asw/swc_clock_control.c ****         //Call the state machine.
 370:SourceFiles\asw/swc_clock_control.c ****         RC_t result = STATE_processEvent(   CLOCK_Widget_Transitions, CLOCK_Widget_Transitions_Size
 371:SourceFiles\asw/swc_clock_control.c ****                                             CLOCK_StateActions, CLOCK_StateActions_size,
 372:SourceFiles\asw/swc_clock_control.c ****                                             ev, &localState);
 373:SourceFiles\asw/swc_clock_control.c ****         
ARM GAS  C:\Users\JASON\AppData\Local\Temp\cct5bgFA.s 			page 8


 374:SourceFiles\asw/swc_clock_control.c ****         //Re-read the state object in order to get the changes by the child.
 375:SourceFiles\asw/swc_clock_control.c ****         clock = RTE_SC_CLOCK_get(&SO_CLOCK_signal);
 376:SourceFiles\asw/swc_clock_control.c ****         
 377:SourceFiles\asw/swc_clock_control.c ****         clock.m_hours.m_state = localState;
 378:SourceFiles\asw/swc_clock_control.c **** 
 379:SourceFiles\asw/swc_clock_control.c ****         //Write the changed state back to the clock object.
 380:SourceFiles\asw/swc_clock_control.c ****         RTE_SC_CLOCK_set(&SO_CLOCK_signal, clock);
 381:SourceFiles\asw/swc_clock_control.c ****     }
 382:SourceFiles\asw/swc_clock_control.c ****     else if(CLOCK_MINWIDGET == widget)
 383:SourceFiles\asw/swc_clock_control.c ****     {
 384:SourceFiles\asw/swc_clock_control.c ****         CLOCK_State_t localState = clock.m_minutes.m_state;
 385:SourceFiles\asw/swc_clock_control.c ****         
 386:SourceFiles\asw/swc_clock_control.c ****         //Call the state machine.
 387:SourceFiles\asw/swc_clock_control.c ****         RC_t result = STATE_processEvent(   CLOCK_Widget_Transitions, CLOCK_Widget_Transitions_Size
 388:SourceFiles\asw/swc_clock_control.c ****                                             CLOCK_StateActions, CLOCK_StateActions_size,
 389:SourceFiles\asw/swc_clock_control.c ****                                             ev, &localState);
 390:SourceFiles\asw/swc_clock_control.c ****         
 391:SourceFiles\asw/swc_clock_control.c ****         //Re-read the state object in order to get the changes by the child.
 392:SourceFiles\asw/swc_clock_control.c ****         clock = RTE_SC_CLOCK_get(&SO_CLOCK_signal);
 393:SourceFiles\asw/swc_clock_control.c ****         
 394:SourceFiles\asw/swc_clock_control.c ****         clock.m_minutes.m_state = localState;
 395:SourceFiles\asw/swc_clock_control.c ****         
 396:SourceFiles\asw/swc_clock_control.c ****         //Write the changed state back to the clock object.
 397:SourceFiles\asw/swc_clock_control.c ****         RTE_SC_CLOCK_set(&SO_CLOCK_signal, clock);
 398:SourceFiles\asw/swc_clock_control.c ****     }
 399:SourceFiles\asw/swc_clock_control.c **** }
 400:SourceFiles\asw/swc_clock_control.c **** /**
 401:SourceFiles\asw/swc_clock_control.c ****  * @brief Dispatcher when left key is pressed in ISDISPLAYING container state.
 402:SourceFiles\asw/swc_clock_control.c ****  */
 403:SourceFiles\asw/swc_clock_control.c **** static void CLOCK__dispatch_KL_Hours()
 404:SourceFiles\asw/swc_clock_control.c **** {
 405:SourceFiles\asw/swc_clock_control.c ****     UART_LOG_PutString("CLOCK__dispatch_KL_Hours\n");
 406:SourceFiles\asw/swc_clock_control.c ****     CLOCK__dispatch_wrapper(EV_KEYLEFT, CLOCK_HOURWIDGET);
 407:SourceFiles\asw/swc_clock_control.c **** }
 408:SourceFiles\asw/swc_clock_control.c **** /**
 409:SourceFiles\asw/swc_clock_control.c ****  * @brief Dispatcher when right key is pressed in ISEDITINGHOURS container state.
 410:SourceFiles\asw/swc_clock_control.c ****  */
 411:SourceFiles\asw/swc_clock_control.c **** static void CLOCK__dispatch_KR_Hours()
 412:SourceFiles\asw/swc_clock_control.c **** {
 413:SourceFiles\asw/swc_clock_control.c ****     UART_LOG_PutString("CLOCK__dispatch_KR_Hours\n");
 414:SourceFiles\asw/swc_clock_control.c ****     CLOCK__dispatch_wrapper(EV_KEYRIGHT, CLOCK_HOURWIDGET);
 415:SourceFiles\asw/swc_clock_control.c **** }
 416:SourceFiles\asw/swc_clock_control.c **** /**
 417:SourceFiles\asw/swc_clock_control.c ****  * @brief Dispatcher when left key is pressed in ISEDITINGHOURS container state.
 418:SourceFiles\asw/swc_clock_control.c ****  */
 419:SourceFiles\asw/swc_clock_control.c **** static void CLOCK__dispatch_KL_HoursMin()
 420:SourceFiles\asw/swc_clock_control.c **** {
 421:SourceFiles\asw/swc_clock_control.c ****     UART_LOG_PutString("CLOCK__dispatch_KL_HoursMin\n");
 422:SourceFiles\asw/swc_clock_control.c ****     CLOCK__dispatch_wrapper(EV_KEYLEFT, CLOCK_HOURWIDGET);
 423:SourceFiles\asw/swc_clock_control.c ****     CLOCK__dispatch_wrapper(EV_KEYLEFT, CLOCK_MINWIDGET);
 424:SourceFiles\asw/swc_clock_control.c **** }
 425:SourceFiles\asw/swc_clock_control.c **** /**
 426:SourceFiles\asw/swc_clock_control.c ****  * @brief Dispatcher when left key is pressed in ISEDITINGMINUTES container state.
 427:SourceFiles\asw/swc_clock_control.c ****  */
 428:SourceFiles\asw/swc_clock_control.c **** static void CLOCK__dispatch_KL_Min()
 429:SourceFiles\asw/swc_clock_control.c **** {
 430:SourceFiles\asw/swc_clock_control.c ****     UART_LOG_PutString("CLOCK__dispatch_KL_Minutes\n");
ARM GAS  C:\Users\JASON\AppData\Local\Temp\cct5bgFA.s 			page 9


 431:SourceFiles\asw/swc_clock_control.c ****     CLOCK__dispatch_wrapper(EV_KEYLEFT, CLOCK_MINWIDGET);  
 432:SourceFiles\asw/swc_clock_control.c **** }
 433:SourceFiles\asw/swc_clock_control.c **** /**
 434:SourceFiles\asw/swc_clock_control.c ****  * @brief Dispatcher when right key is pressed in ISEDITINGMINUTES container state.
 435:SourceFiles\asw/swc_clock_control.c ****  */
 436:SourceFiles\asw/swc_clock_control.c **** static void CLOCK__dispatch_KR_Min()
 437:SourceFiles\asw/swc_clock_control.c **** {
 438:SourceFiles\asw/swc_clock_control.c ****     UART_LOG_PutString("CLOCK__dispatch_KR_Minutes\n");
 439:SourceFiles\asw/swc_clock_control.c ****     CLOCK__dispatch_wrapper(EV_KEYRIGHT, CLOCK_MINWIDGET);    
 440:SourceFiles\asw/swc_clock_control.c **** }
 441:SourceFiles\asw/swc_clock_control.c **** /**
 442:SourceFiles\asw/swc_clock_control.c ****  * @brief Dispatcher when long press of right key occurs in ISEDITINGHOURS container state.
 443:SourceFiles\asw/swc_clock_control.c ****  */
 444:SourceFiles\asw/swc_clock_control.c **** static void CLOCK__dispatch_KRLP_Hours()
 445:SourceFiles\asw/swc_clock_control.c **** {
 446:SourceFiles\asw/swc_clock_control.c ****     UART_LOG_PutString("CLOCK__dispatch_KRLP_Hours\n");
 447:SourceFiles\asw/swc_clock_control.c ****     CLOCK__dispatch_wrapper(EV_KEYRIGHTLONGPRESS, CLOCK_HOURWIDGET);
 448:SourceFiles\asw/swc_clock_control.c ****     
 449:SourceFiles\asw/swc_clock_control.c ****     // When long press of right key occurs, set the auto-increment event of 250 ms.
 450:SourceFiles\asw/swc_clock_control.c ****     SC_EVENT_data_t ev = RTE_SC_EVENT_get(&SO_EVENT_signal);
 451:SourceFiles\asw/swc_clock_control.c ****     ev.m_ev     = EV_250MS;
 452:SourceFiles\asw/swc_clock_control.c ****     RTE_SC_EVENT_set(&SO_EVENT_signal, ev);
 453:SourceFiles\asw/swc_clock_control.c **** }
 454:SourceFiles\asw/swc_clock_control.c **** /**
 455:SourceFiles\asw/swc_clock_control.c ****  * @brief Dispatcher when long press of right key occurs in ISEDITINGMINUTES container state.
 456:SourceFiles\asw/swc_clock_control.c ****  */
 457:SourceFiles\asw/swc_clock_control.c **** static void CLOCK__dispatch_KRLP_Min()
 458:SourceFiles\asw/swc_clock_control.c **** {
 459:SourceFiles\asw/swc_clock_control.c ****     UART_LOG_PutString("CLOCK__dispatch_KRLP_Min\n");
 460:SourceFiles\asw/swc_clock_control.c ****     CLOCK__dispatch_wrapper(EV_KEYRIGHTLONGPRESS, CLOCK_MINWIDGET);
 461:SourceFiles\asw/swc_clock_control.c ****     
 462:SourceFiles\asw/swc_clock_control.c ****     // When long press of right key occurs, set the auto-increment event of 250 ms.
 463:SourceFiles\asw/swc_clock_control.c ****     SC_EVENT_data_t ev = RTE_SC_EVENT_get(&SO_EVENT_signal);
 464:SourceFiles\asw/swc_clock_control.c ****     ev.m_ev     = EV_250MS;
 465:SourceFiles\asw/swc_clock_control.c ****     RTE_SC_EVENT_set(&SO_EVENT_signal, ev);
 466:SourceFiles\asw/swc_clock_control.c **** }
 467:SourceFiles\asw/swc_clock_control.c **** /**
 468:SourceFiles\asw/swc_clock_control.c ****  * @brief Dispatcher for auto increment event of 250ms in ISEDITINGHOURS container state.
 469:SourceFiles\asw/swc_clock_control.c ****  */
 470:SourceFiles\asw/swc_clock_control.c **** static void CLOCK__dispatch_250MS_Hours()
 471:SourceFiles\asw/swc_clock_control.c **** {
 472:SourceFiles\asw/swc_clock_control.c ****     UART_LOG_PutString("CLOCK__dispatch_250MS_Hours\n");
 473:SourceFiles\asw/swc_clock_control.c ****     CLOCK__dispatch_wrapper(EV_250MS, CLOCK_HOURWIDGET);
 474:SourceFiles\asw/swc_clock_control.c **** }
 475:SourceFiles\asw/swc_clock_control.c **** /**
 476:SourceFiles\asw/swc_clock_control.c ****  * @brief Dispatcher for auto increment event of 250ms in ISEDITINGMINUTES container state.
 477:SourceFiles\asw/swc_clock_control.c ****  */
 478:SourceFiles\asw/swc_clock_control.c **** static void CLOCK__dispatch_250MS_Min()
 479:SourceFiles\asw/swc_clock_control.c **** {
 480:SourceFiles\asw/swc_clock_control.c ****     UART_LOG_PutString("CLOCK__dispatch_250MS_Min\n");
 481:SourceFiles\asw/swc_clock_control.c ****     CLOCK__dispatch_wrapper(EV_250MS, CLOCK_MINWIDGET);
 482:SourceFiles\asw/swc_clock_control.c ****     
 483:SourceFiles\asw/swc_clock_control.c **** }
 484:SourceFiles\asw/swc_clock_control.c **** /**
 485:SourceFiles\asw/swc_clock_control.c ****  * @brief Dispatcher for 1 minute increment in ISDISPLAYING container state.
 486:SourceFiles\asw/swc_clock_control.c ****  */
 487:SourceFiles\asw/swc_clock_control.c **** static void CLOCK__increment1Minute()
ARM GAS  C:\Users\JASON\AppData\Local\Temp\cct5bgFA.s 			page 10


 488:SourceFiles\asw/swc_clock_control.c **** {
 489:SourceFiles\asw/swc_clock_control.c ****     UART_LOG_PutString("CLOCK__increment1Minute\n");
 490:SourceFiles\asw/swc_clock_control.c **** 	
 491:SourceFiles\asw/swc_clock_control.c **** 	//Read the state object (container).
 492:SourceFiles\asw/swc_clock_control.c ****     SC_CLOCK_data_t clock = RTE_SC_CLOCK_get(&SO_CLOCK_signal);
 493:SourceFiles\asw/swc_clock_control.c **** 	
 494:SourceFiles\asw/swc_clock_control.c **** 	uint16_t hh = clock.m_hours.m_value;
 495:SourceFiles\asw/swc_clock_control.c **** 	uint16_t mm = clock.m_minutes.m_value;
 496:SourceFiles\asw/swc_clock_control.c **** 	
 497:SourceFiles\asw/swc_clock_control.c **** 	mm = (mm + 1) % 60;
 498:SourceFiles\asw/swc_clock_control.c **** 	hh = (mm == 0)? ((hh + 1) % 24) : hh;
 499:SourceFiles\asw/swc_clock_control.c **** 	
 500:SourceFiles\asw/swc_clock_control.c ****     //Write the changed values back to the clock object.
 501:SourceFiles\asw/swc_clock_control.c **** 	clock.m_hours.m_value 	= hh;
 502:SourceFiles\asw/swc_clock_control.c **** 	clock.m_minutes.m_value	= mm;
 503:SourceFiles\asw/swc_clock_control.c **** 	
 504:SourceFiles\asw/swc_clock_control.c ****     RTE_SC_CLOCK_set(&SO_CLOCK_signal, clock);
 505:SourceFiles\asw/swc_clock_control.c **** }
 506:SourceFiles\asw/swc_clock_control.c **** /**
 507:SourceFiles\asw/swc_clock_control.c ****  * @brief Entry function to ISDISPLAYING container state to set flag for increment at every 1 minut
 508:SourceFiles\asw/swc_clock_control.c ****  */
 509:SourceFiles\asw/swc_clock_control.c **** static void CLOCK_setIncrement1Min()
 510:SourceFiles\asw/swc_clock_control.c **** {
  27              		.loc 1 510 0
  28              		.cfi_startproc
  29              		@ args = 0, pretend = 0, frame = 0
  30              		@ frame_needed = 0, uses_anonymous_args = 0
  31              		@ link register save eliminated.
 511:SourceFiles\asw/swc_clock_control.c ****     SETFLAG(increment1Min_st);
  32              		.loc 1 511 0
  33 0000 0122     		movs	r2, #1
  34 0002 014B     		ldr	r3, .L2
  35 0004 1A70     		strb	r2, [r3]
  36 0006 7047     		bx	lr
  37              	.L3:
  38              		.align	2
  39              	.L2:
  40 0008 00000000 		.word	.LANCHOR0
  41              		.cfi_endproc
  42              	.LFE144:
  43              		.size	CLOCK_setIncrement1Min, .-CLOCK_setIncrement1Min
  44              		.section	.text.CLOCK_resetIncrement1Min,"ax",%progbits
  45              		.align	2
  46              		.thumb
  47              		.thumb_func
  48              		.type	CLOCK_resetIncrement1Min, %function
  49              	CLOCK_resetIncrement1Min:
  50              	.LFB145:
 512:SourceFiles\asw/swc_clock_control.c **** }
 513:SourceFiles\asw/swc_clock_control.c **** /**
 514:SourceFiles\asw/swc_clock_control.c ****  * @brief Exit function from ISDISPLAYING container state to reset flag for increment at every 1 mi
 515:SourceFiles\asw/swc_clock_control.c ****  */
 516:SourceFiles\asw/swc_clock_control.c **** static void CLOCK_resetIncrement1Min()
 517:SourceFiles\asw/swc_clock_control.c **** {
  51              		.loc 1 517 0
  52              		.cfi_startproc
  53              		@ args = 0, pretend = 0, frame = 0
ARM GAS  C:\Users\JASON\AppData\Local\Temp\cct5bgFA.s 			page 11


  54              		@ frame_needed = 0, uses_anonymous_args = 0
  55              		@ link register save eliminated.
 518:SourceFiles\asw/swc_clock_control.c ****     RESETFLAG(increment1Min_st);   
  56              		.loc 1 518 0
  57 0000 0022     		movs	r2, #0
  58 0002 014B     		ldr	r3, .L5
  59 0004 1A70     		strb	r2, [r3]
  60 0006 7047     		bx	lr
  61              	.L6:
  62              		.align	2
  63              	.L5:
  64 0008 00000000 		.word	.LANCHOR0
  65              		.cfi_endproc
  66              	.LFE145:
  67              		.size	CLOCK_resetIncrement1Min, .-CLOCK_resetIncrement1Min
  68              		.section	.text.CLOCK_setAutoIncrement,"ax",%progbits
  69              		.align	2
  70              		.thumb
  71              		.thumb_func
  72              		.type	CLOCK_setAutoIncrement, %function
  73              	CLOCK_setAutoIncrement:
  74              	.LFB149:
 519:SourceFiles\asw/swc_clock_control.c **** }
 520:SourceFiles\asw/swc_clock_control.c **** /**
 521:SourceFiles\asw/swc_clock_control.c ****  * @brief Action (transition) function from ISDISPLAYING to ISEDITING widget state 
 522:SourceFiles\asw/swc_clock_control.c ****  * that sets the font of the currently active widget.
 523:SourceFiles\asw/swc_clock_control.c ****  */
 524:SourceFiles\asw/swc_clock_control.c **** static void CLOCK__setEditFonts()
 525:SourceFiles\asw/swc_clock_control.c **** {
 526:SourceFiles\asw/swc_clock_control.c ****     UART_LOG_PutString("CLOCK__setEditFonts\n");
 527:SourceFiles\asw/swc_clock_control.c ****     
 528:SourceFiles\asw/swc_clock_control.c ****     //Re-read the state object in order to get the changes by the child.
 529:SourceFiles\asw/swc_clock_control.c ****     SC_CLOCK_data_t clock = RTE_SC_CLOCK_get(&SO_CLOCK_signal);
 530:SourceFiles\asw/swc_clock_control.c ****     
 531:SourceFiles\asw/swc_clock_control.c ****     CLOCK_font_t activeFont;
 532:SourceFiles\asw/swc_clock_control.c ****     CLOCK_font_t inactiveFont;
 533:SourceFiles\asw/swc_clock_control.c ****     
 534:SourceFiles\asw/swc_clock_control.c ****     activeFont.foreground   = BLACK;
 535:SourceFiles\asw/swc_clock_control.c ****     activeFont.background   = WHITE;
 536:SourceFiles\asw/swc_clock_control.c ****     
 537:SourceFiles\asw/swc_clock_control.c ****     inactiveFont.foreground = WHITE;
 538:SourceFiles\asw/swc_clock_control.c ****     inactiveFont.background = BLACK;
 539:SourceFiles\asw/swc_clock_control.c ****         
 540:SourceFiles\asw/swc_clock_control.c ****     if(CLOCK_HOURWIDGET == clock.m_activeWidget)
 541:SourceFiles\asw/swc_clock_control.c ****     {
 542:SourceFiles\asw/swc_clock_control.c ****         clock.m_hours.m_font        = activeFont;
 543:SourceFiles\asw/swc_clock_control.c ****         clock.m_minutes.m_font      = inactiveFont;
 544:SourceFiles\asw/swc_clock_control.c ****     }
 545:SourceFiles\asw/swc_clock_control.c ****     
 546:SourceFiles\asw/swc_clock_control.c ****     if(CLOCK_MINWIDGET == clock.m_activeWidget)
 547:SourceFiles\asw/swc_clock_control.c ****     {
 548:SourceFiles\asw/swc_clock_control.c ****         clock.m_hours.m_font        = inactiveFont;
 549:SourceFiles\asw/swc_clock_control.c ****         clock.m_minutes.m_font      = activeFont;
 550:SourceFiles\asw/swc_clock_control.c ****     }
 551:SourceFiles\asw/swc_clock_control.c ****         
 552:SourceFiles\asw/swc_clock_control.c ****     //Write the changed values back to the clock object.
 553:SourceFiles\asw/swc_clock_control.c ****     RTE_SC_CLOCK_set(&SO_CLOCK_signal, clock);
ARM GAS  C:\Users\JASON\AppData\Local\Temp\cct5bgFA.s 			page 12


 554:SourceFiles\asw/swc_clock_control.c **** }
 555:SourceFiles\asw/swc_clock_control.c **** /**
 556:SourceFiles\asw/swc_clock_control.c ****  * @brief Action (transition) function from ISEDITING and ISAUTOINCREMENT to ISDISPLAYING
 557:SourceFiles\asw/swc_clock_control.c ****  * widget state that resets the font to display mode.
 558:SourceFiles\asw/swc_clock_control.c ****  */
 559:SourceFiles\asw/swc_clock_control.c **** static void CLOCK__setDisplayFonts()
 560:SourceFiles\asw/swc_clock_control.c **** {
 561:SourceFiles\asw/swc_clock_control.c ****     UART_LOG_PutString("CLOCK__setDisplayFonts\n");
 562:SourceFiles\asw/swc_clock_control.c ****     
 563:SourceFiles\asw/swc_clock_control.c ****     //Re-read the state object in order to get the changes by the child.
 564:SourceFiles\asw/swc_clock_control.c ****     SC_CLOCK_data_t clock = RTE_SC_CLOCK_get(&SO_CLOCK_signal);
 565:SourceFiles\asw/swc_clock_control.c ****     
 566:SourceFiles\asw/swc_clock_control.c ****     CLOCK_font_t font;
 567:SourceFiles\asw/swc_clock_control.c ****     
 568:SourceFiles\asw/swc_clock_control.c ****     font.foreground = WHITE;
 569:SourceFiles\asw/swc_clock_control.c ****     font.background = BLACK;
 570:SourceFiles\asw/swc_clock_control.c ****         
 571:SourceFiles\asw/swc_clock_control.c ****     clock.m_hours.m_font    = font;
 572:SourceFiles\asw/swc_clock_control.c ****     clock.m_minutes.m_font  = font;
 573:SourceFiles\asw/swc_clock_control.c ****         
 574:SourceFiles\asw/swc_clock_control.c ****     //Write the changed values back to the clock object.
 575:SourceFiles\asw/swc_clock_control.c ****     RTE_SC_CLOCK_set(&SO_CLOCK_signal, clock); 
 576:SourceFiles\asw/swc_clock_control.c **** }
 577:SourceFiles\asw/swc_clock_control.c **** /**
 578:SourceFiles\asw/swc_clock_control.c ****  * @brief Action function in ISEDITING and ISAUTOINCREMENT widget states 
 579:SourceFiles\asw/swc_clock_control.c ****  * that updates the widget value, depending on the current active widget.
 580:SourceFiles\asw/swc_clock_control.c ****  */
 581:SourceFiles\asw/swc_clock_control.c **** static void CLOCK__incrementWidget()
 582:SourceFiles\asw/swc_clock_control.c **** {
 583:SourceFiles\asw/swc_clock_control.c ****     UART_LOG_PutString("CLOCK__incrementWidget\n");
 584:SourceFiles\asw/swc_clock_control.c ****     
 585:SourceFiles\asw/swc_clock_control.c ****     //Read the state object (container).
 586:SourceFiles\asw/swc_clock_control.c ****     SC_CLOCK_data_t clock = RTE_SC_CLOCK_get(&SO_CLOCK_signal);
 587:SourceFiles\asw/swc_clock_control.c ****     
 588:SourceFiles\asw/swc_clock_control.c ****     CLOCK_State_t localState = clock.m_hours.m_state;
 589:SourceFiles\asw/swc_clock_control.c ****     
 590:SourceFiles\asw/swc_clock_control.c ****     // Check if the hours widget is in editing or auto-increment mode.
 591:SourceFiles\asw/swc_clock_control.c ****     if(STATE_CLOCK_W_ISEDITING == localState || STATE_CLOCK_W_ISAUTOINCREMENT == localState)
 592:SourceFiles\asw/swc_clock_control.c ****     {
 593:SourceFiles\asw/swc_clock_control.c ****         clock.m_hours.m_value = (clock.m_hours.m_value + 1) % 24;
 594:SourceFiles\asw/swc_clock_control.c ****     }
 595:SourceFiles\asw/swc_clock_control.c ****     
 596:SourceFiles\asw/swc_clock_control.c ****     localState = clock.m_minutes.m_state;
 597:SourceFiles\asw/swc_clock_control.c ****     
 598:SourceFiles\asw/swc_clock_control.c ****     // Check if the minutes widget is in editing or auto-increment mode.
 599:SourceFiles\asw/swc_clock_control.c ****     if(STATE_CLOCK_W_ISEDITING == localState || STATE_CLOCK_W_ISAUTOINCREMENT == localState)
 600:SourceFiles\asw/swc_clock_control.c ****     {
 601:SourceFiles\asw/swc_clock_control.c ****         clock.m_minutes.m_value = (clock.m_minutes.m_value + 1) % 60;
 602:SourceFiles\asw/swc_clock_control.c ****     }
 603:SourceFiles\asw/swc_clock_control.c ****     
 604:SourceFiles\asw/swc_clock_control.c ****     //Write the changed values back to the clock object.
 605:SourceFiles\asw/swc_clock_control.c ****     RTE_SC_CLOCK_set(&SO_CLOCK_signal, clock);  
 606:SourceFiles\asw/swc_clock_control.c **** }
 607:SourceFiles\asw/swc_clock_control.c **** /**
 608:SourceFiles\asw/swc_clock_control.c ****  * @brief Entry function to ISAUTOINCREMENT widget state to set flag for increment at every 250 ms.
 609:SourceFiles\asw/swc_clock_control.c ****  */
 610:SourceFiles\asw/swc_clock_control.c **** static void CLOCK_setAutoIncrement()
ARM GAS  C:\Users\JASON\AppData\Local\Temp\cct5bgFA.s 			page 13


 611:SourceFiles\asw/swc_clock_control.c **** {
  75              		.loc 1 611 0
  76              		.cfi_startproc
  77              		@ args = 0, pretend = 0, frame = 0
  78              		@ frame_needed = 0, uses_anonymous_args = 0
  79              		@ link register save eliminated.
 612:SourceFiles\asw/swc_clock_control.c ****     SETFLAG(autoIncrement_st);
  80              		.loc 1 612 0
  81 0000 0122     		movs	r2, #1
  82 0002 014B     		ldr	r3, .L8
  83 0004 5A70     		strb	r2, [r3, #1]
  84 0006 7047     		bx	lr
  85              	.L9:
  86              		.align	2
  87              	.L8:
  88 0008 00000000 		.word	.LANCHOR0
  89              		.cfi_endproc
  90              	.LFE149:
  91              		.size	CLOCK_setAutoIncrement, .-CLOCK_setAutoIncrement
  92              		.section	.text.CLOCK_resetAutoIncrement,"ax",%progbits
  93              		.align	2
  94              		.thumb
  95              		.thumb_func
  96              		.type	CLOCK_resetAutoIncrement, %function
  97              	CLOCK_resetAutoIncrement:
  98              	.LFB150:
 613:SourceFiles\asw/swc_clock_control.c **** }
 614:SourceFiles\asw/swc_clock_control.c **** /**
 615:SourceFiles\asw/swc_clock_control.c ****  * @brief Exit function from ISAUTOINCREMENT widget state to reset flag for increment at every 250 
 616:SourceFiles\asw/swc_clock_control.c ****  */
 617:SourceFiles\asw/swc_clock_control.c **** static void CLOCK_resetAutoIncrement()
 618:SourceFiles\asw/swc_clock_control.c **** {
  99              		.loc 1 618 0
 100              		.cfi_startproc
 101              		@ args = 0, pretend = 0, frame = 0
 102              		@ frame_needed = 0, uses_anonymous_args = 0
 103              		@ link register save eliminated.
 619:SourceFiles\asw/swc_clock_control.c ****     RESETFLAG(autoIncrement_st);
 104              		.loc 1 619 0
 105 0000 0022     		movs	r2, #0
 106 0002 014B     		ldr	r3, .L11
 107 0004 5A70     		strb	r2, [r3, #1]
 108 0006 7047     		bx	lr
 109              	.L12:
 110              		.align	2
 111              	.L11:
 112 0008 00000000 		.word	.LANCHOR0
 113              		.cfi_endproc
 114              	.LFE150:
 115              		.size	CLOCK_resetAutoIncrement, .-CLOCK_resetAutoIncrement
 116              		.section	.text.CLOCK__dispatch_wrapper,"ax",%progbits
 117              		.align	2
 118              		.thumb
 119              		.thumb_func
 120              		.type	CLOCK__dispatch_wrapper, %function
 121              	CLOCK__dispatch_wrapper:
 122              	.LFB133:
ARM GAS  C:\Users\JASON\AppData\Local\Temp\cct5bgFA.s 			page 14


 352:SourceFiles\asw/swc_clock_control.c ****     //Read the state object (container)
 123              		.loc 1 352 0
 124              		.cfi_startproc
 125              		@ args = 0, pretend = 0, frame = 336
 126              		@ frame_needed = 0, uses_anonymous_args = 0
 127              	.LVL0:
 128 0000 F0B5     		push	{r4, r5, r6, r7, lr}
 129              		.cfi_def_cfa_offset 20
 130              		.cfi_offset 4, -20
 131              		.cfi_offset 5, -16
 132              		.cfi_offset 6, -12
 133              		.cfi_offset 7, -8
 134              		.cfi_offset 14, -4
 135 0002 D7B0     		sub	sp, sp, #348
 136              		.cfi_def_cfa_offset 368
 137 0004 0746     		mov	r7, r0
 138 0006 0E46     		mov	r6, r1
 139              	.LVL1:
 140              	.LBB70:
 141              	.LBB71:
 142              		.file 2 ".\\SourceFiles\\rte/sc_clock.h"
   1:.\SourceFiles\rte/sc_clock.h **** 
   2:.\SourceFiles\rte/sc_clock.h **** 
   3:.\SourceFiles\rte/sc_clock.h **** /**
   4:.\SourceFiles\rte/sc_clock.h **** *  file    SC_CLOCK_signal.h
   5:.\SourceFiles\rte/sc_clock.h **** *
   6:.\SourceFiles\rte/sc_clock.h **** *  brief   signal base class for signal sc_clock
   7:.\SourceFiles\rte/sc_clock.h **** *
   8:.\SourceFiles\rte/sc_clock.h **** *  author  Autogenerated, Peter Fromm       <peter.fromm@h-da.de>
   9:.\SourceFiles\rte/sc_clock.h **** *
  10:.\SourceFiles\rte/sc_clock.h **** *
  11:.\SourceFiles\rte/sc_clock.h **** */
  12:.\SourceFiles\rte/sc_clock.h **** 
  13:.\SourceFiles\rte/sc_clock.h **** /*
  14:.\SourceFiles\rte/sc_clock.h **** * description: Signalclass of the clock containig the hours and minutes.
  15:.\SourceFiles\rte/sc_clock.h **** * name: sc_CLOCK
  16:.\SourceFiles\rte/sc_clock.h **** * shortname: CLOCK
  17:.\SourceFiles\rte/sc_clock.h **** */
  18:.\SourceFiles\rte/sc_clock.h **** 
  19:.\SourceFiles\rte/sc_clock.h **** #ifndef SC_CLOCK_SIGNAL_H_INCLUDED
  20:.\SourceFiles\rte/sc_clock.h **** #define SC_CLOCK_SIGNAL_H_INCLUDED
  21:.\SourceFiles\rte/sc_clock.h **** 
  22:.\SourceFiles\rte/sc_clock.h **** /*================================================[ public includes  ]=============================
  23:.\SourceFiles\rte/sc_clock.h **** #include "global.h"
  24:.\SourceFiles\rte/sc_clock.h **** #include "project.h"
  25:.\SourceFiles\rte/sc_clock.h **** #include "rte.h"
  26:.\SourceFiles\rte/sc_clock.h **** #include "rte_types.h"
  27:.\SourceFiles\rte/sc_clock.h **** 
  28:.\SourceFiles\rte/sc_clock.h **** #include "sc_clock_type.h"
  29:.\SourceFiles\rte/sc_clock.h **** 
  30:.\SourceFiles\rte/sc_clock.h **** 
  31:.\SourceFiles\rte/sc_clock.h **** /**************************************************************************************************
  32:.\SourceFiles\rte/sc_clock.h **** /* The driver API block																						*/
  33:.\SourceFiles\rte/sc_clock.h **** /**************************************************************************************************
  34:.\SourceFiles\rte/sc_clock.h ****                                                                                                    
  35:.\SourceFiles\rte/sc_clock.h **** /**
  36:.\SourceFiles\rte/sc_clock.h ****  *  Definition of function types for driver interfaces.
ARM GAS  C:\Users\JASON\AppData\Local\Temp\cct5bgFA.s 			page 15


  37:.\SourceFiles\rte/sc_clock.h ****  *  I-Port
  38:.\SourceFiles\rte/sc_clock.h ****  */
  39:.\SourceFiles\rte/sc_clock.h **** typedef RC_t (*SC_CLOCK_driverIn_t)(SC_CLOCK_data_t * const);
  40:.\SourceFiles\rte/sc_clock.h **** 
  41:.\SourceFiles\rte/sc_clock.h **** /**
  42:.\SourceFiles\rte/sc_clock.h ****  *  Definition of function types for driver interfaces.
  43:.\SourceFiles\rte/sc_clock.h ****  *  O-Port
  44:.\SourceFiles\rte/sc_clock.h ****  */
  45:.\SourceFiles\rte/sc_clock.h **** typedef RC_t (*SC_CLOCK_driverOut_t)( const SC_CLOCK_data_t * const);
  46:.\SourceFiles\rte/sc_clock.h **** 
  47:.\SourceFiles\rte/sc_clock.h **** 
  48:.\SourceFiles\rte/sc_clock.h **** /**************************************************************************************************
  49:.\SourceFiles\rte/sc_clock.h **** /* The signal configuration API block																				*/
  50:.\SourceFiles\rte/sc_clock.h **** /**************************************************************************************************
  51:.\SourceFiles\rte/sc_clock.h **** 
  52:.\SourceFiles\rte/sc_clock.h **** /**
  53:.\SourceFiles\rte/sc_clock.h ****  * Instances of the struct SC_CLOCK_cfg_t represent the signal object configuration.
  54:.\SourceFiles\rte/sc_clock.h ****  */
  55:.\SourceFiles\rte/sc_clock.h **** struct SC_CLOCK_cfg_s
  56:.\SourceFiles\rte/sc_clock.h **** {
  57:.\SourceFiles\rte/sc_clock.h ****     /**
  58:.\SourceFiles\rte/sc_clock.h ****      * Function pointer to the input driver
  59:.\SourceFiles\rte/sc_clock.h ****      */
  60:.\SourceFiles\rte/sc_clock.h ****     SC_CLOCK_driverIn_t const inDriver;
  61:.\SourceFiles\rte/sc_clock.h **** 
  62:.\SourceFiles\rte/sc_clock.h ****     /**
  63:.\SourceFiles\rte/sc_clock.h ****      * Function pointer to the output driver table
  64:.\SourceFiles\rte/sc_clock.h ****      */
  65:.\SourceFiles\rte/sc_clock.h ****    SC_CLOCK_driverOut_t const outDriver;
  66:.\SourceFiles\rte/sc_clock.h ****    
  67:.\SourceFiles\rte/sc_clock.h ****     /**
  68:.\SourceFiles\rte/sc_clock.h ****      * Event onUpdate
  69:.\SourceFiles\rte/sc_clock.h ****      */
  70:.\SourceFiles\rte/sc_clock.h ****     EventMaskType const evOnUpdate;
  71:.\SourceFiles\rte/sc_clock.h ****     
  72:.\SourceFiles\rte/sc_clock.h ****     
  73:.\SourceFiles\rte/sc_clock.h ****     /**
  74:.\SourceFiles\rte/sc_clock.h ****      * Event onError
  75:.\SourceFiles\rte/sc_clock.h ****      */
  76:.\SourceFiles\rte/sc_clock.h ****     EventMaskType const evOnError;
  77:.\SourceFiles\rte/sc_clock.h ****     
  78:.\SourceFiles\rte/sc_clock.h ****     /**
  79:.\SourceFiles\rte/sc_clock.h ****      * Task Count onUpdate
  80:.\SourceFiles\rte/sc_clock.h ****      */
  81:.\SourceFiles\rte/sc_clock.h ****     size_t const onUpdateTaskCount;
  82:.\SourceFiles\rte/sc_clock.h **** 
  83:.\SourceFiles\rte/sc_clock.h ****     /**
  84:.\SourceFiles\rte/sc_clock.h ****      * Task List onUpdate
  85:.\SourceFiles\rte/sc_clock.h ****      */
  86:.\SourceFiles\rte/sc_clock.h ****     TaskTypeArray* const onUpdateTasks;
  87:.\SourceFiles\rte/sc_clock.h ****     
  88:.\SourceFiles\rte/sc_clock.h ****     /**
  89:.\SourceFiles\rte/sc_clock.h ****      * Task Count onError
  90:.\SourceFiles\rte/sc_clock.h ****      */
  91:.\SourceFiles\rte/sc_clock.h ****     size_t const onErrorTaskCount;
  92:.\SourceFiles\rte/sc_clock.h **** 
  93:.\SourceFiles\rte/sc_clock.h ****     /**
ARM GAS  C:\Users\JASON\AppData\Local\Temp\cct5bgFA.s 			page 16


  94:.\SourceFiles\rte/sc_clock.h ****      * Task List onError
  95:.\SourceFiles\rte/sc_clock.h ****      */
  96:.\SourceFiles\rte/sc_clock.h ****     TaskTypeArray* const onErrorTasks;
  97:.\SourceFiles\rte/sc_clock.h **** 	
  98:.\SourceFiles\rte/sc_clock.h **** 	
  99:.\SourceFiles\rte/sc_clock.h **** 	/**
 100:.\SourceFiles\rte/sc_clock.h **** 	 * Ressourse is active? We need an additional boolean as a ressource value 0 is valid.
 101:.\SourceFiles\rte/sc_clock.h **** 	 */
 102:.\SourceFiles\rte/sc_clock.h **** 	 boolean_t const resourceActive;
 103:.\SourceFiles\rte/sc_clock.h **** 	 
 104:.\SourceFiles\rte/sc_clock.h **** 	/**
 105:.\SourceFiles\rte/sc_clock.h **** 	 * Ressourse 
 106:.\SourceFiles\rte/sc_clock.h **** 	 */
 107:.\SourceFiles\rte/sc_clock.h **** 	 ResourceType const resource;
 108:.\SourceFiles\rte/sc_clock.h **** 
 109:.\SourceFiles\rte/sc_clock.h **** };                                                                                                 
 110:.\SourceFiles\rte/sc_clock.h **** typedef const struct SC_CLOCK_cfg_s SC_CLOCK_cfg_t;
 111:.\SourceFiles\rte/sc_clock.h ****                               
 112:.\SourceFiles\rte/sc_clock.h **** /**************************************************************************************************
 113:.\SourceFiles\rte/sc_clock.h **** /* The data interface block																							*/
 114:.\SourceFiles\rte/sc_clock.h **** /**************************************************************************************************
 115:.\SourceFiles\rte/sc_clock.h **** 
 116:.\SourceFiles\rte/sc_clock.h ****                                                                                                    
 117:.\SourceFiles\rte/sc_clock.h **** 							  
 118:.\SourceFiles\rte/sc_clock.h **** /**
 119:.\SourceFiles\rte/sc_clock.h ****  * Instances of the struct SC_CLOCK_t represent the signal objects.
 120:.\SourceFiles\rte/sc_clock.h ****  * A signal object contains the current application value 'value' as well as relevant meta data.
 121:.\SourceFiles\rte/sc_clock.h ****  */
 122:.\SourceFiles\rte/sc_clock.h **** struct SC_CLOCK_s
 123:.\SourceFiles\rte/sc_clock.h **** {                                                                                                  
 124:.\SourceFiles\rte/sc_clock.h **** 
 125:.\SourceFiles\rte/sc_clock.h **** 	/**
 126:.\SourceFiles\rte/sc_clock.h **** 	 * Data buffer for the application value
 127:.\SourceFiles\rte/sc_clock.h **** 	 */
 128:.\SourceFiles\rte/sc_clock.h ****     SC_CLOCK_data_t value;
 129:.\SourceFiles\rte/sc_clock.h **** 
 130:.\SourceFiles\rte/sc_clock.h ****     /**
 131:.\SourceFiles\rte/sc_clock.h ****      * Current signal status
 132:.\SourceFiles\rte/sc_clock.h ****      */
 133:.\SourceFiles\rte/sc_clock.h ****     RTE_signalStatus_t status;
 134:.\SourceFiles\rte/sc_clock.h **** 
 135:.\SourceFiles\rte/sc_clock.h ****     /**
 136:.\SourceFiles\rte/sc_clock.h ****      * Current age of the signal (in calling cycles)
 137:.\SourceFiles\rte/sc_clock.h ****      */
 138:.\SourceFiles\rte/sc_clock.h ****     uint32_t age;
 139:.\SourceFiles\rte/sc_clock.h **** 
 140:.\SourceFiles\rte/sc_clock.h ****     /**
 141:.\SourceFiles\rte/sc_clock.h ****      * Pointer to the signal configuration
 142:.\SourceFiles\rte/sc_clock.h ****      */
 143:.\SourceFiles\rte/sc_clock.h **** 	const SC_CLOCK_cfg_t * const    pSigCfg;
 144:.\SourceFiles\rte/sc_clock.h **** 
 145:.\SourceFiles\rte/sc_clock.h **** };                                                                                                 
 146:.\SourceFiles\rte/sc_clock.h **** typedef struct SC_CLOCK_s SC_CLOCK_t;
 147:.\SourceFiles\rte/sc_clock.h **** 
 148:.\SourceFiles\rte/sc_clock.h **** /**************************************************************************************************
 149:.\SourceFiles\rte/sc_clock.h **** /* Signal initialisation   																							*/
 150:.\SourceFiles\rte/sc_clock.h **** /**************************************************************************************************
ARM GAS  C:\Users\JASON\AppData\Local\Temp\cct5bgFA.s 			page 17


 151:.\SourceFiles\rte/sc_clock.h **** 
 152:.\SourceFiles\rte/sc_clock.h **** /**
 153:.\SourceFiles\rte/sc_clock.h ****  * Initializes a signal instance with a passed init value.
 154:.\SourceFiles\rte/sc_clock.h ****  * Depending on the configured conversion or scaling function the raw_value will be calculated.
 155:.\SourceFiles\rte/sc_clock.h ****  * Signal status will change from RTE_SIGNALSTATUS_STARTUP to RTE_SIGNALSTATUS_INITIALIZED.
 156:.\SourceFiles\rte/sc_clock.h ****  *
 157:.\SourceFiles\rte/sc_clock.h ****  * @param  SC_CLOCK_t * const signal: Pointer to the signal object which will be initialised
 158:.\SourceFiles\rte/sc_clock.h ****  * @param const sc_clock_data_t * const value: Pointer to initial value of the application data
 159:.\SourceFiles\rte/sc_clock.h ****  * @return RC_t: standard return code, currently only RC_SUCCESS
 160:.\SourceFiles\rte/sc_clock.h ****  *
 161:.\SourceFiles\rte/sc_clock.h ****  **/
 162:.\SourceFiles\rte/sc_clock.h **** inline RC_t RTE_SC_CLOCK_init( SC_CLOCK_t * const signal, const SC_CLOCK_data_t * const value )
 163:.\SourceFiles\rte/sc_clock.h **** {                                                                                                  
 164:.\SourceFiles\rte/sc_clock.h **** 
 165:.\SourceFiles\rte/sc_clock.h ****    RC_t ret = RC_SUCCESS;
 166:.\SourceFiles\rte/sc_clock.h **** 
 167:.\SourceFiles\rte/sc_clock.h ****    //Set value and raw value
 168:.\SourceFiles\rte/sc_clock.h ****    signal->value  = *value;
 169:.\SourceFiles\rte/sc_clock.h ****    signal->age    = 0;
 170:.\SourceFiles\rte/sc_clock.h ****    signal->status = RTE_SIGNALSTATUS_INITIALIZED;
 171:.\SourceFiles\rte/sc_clock.h **** 
 172:.\SourceFiles\rte/sc_clock.h ****    return ret;
 173:.\SourceFiles\rte/sc_clock.h **** }
 174:.\SourceFiles\rte/sc_clock.h **** 
 175:.\SourceFiles\rte/sc_clock.h **** /**************************************************************************************************
 176:.\SourceFiles\rte/sc_clock.h **** /* Status and timeout control																						*/
 177:.\SourceFiles\rte/sc_clock.h **** /**************************************************************************************************
 178:.\SourceFiles\rte/sc_clock.h **** 
 179:.\SourceFiles\rte/sc_clock.h **** /**
 180:.\SourceFiles\rte/sc_clock.h ****  *  Returns the current signal status of the passed signal instance.
 181:.\SourceFiles\rte/sc_clock.h ****  *
 182:.\SourceFiles\rte/sc_clock.h ****  * @param  SC_CLOCK_t * const signal: Pointer to the signal object
 183:.\SourceFiles\rte/sc_clock.h ****  * @return  sig_status_t: The current signal status
 184:.\SourceFiles\rte/sc_clock.h ****  *
 185:.\SourceFiles\rte/sc_clock.h ****  **/
 186:.\SourceFiles\rte/sc_clock.h **** inline RTE_signalStatus_t RTE_SC_CLOCK_getStatus( const SC_CLOCK_t * const signal )
 187:.\SourceFiles\rte/sc_clock.h **** {
 188:.\SourceFiles\rte/sc_clock.h ****    return signal->status;
 189:.\SourceFiles\rte/sc_clock.h **** }
 190:.\SourceFiles\rte/sc_clock.h **** 
 191:.\SourceFiles\rte/sc_clock.h **** 
 192:.\SourceFiles\rte/sc_clock.h **** /**
 193:.\SourceFiles\rte/sc_clock.h ****  *  Sets a new signal status of the passed signal instance by passing the new status.
 194:.\SourceFiles\rte/sc_clock.h ****  *
 195:.\SourceFiles\rte/sc_clock.h ****  * @param  SC_CLOCK_t * const signal: Pointer to the signal object
 196:.\SourceFiles\rte/sc_clock.h ****  * @param  const sig_status_t status: New signal status
 197:.\SourceFiles\rte/sc_clock.h ****  * @return RC_t: standard return code, currently only RC_SUCCESS
 198:.\SourceFiles\rte/sc_clock.h ****  *
 199:.\SourceFiles\rte/sc_clock.h ****  */
 200:.\SourceFiles\rte/sc_clock.h **** inline RC_t RTE_SC_CLOCK_setStatus( SC_CLOCK_t * const signal, const RTE_signalStatus_t status )
 201:.\SourceFiles\rte/sc_clock.h **** {
 202:.\SourceFiles\rte/sc_clock.h ****    signal->status = status;
 203:.\SourceFiles\rte/sc_clock.h ****    size_t taskNum=0;
 204:.\SourceFiles\rte/sc_clock.h ****    
 205:.\SourceFiles\rte/sc_clock.h ****    //Fire error events in case of invalid state
 206:.\SourceFiles\rte/sc_clock.h ****    if (signal->status == RTE_SIGNALSTATUS_INVALID)
 207:.\SourceFiles\rte/sc_clock.h ****    {
ARM GAS  C:\Users\JASON\AppData\Local\Temp\cct5bgFA.s 			page 18


 208:.\SourceFiles\rte/sc_clock.h **** 	    //Pointer to the Taskarray, containing the tasks receiving the onUpdate events
 209:.\SourceFiles\rte/sc_clock.h **** 		TaskTypeArray* pTaskArray = signal->pSigCfg->onErrorTasks;
 210:.\SourceFiles\rte/sc_clock.h **** 
 211:.\SourceFiles\rte/sc_clock.h **** 		if (NULL!=signal->pSigCfg->evOnError && NULL != pTaskArray){
 212:.\SourceFiles\rte/sc_clock.h **** 			for( taskNum=0 ; taskNum < signal->pSigCfg->onErrorTaskCount ;taskNum++){
 213:.\SourceFiles\rte/sc_clock.h **** 				TaskType task = (*pTaskArray)[taskNum];
 214:.\SourceFiles\rte/sc_clock.h **** 				SetEvent( task, signal->pSigCfg->evOnError);
 215:.\SourceFiles\rte/sc_clock.h **** 			}
 216:.\SourceFiles\rte/sc_clock.h **** 		}
 217:.\SourceFiles\rte/sc_clock.h ****    }
 218:.\SourceFiles\rte/sc_clock.h ****    
 219:.\SourceFiles\rte/sc_clock.h ****    return RC_SUCCESS;
 220:.\SourceFiles\rte/sc_clock.h **** }
 221:.\SourceFiles\rte/sc_clock.h **** 
 222:.\SourceFiles\rte/sc_clock.h **** 
 223:.\SourceFiles\rte/sc_clock.h **** /**
 224:.\SourceFiles\rte/sc_clock.h ****  * Returns the count of refreshing trials (refresh, set or set_raw) that failed.
 225:.\SourceFiles\rte/sc_clock.h ****  * Prerquisite: The signal is refreshed cyclically
 226:.\SourceFiles\rte/sc_clock.h ****  *
 227:.\SourceFiles\rte/sc_clock.h ****  * @param  SC_CLOCK_t * const signal: Pointer to the signal object
 228:.\SourceFiles\rte/sc_clock.h ****  * @return uint32_t: Number of cycles since the signal has been updated for the last time
 229:.\SourceFiles\rte/sc_clock.h ****  */
 230:.\SourceFiles\rte/sc_clock.h **** inline uint32_t RTE_SC_CLOCK_getAge( const SC_CLOCK_t * const signal )
 231:.\SourceFiles\rte/sc_clock.h **** {
 232:.\SourceFiles\rte/sc_clock.h ****    return signal->age;
 233:.\SourceFiles\rte/sc_clock.h **** }
 234:.\SourceFiles\rte/sc_clock.h **** 
 235:.\SourceFiles\rte/sc_clock.h **** /**
 236:.\SourceFiles\rte/sc_clock.h ****  * Should be called by application or driver if no new value can be provided.
 237:.\SourceFiles\rte/sc_clock.h ****  * @param  SC_CLOCK_t * const signal: Pointer to the signal object
 238:.\SourceFiles\rte/sc_clock.h ****  * @param uint32_t increment: incrementvalue, typically in [ms]
 239:.\SourceFiles\rte/sc_clock.h ****  * @return void
 240:.\SourceFiles\rte/sc_clock.h ****  */
 241:.\SourceFiles\rte/sc_clock.h **** inline void RTE_SC_CLOCK_incAge(  SC_CLOCK_t * const signal , uint32_t increment)
 242:.\SourceFiles\rte/sc_clock.h **** {
 243:.\SourceFiles\rte/sc_clock.h **** 	   //Hack....
 244:.\SourceFiles\rte/sc_clock.h **** 	   if ( 0xFFFF0000 > (signal->age + increment) )
 245:.\SourceFiles\rte/sc_clock.h **** 	   {
 246:.\SourceFiles\rte/sc_clock.h **** 	      signal->age += increment;
 247:.\SourceFiles\rte/sc_clock.h **** 	   }
 248:.\SourceFiles\rte/sc_clock.h **** }
 249:.\SourceFiles\rte/sc_clock.h **** 
 250:.\SourceFiles\rte/sc_clock.h **** 
 251:.\SourceFiles\rte/sc_clock.h **** /**************************************************************************************************
 252:.\SourceFiles\rte/sc_clock.h **** /* Application Data read/write Interface																			*/
 253:.\SourceFiles\rte/sc_clock.h **** /**************************************************************************************************
 254:.\SourceFiles\rte/sc_clock.h **** 
 255:.\SourceFiles\rte/sc_clock.h **** /**
 256:.\SourceFiles\rte/sc_clock.h ****  * Returns the current application value of the passed signal instance.
 257:.\SourceFiles\rte/sc_clock.h ****  *
 258:.\SourceFiles\rte/sc_clock.h ****  * @param  SC_CLOCK_t * const signal: Pointer to the signal object
 259:.\SourceFiles\rte/sc_clock.h ****  * @return sc_clock_data_t: current value of the application data buffer
 260:.\SourceFiles\rte/sc_clock.h ****  *
 261:.\SourceFiles\rte/sc_clock.h ****  **/
 262:.\SourceFiles\rte/sc_clock.h **** inline SC_CLOCK_data_t RTE_SC_CLOCK_get( const SC_CLOCK_t * const signal )
 263:.\SourceFiles\rte/sc_clock.h **** {               
 264:.\SourceFiles\rte/sc_clock.h ****    //Todo: Critical region cannot be protected using return values																						
ARM GAS  C:\Users\JASON\AppData\Local\Temp\cct5bgFA.s 			page 19


 265:.\SourceFiles\rte/sc_clock.h ****    return signal->value;                                                                           
 143              		.loc 2 265 0
 144 0008 DFF86CE2 		ldr	lr, .L35
 145 000c 48AC     		add	r4, sp, #288
 146 000e 7546     		mov	r5, lr
 147 0010 0FCD     		ldmia	r5!, {r0, r1, r2, r3}
 148              	.LVL2:
 149 0012 0FC4     		stmia	r4!, {r0, r1, r2, r3}
 150 0014 0FCD     		ldmia	r5!, {r0, r1, r2, r3}
 151 0016 0FC4     		stmia	r4!, {r0, r1, r2, r3}
 152 0018 0FCD     		ldmia	r5!, {r0, r1, r2, r3}
 153 001a 0FC4     		stmia	r4!, {r0, r1, r2, r3}
 154 001c 95E80300 		ldmia	r5, {r0, r1}
 155 0020 84E80300 		stmia	r4, {r0, r1}
 156              	.LVL3:
 157              	.LBE71:
 158              	.LBE70:
 357:SourceFiles\asw/swc_clock_control.c ****     
 159              		.loc 1 357 0
 160 0024 8DF82C61 		strb	r6, [sp, #300]
 161              	.LVL4:
 162 0028 02AC     		add	r4, sp, #8
 163 002a 48AD     		add	r5, sp, #288
 164 002c 0FCD     		ldmia	r5!, {r0, r1, r2, r3}
 165 002e 0FC4     		stmia	r4!, {r0, r1, r2, r3}
 166 0030 0FCD     		ldmia	r5!, {r0, r1, r2, r3}
 167 0032 0FC4     		stmia	r4!, {r0, r1, r2, r3}
 168 0034 0FCD     		ldmia	r5!, {r0, r1, r2, r3}
 169 0036 0FC4     		stmia	r4!, {r0, r1, r2, r3}
 170 0038 95E80300 		ldmia	r5, {r0, r1}
 171 003c 84E80300 		stmia	r4, {r0, r1}
 172              	.LVL5:
 173              	.LBB72:
 174              	.LBB73:
 266:.\SourceFiles\rte/sc_clock.h **** }                                                                                                  
 267:.\SourceFiles\rte/sc_clock.h ****                                                                                                    
 268:.\SourceFiles\rte/sc_clock.h **** /**
 269:.\SourceFiles\rte/sc_clock.h ****  * Returns the current application value of the passed signal instance threadsafe.
 270:.\SourceFiles\rte/sc_clock.h ****  *
 271:.\SourceFiles\rte/sc_clock.h ****  * @param  SC_CLOCK_t * const signal: Pointer to the signal object
 272:.\SourceFiles\rte/sc_clock.h ****  * @param  SC_CLOCK_data_t* data: Pointer to the return data Pointer to the signal object
 273:.\SourceFiles\rte/sc_clock.h ****  * @return RC_SUCCESS
 274:.\SourceFiles\rte/sc_clock.h ****  *
 275:.\SourceFiles\rte/sc_clock.h ****  **/
 276:.\SourceFiles\rte/sc_clock.h **** inline RC_t RTE_SC_CLOCK_getThreadSafe( const SC_CLOCK_t * const signal, SC_CLOCK_data_t * const da
 277:.\SourceFiles\rte/sc_clock.h **** {    
 278:.\SourceFiles\rte/sc_clock.h ****    if (TRUE == signal->pSigCfg->resourceActive) GetResource(signal->pSigCfg->resource);
 279:.\SourceFiles\rte/sc_clock.h ****    *data = signal->value;
 280:.\SourceFiles\rte/sc_clock.h ****    if (TRUE == signal->pSigCfg->resourceActive) ReleaseResource(signal->pSigCfg->resource);        
 281:.\SourceFiles\rte/sc_clock.h **** 
 282:.\SourceFiles\rte/sc_clock.h ****    return RC_SUCCESS;                                                                   
 283:.\SourceFiles\rte/sc_clock.h ****    
 284:.\SourceFiles\rte/sc_clock.h **** }                                                                                                  
 285:.\SourceFiles\rte/sc_clock.h ****                                                                                                    
 286:.\SourceFiles\rte/sc_clock.h **** /**
 287:.\SourceFiles\rte/sc_clock.h ****  * Sets a new application value to the passed signal instance by passing the new value.
 288:.\SourceFiles\rte/sc_clock.h ****  * The corresponding driver raw value will be calculated immediately by using the default conversio
ARM GAS  C:\Users\JASON\AppData\Local\Temp\cct5bgFA.s 			page 20


 289:.\SourceFiles\rte/sc_clock.h ****  * signal specific scaling function.
 290:.\SourceFiles\rte/sc_clock.h ****  * The signal age will be set to 0 and the new status will be 'RTE_SIGNALSTATUS_VALID'.
 291:.\SourceFiles\rte/sc_clock.h ****  *
 292:.\SourceFiles\rte/sc_clock.h ****  * @param  SC_CLOCK_t * const signal: Pointer to the signal object
 293:.\SourceFiles\rte/sc_clock.h ****  * @param  sc_clock_data_t const value: value for the application data buffer
 294:.\SourceFiles\rte/sc_clock.h ****  * @return RC_t: standard return code, currently only RC_SUCCESS
 295:.\SourceFiles\rte/sc_clock.h ****  *
 296:.\SourceFiles\rte/sc_clock.h ****  **/
 297:.\SourceFiles\rte/sc_clock.h **** inline RC_t RTE_SC_CLOCK_set(SC_CLOCK_t * const signal, const SC_CLOCK_data_t value  )
 298:.\SourceFiles\rte/sc_clock.h **** {
 299:.\SourceFiles\rte/sc_clock.h **** 
 300:.\SourceFiles\rte/sc_clock.h ****    RC_t ret = RC_SUCCESS;
 301:.\SourceFiles\rte/sc_clock.h ****    size_t taskNum=0;
 302:.\SourceFiles\rte/sc_clock.h **** 
 303:.\SourceFiles\rte/sc_clock.h **** 
 304:.\SourceFiles\rte/sc_clock.h ****    if (TRUE == signal->pSigCfg->resourceActive) GetResource(signal->pSigCfg->resource);
 175              		.loc 2 304 0
 176 0040 DEF84030 		ldr	r3, [lr, #64]
 177 0044 93F82020 		ldrb	r2, [r3, #32]	@ zero_extendqisi2
 178 0048 012A     		cmp	r2, #1
 179 004a 02D1     		bne	.L14
 180 004c 586A     		ldr	r0, [r3, #36]
 181 004e FFF7FEFF 		bl	EE_oo_GetResource
 182              	.LVL6:
 183              	.L14:
 305:.\SourceFiles\rte/sc_clock.h ****    signal->value  = value;
 184              		.loc 2 305 0
 185 0052 DFF824E2 		ldr	lr, .L35
 186 0056 7446     		mov	r4, lr
 187 0058 02AD     		add	r5, sp, #8
 188 005a 0FCD     		ldmia	r5!, {r0, r1, r2, r3}
 189 005c 0FC4     		stmia	r4!, {r0, r1, r2, r3}
 190 005e 0FCD     		ldmia	r5!, {r0, r1, r2, r3}
 191 0060 0FC4     		stmia	r4!, {r0, r1, r2, r3}
 192 0062 0FCD     		ldmia	r5!, {r0, r1, r2, r3}
 193 0064 0FC4     		stmia	r4!, {r0, r1, r2, r3}
 194 0066 95E80300 		ldmia	r5, {r0, r1}
 195 006a 84E80300 		stmia	r4, {r0, r1}
 306:.\SourceFiles\rte/sc_clock.h ****    signal->age    = 0;
 196              		.loc 2 306 0
 197 006e 0023     		movs	r3, #0
 198 0070 CEF83C30 		str	r3, [lr, #60]
 307:.\SourceFiles\rte/sc_clock.h ****    signal->status = RTE_SIGNALSTATUS_VALID;
 199              		.loc 2 307 0
 200 0074 0223     		movs	r3, #2
 201 0076 8EF83830 		strb	r3, [lr, #56]
 308:.\SourceFiles\rte/sc_clock.h ****    if (TRUE == signal->pSigCfg->resourceActive) ReleaseResource(signal->pSigCfg->resource);
 202              		.loc 2 308 0
 203 007a DEF84030 		ldr	r3, [lr, #64]
 204 007e 93F82020 		ldrb	r2, [r3, #32]	@ zero_extendqisi2
 205 0082 012A     		cmp	r2, #1
 206 0084 02D1     		bne	.L15
 207 0086 586A     		ldr	r0, [r3, #36]
 208 0088 FFF7FEFF 		bl	EE_oo_ReleaseResource
 209              	.LVL7:
 210              	.L15:
 309:.\SourceFiles\rte/sc_clock.h **** 
ARM GAS  C:\Users\JASON\AppData\Local\Temp\cct5bgFA.s 			page 21


 310:.\SourceFiles\rte/sc_clock.h ****    //Pointer to the Taskarray, containing the tasks receiving the onUpdate events
 311:.\SourceFiles\rte/sc_clock.h ****    TaskTypeArray* pTaskArray = signal->pSigCfg->onUpdateTasks;
 211              		.loc 2 311 0
 212 008c 7A4B     		ldr	r3, .L35
 213 008e 1B6C     		ldr	r3, [r3, #64]
 214 0090 5D69     		ldr	r5, [r3, #20]
 215              	.LVL8:
 312:.\SourceFiles\rte/sc_clock.h **** 
 313:.\SourceFiles\rte/sc_clock.h ****    if (NULL!=signal->pSigCfg->evOnUpdate && NULL != pTaskArray){
 216              		.loc 2 313 0
 217 0092 9B68     		ldr	r3, [r3, #8]
 218 0094 73B1     		cbz	r3, .L16
 219 0096 3DB9     		cbnz	r5, .L31
 220 0098 0CE0     		b	.L16
 221              	.LVL9:
 222              	.L18:
 223              	.LBB74:
 314:.\SourceFiles\rte/sc_clock.h ****       for( taskNum=0 ; taskNum < signal->pSigCfg->onUpdateTaskCount ;taskNum++){
 315:.\SourceFiles\rte/sc_clock.h **** 		  
 316:.\SourceFiles\rte/sc_clock.h ****           TaskType task = (*pTaskArray)[taskNum];
 317:.\SourceFiles\rte/sc_clock.h **** 	      SetEvent( task, signal->pSigCfg->evOnUpdate);
 224              		.loc 2 317 0
 225 009a 9968     		ldr	r1, [r3, #8]
 226 009c 55F82400 		ldr	r0, [r5, r4, lsl #2]
 227 00a0 FFF7FEFF 		bl	EE_oo_SetEvent
 228              	.LVL10:
 229              	.LBE74:
 314:.\SourceFiles\rte/sc_clock.h ****       for( taskNum=0 ; taskNum < signal->pSigCfg->onUpdateTaskCount ;taskNum++){
 230              		.loc 2 314 0
 231 00a4 0134     		adds	r4, r4, #1
 232              	.LVL11:
 233 00a6 00E0     		b	.L17
 234              	.LVL12:
 235              	.L31:
 313:.\SourceFiles\rte/sc_clock.h ****       for( taskNum=0 ; taskNum < signal->pSigCfg->onUpdateTaskCount ;taskNum++){
 236              		.loc 2 313 0
 237 00a8 0024     		movs	r4, #0
 238              	.LVL13:
 239              	.L17:
 314:.\SourceFiles\rte/sc_clock.h ****       for( taskNum=0 ; taskNum < signal->pSigCfg->onUpdateTaskCount ;taskNum++){
 240              		.loc 2 314 0
 241 00aa 734B     		ldr	r3, .L35
 242 00ac 1B6C     		ldr	r3, [r3, #64]
 243 00ae 1A69     		ldr	r2, [r3, #16]
 244 00b0 9442     		cmp	r4, r2
 245 00b2 F2D3     		bcc	.L18
 246              	.LVL14:
 247              	.L16:
 248              	.LBE73:
 249              	.LBE72:
 365:SourceFiles\asw/swc_clock_control.c ****     {
 250              		.loc 1 365 0
 251 00b4 012E     		cmp	r6, #1
 252 00b6 6ED1     		bne	.L19
 253              	.LBB75:
 367:SourceFiles\asw/swc_clock_control.c **** 
 254              		.loc 1 367 0
ARM GAS  C:\Users\JASON\AppData\Local\Temp\cct5bgFA.s 			page 22


 255 00b8 9DF83021 		ldrb	r2, [sp, #304]	@ zero_extendqisi2
 256 00bc 56AB     		add	r3, sp, #344
 257 00be 03F8702D 		strb	r2, [r3, #-112]!
 370:SourceFiles\asw/swc_clock_control.c ****                                             CLOCK_StateActions, CLOCK_StateActions_size,
 258              		.loc 1 370 0
 259 00c2 6E48     		ldr	r0, .L35+4
 260 00c4 0193     		str	r3, [sp, #4]
 261 00c6 0097     		str	r7, [sp]
 262 00c8 0223     		movs	r3, #2
 263 00ca 0246     		mov	r2, r0
 264 00cc 0321     		movs	r1, #3
 265 00ce 1830     		adds	r0, r0, #24
 266 00d0 FFF7FEFF 		bl	STATE_processEvent
 267              	.LVL15:
 268              	.LBB76:
 269              	.LBB77:
 265:.\SourceFiles\rte/sc_clock.h **** }                                                                                                  
 270              		.loc 2 265 0
 271 00d4 684E     		ldr	r6, .L35
 272 00d6 1EAC     		add	r4, sp, #120
 273 00d8 3546     		mov	r5, r6
 274 00da 0FCD     		ldmia	r5!, {r0, r1, r2, r3}
 275 00dc 0FC4     		stmia	r4!, {r0, r1, r2, r3}
 276 00de 0FCD     		ldmia	r5!, {r0, r1, r2, r3}
 277 00e0 0FC4     		stmia	r4!, {r0, r1, r2, r3}
 278 00e2 0FCD     		ldmia	r5!, {r0, r1, r2, r3}
 279 00e4 0FC4     		stmia	r4!, {r0, r1, r2, r3}
 280 00e6 95E80300 		ldmia	r5, {r0, r1}
 281 00ea 84E80300 		stmia	r4, {r0, r1}
 282              	.LVL16:
 283              	.LBE77:
 284              	.LBE76:
 375:SourceFiles\asw/swc_clock_control.c ****         
 285              		.loc 1 375 0
 286 00ee 48AC     		add	r4, sp, #288
 287 00f0 1EAD     		add	r5, sp, #120
 288 00f2 0FCD     		ldmia	r5!, {r0, r1, r2, r3}
 289 00f4 0FC4     		stmia	r4!, {r0, r1, r2, r3}
 290 00f6 0FCD     		ldmia	r5!, {r0, r1, r2, r3}
 291 00f8 0FC4     		stmia	r4!, {r0, r1, r2, r3}
 292 00fa 0FCD     		ldmia	r5!, {r0, r1, r2, r3}
 293 00fc 0FC4     		stmia	r4!, {r0, r1, r2, r3}
 294 00fe 95E80300 		ldmia	r5, {r0, r1}
 295 0102 84E80300 		stmia	r4, {r0, r1}
 377:SourceFiles\asw/swc_clock_control.c **** 
 296              		.loc 1 377 0
 297 0106 9DF8E830 		ldrb	r3, [sp, #232]	@ zero_extendqisi2
 298 010a 8DF83031 		strb	r3, [sp, #304]
 299              	.LVL17:
 300 010e 10AC     		add	r4, sp, #64
 301 0110 48AD     		add	r5, sp, #288
 302 0112 0FCD     		ldmia	r5!, {r0, r1, r2, r3}
 303 0114 0FC4     		stmia	r4!, {r0, r1, r2, r3}
 304 0116 0FCD     		ldmia	r5!, {r0, r1, r2, r3}
 305 0118 0FC4     		stmia	r4!, {r0, r1, r2, r3}
 306 011a 0FCD     		ldmia	r5!, {r0, r1, r2, r3}
 307 011c 0FC4     		stmia	r4!, {r0, r1, r2, r3}
ARM GAS  C:\Users\JASON\AppData\Local\Temp\cct5bgFA.s 			page 23


 308 011e 95E80300 		ldmia	r5, {r0, r1}
 309 0122 84E80300 		stmia	r4, {r0, r1}
 310              	.LVL18:
 311              	.LBB78:
 312              	.LBB79:
 304:.\SourceFiles\rte/sc_clock.h ****    signal->value  = value;
 313              		.loc 2 304 0
 314 0126 336C     		ldr	r3, [r6, #64]
 315 0128 93F82020 		ldrb	r2, [r3, #32]	@ zero_extendqisi2
 316 012c 012A     		cmp	r2, #1
 317 012e 02D1     		bne	.L20
 318 0130 586A     		ldr	r0, [r3, #36]
 319 0132 FFF7FEFF 		bl	EE_oo_GetResource
 320              	.LVL19:
 321              	.L20:
 305:.\SourceFiles\rte/sc_clock.h ****    signal->age    = 0;
 322              		.loc 2 305 0
 323 0136 504E     		ldr	r6, .L35
 324 0138 3446     		mov	r4, r6
 325 013a 10AD     		add	r5, sp, #64
 326 013c 0FCD     		ldmia	r5!, {r0, r1, r2, r3}
 327 013e 0FC4     		stmia	r4!, {r0, r1, r2, r3}
 328 0140 0FCD     		ldmia	r5!, {r0, r1, r2, r3}
 329 0142 0FC4     		stmia	r4!, {r0, r1, r2, r3}
 330 0144 0FCD     		ldmia	r5!, {r0, r1, r2, r3}
 331 0146 0FC4     		stmia	r4!, {r0, r1, r2, r3}
 332 0148 95E80300 		ldmia	r5, {r0, r1}
 333 014c 84E80300 		stmia	r4, {r0, r1}
 306:.\SourceFiles\rte/sc_clock.h ****    signal->status = RTE_SIGNALSTATUS_VALID;
 334              		.loc 2 306 0
 335 0150 0023     		movs	r3, #0
 336 0152 F363     		str	r3, [r6, #60]
 307:.\SourceFiles\rte/sc_clock.h ****    if (TRUE == signal->pSigCfg->resourceActive) ReleaseResource(signal->pSigCfg->resource);
 337              		.loc 2 307 0
 338 0154 0223     		movs	r3, #2
 339 0156 86F83830 		strb	r3, [r6, #56]
 308:.\SourceFiles\rte/sc_clock.h **** 
 340              		.loc 2 308 0
 341 015a 336C     		ldr	r3, [r6, #64]
 342 015c 93F82020 		ldrb	r2, [r3, #32]	@ zero_extendqisi2
 343 0160 012A     		cmp	r2, #1
 344 0162 02D1     		bne	.L21
 345 0164 586A     		ldr	r0, [r3, #36]
 346 0166 FFF7FEFF 		bl	EE_oo_ReleaseResource
 347              	.LVL20:
 348              	.L21:
 311:.\SourceFiles\rte/sc_clock.h **** 
 349              		.loc 2 311 0
 350 016a 434B     		ldr	r3, .L35
 351 016c 1B6C     		ldr	r3, [r3, #64]
 352 016e 5D69     		ldr	r5, [r3, #20]
 353              	.LVL21:
 313:.\SourceFiles\rte/sc_clock.h ****       for( taskNum=0 ; taskNum < signal->pSigCfg->onUpdateTaskCount ;taskNum++){
 354              		.loc 2 313 0
 355 0170 9B68     		ldr	r3, [r3, #8]
 356 0172 002B     		cmp	r3, #0
 357 0174 7ED0     		beq	.L13
ARM GAS  C:\Users\JASON\AppData\Local\Temp\cct5bgFA.s 			page 24


 358 0176 3DB9     		cbnz	r5, .L32
 359 0178 7CE0     		b	.L13
 360              	.LVL22:
 361              	.L24:
 362              	.LBB80:
 363              		.loc 2 317 0
 364 017a 9968     		ldr	r1, [r3, #8]
 365 017c 55F82400 		ldr	r0, [r5, r4, lsl #2]
 366 0180 FFF7FEFF 		bl	EE_oo_SetEvent
 367              	.LVL23:
 368              	.LBE80:
 314:.\SourceFiles\rte/sc_clock.h **** 		  
 369              		.loc 2 314 0
 370 0184 0134     		adds	r4, r4, #1
 371              	.LVL24:
 372 0186 00E0     		b	.L23
 373              	.LVL25:
 374              	.L32:
 313:.\SourceFiles\rte/sc_clock.h ****       for( taskNum=0 ; taskNum < signal->pSigCfg->onUpdateTaskCount ;taskNum++){
 375              		.loc 2 313 0
 376 0188 0024     		movs	r4, #0
 377              	.LVL26:
 378              	.L23:
 314:.\SourceFiles\rte/sc_clock.h **** 		  
 379              		.loc 2 314 0
 380 018a 3B4B     		ldr	r3, .L35
 381 018c 1B6C     		ldr	r3, [r3, #64]
 382 018e 1A69     		ldr	r2, [r3, #16]
 383 0190 9442     		cmp	r4, r2
 384 0192 F2D3     		bcc	.L24
 385 0194 6EE0     		b	.L13
 386              	.LVL27:
 387              	.L19:
 388              	.LBE79:
 389              	.LBE78:
 390              	.LBE75:
 382:SourceFiles\asw/swc_clock_control.c ****     {
 391              		.loc 1 382 0
 392 0196 022E     		cmp	r6, #2
 393 0198 6CD1     		bne	.L13
 394              	.LBB81:
 384:SourceFiles\asw/swc_clock_control.c ****         
 395              		.loc 1 384 0 discriminator 2
 396 019a 9DF84421 		ldrb	r2, [sp, #324]	@ zero_extendqisi2
 397 019e 56AB     		add	r3, sp, #344
 398 01a0 03F8E02D 		strb	r2, [r3, #-224]!
 387:SourceFiles\asw/swc_clock_control.c ****                                             CLOCK_StateActions, CLOCK_StateActions_size,
 399              		.loc 1 387 0 discriminator 2
 400 01a4 3548     		ldr	r0, .L35+4
 401 01a6 0193     		str	r3, [sp, #4]
 402 01a8 0097     		str	r7, [sp]
 403 01aa 0223     		movs	r3, #2
 404 01ac 0246     		mov	r2, r0
 405 01ae 0321     		movs	r1, #3
 406 01b0 1830     		adds	r0, r0, #24
 407 01b2 FFF7FEFF 		bl	STATE_processEvent
 408              	.LVL28:
ARM GAS  C:\Users\JASON\AppData\Local\Temp\cct5bgFA.s 			page 25


 409              	.LBB82:
 410              	.LBB83:
 265:.\SourceFiles\rte/sc_clock.h **** }                                                                                                  
 411              		.loc 2 265 0 discriminator 2
 412 01b6 304E     		ldr	r6, .L35
 413 01b8 3AAC     		add	r4, sp, #232
 414 01ba 3546     		mov	r5, r6
 415 01bc 0FCD     		ldmia	r5!, {r0, r1, r2, r3}
 416 01be 0FC4     		stmia	r4!, {r0, r1, r2, r3}
 417 01c0 0FCD     		ldmia	r5!, {r0, r1, r2, r3}
 418 01c2 0FC4     		stmia	r4!, {r0, r1, r2, r3}
 419 01c4 0FCD     		ldmia	r5!, {r0, r1, r2, r3}
 420 01c6 0FC4     		stmia	r4!, {r0, r1, r2, r3}
 421 01c8 95E80300 		ldmia	r5, {r0, r1}
 422 01cc 84E80300 		stmia	r4, {r0, r1}
 423              	.LVL29:
 424              	.LBE83:
 425              	.LBE82:
 392:SourceFiles\asw/swc_clock_control.c ****         
 426              		.loc 1 392 0 discriminator 2
 427 01d0 48AC     		add	r4, sp, #288
 428 01d2 3AAD     		add	r5, sp, #232
 429 01d4 0FCD     		ldmia	r5!, {r0, r1, r2, r3}
 430 01d6 0FC4     		stmia	r4!, {r0, r1, r2, r3}
 431 01d8 0FCD     		ldmia	r5!, {r0, r1, r2, r3}
 432 01da 0FC4     		stmia	r4!, {r0, r1, r2, r3}
 433 01dc 0FCD     		ldmia	r5!, {r0, r1, r2, r3}
 434 01de 0FC4     		stmia	r4!, {r0, r1, r2, r3}
 435 01e0 95E80300 		ldmia	r5, {r0, r1}
 436 01e4 84E80300 		stmia	r4, {r0, r1}
 394:SourceFiles\asw/swc_clock_control.c ****         
 437              		.loc 1 394 0 discriminator 2
 438 01e8 9DF87830 		ldrb	r3, [sp, #120]	@ zero_extendqisi2
 439 01ec 8DF84431 		strb	r3, [sp, #324]
 440              	.LVL30:
 441 01f0 2CAC     		add	r4, sp, #176
 442 01f2 48AD     		add	r5, sp, #288
 443 01f4 0FCD     		ldmia	r5!, {r0, r1, r2, r3}
 444 01f6 0FC4     		stmia	r4!, {r0, r1, r2, r3}
 445 01f8 0FCD     		ldmia	r5!, {r0, r1, r2, r3}
 446 01fa 0FC4     		stmia	r4!, {r0, r1, r2, r3}
 447 01fc 0FCD     		ldmia	r5!, {r0, r1, r2, r3}
 448 01fe 0FC4     		stmia	r4!, {r0, r1, r2, r3}
 449 0200 95E80300 		ldmia	r5, {r0, r1}
 450 0204 84E80300 		stmia	r4, {r0, r1}
 451              	.LVL31:
 452              	.LBB84:
 453              	.LBB85:
 304:.\SourceFiles\rte/sc_clock.h ****    signal->value  = value;
 454              		.loc 2 304 0 discriminator 2
 455 0208 336C     		ldr	r3, [r6, #64]
 456 020a 93F82020 		ldrb	r2, [r3, #32]	@ zero_extendqisi2
 457 020e 012A     		cmp	r2, #1
 458 0210 02D1     		bne	.L26
 304:.\SourceFiles\rte/sc_clock.h ****    signal->value  = value;
 459              		.loc 2 304 0 is_stmt 0
 460 0212 586A     		ldr	r0, [r3, #36]
ARM GAS  C:\Users\JASON\AppData\Local\Temp\cct5bgFA.s 			page 26


 461 0214 FFF7FEFF 		bl	EE_oo_GetResource
 462              	.LVL32:
 463              	.L26:
 305:.\SourceFiles\rte/sc_clock.h ****    signal->age    = 0;
 464              		.loc 2 305 0 is_stmt 1
 465 0218 174E     		ldr	r6, .L35
 466 021a 3446     		mov	r4, r6
 467 021c 2CAD     		add	r5, sp, #176
 468 021e 0FCD     		ldmia	r5!, {r0, r1, r2, r3}
 469 0220 0FC4     		stmia	r4!, {r0, r1, r2, r3}
 470 0222 0FCD     		ldmia	r5!, {r0, r1, r2, r3}
 471 0224 0FC4     		stmia	r4!, {r0, r1, r2, r3}
 472 0226 0FCD     		ldmia	r5!, {r0, r1, r2, r3}
 473 0228 0FC4     		stmia	r4!, {r0, r1, r2, r3}
 474 022a 95E80300 		ldmia	r5, {r0, r1}
 475 022e 84E80300 		stmia	r4, {r0, r1}
 306:.\SourceFiles\rte/sc_clock.h ****    signal->status = RTE_SIGNALSTATUS_VALID;
 476              		.loc 2 306 0
 477 0232 0023     		movs	r3, #0
 478 0234 F363     		str	r3, [r6, #60]
 307:.\SourceFiles\rte/sc_clock.h ****    if (TRUE == signal->pSigCfg->resourceActive) ReleaseResource(signal->pSigCfg->resource);
 479              		.loc 2 307 0
 480 0236 0223     		movs	r3, #2
 481 0238 86F83830 		strb	r3, [r6, #56]
 308:.\SourceFiles\rte/sc_clock.h **** 
 482              		.loc 2 308 0
 483 023c 336C     		ldr	r3, [r6, #64]
 484 023e 93F82020 		ldrb	r2, [r3, #32]	@ zero_extendqisi2
 485 0242 012A     		cmp	r2, #1
 486 0244 02D1     		bne	.L27
 487 0246 586A     		ldr	r0, [r3, #36]
 488 0248 FFF7FEFF 		bl	EE_oo_ReleaseResource
 489              	.LVL33:
 490              	.L27:
 311:.\SourceFiles\rte/sc_clock.h **** 
 491              		.loc 2 311 0
 492 024c 0A4B     		ldr	r3, .L35
 493 024e 1B6C     		ldr	r3, [r3, #64]
 494 0250 5D69     		ldr	r5, [r3, #20]
 495              	.LVL34:
 313:.\SourceFiles\rte/sc_clock.h ****       for( taskNum=0 ; taskNum < signal->pSigCfg->onUpdateTaskCount ;taskNum++){
 496              		.loc 2 313 0
 497 0252 9B68     		ldr	r3, [r3, #8]
 498 0254 73B1     		cbz	r3, .L13
 499 0256 3DB9     		cbnz	r5, .L33
 500 0258 0CE0     		b	.L13
 501              	.LVL35:
 502              	.L30:
 503              	.LBB86:
 504              		.loc 2 317 0
 505 025a 9968     		ldr	r1, [r3, #8]
 506 025c 55F82400 		ldr	r0, [r5, r4, lsl #2]
 507 0260 FFF7FEFF 		bl	EE_oo_SetEvent
 508              	.LVL36:
 509              	.LBE86:
 314:.\SourceFiles\rte/sc_clock.h **** 		  
 510              		.loc 2 314 0
ARM GAS  C:\Users\JASON\AppData\Local\Temp\cct5bgFA.s 			page 27


 511 0264 0134     		adds	r4, r4, #1
 512              	.LVL37:
 513 0266 00E0     		b	.L29
 514              	.LVL38:
 515              	.L33:
 313:.\SourceFiles\rte/sc_clock.h ****       for( taskNum=0 ; taskNum < signal->pSigCfg->onUpdateTaskCount ;taskNum++){
 516              		.loc 2 313 0
 517 0268 0024     		movs	r4, #0
 518              	.LVL39:
 519              	.L29:
 314:.\SourceFiles\rte/sc_clock.h **** 		  
 520              		.loc 2 314 0
 521 026a 034B     		ldr	r3, .L35
 522 026c 1B6C     		ldr	r3, [r3, #64]
 523 026e 1A69     		ldr	r2, [r3, #16]
 524 0270 9442     		cmp	r4, r2
 525 0272 F2D3     		bcc	.L30
 526              	.LVL40:
 527              	.L13:
 528              	.LBE85:
 529              	.LBE84:
 530              	.LBE81:
 399:SourceFiles\asw/swc_clock_control.c **** /**
 531              		.loc 1 399 0
 532 0274 57B0     		add	sp, sp, #348
 533              		.cfi_def_cfa_offset 20
 534              		@ sp needed
 535 0276 F0BD     		pop	{r4, r5, r6, r7, pc}
 536              	.L36:
 537              		.align	2
 538              	.L35:
 539 0278 00000000 		.word	SO_CLOCK_signal
 540 027c 00000000 		.word	.LANCHOR1
 541              		.cfi_endproc
 542              	.LFE133:
 543              		.size	CLOCK__dispatch_wrapper, .-CLOCK__dispatch_wrapper
 544              		.section	.text.CLOCK__dispatch_250MS_Hours,"ax",%progbits
 545              		.align	2
 546              		.thumb
 547              		.thumb_func
 548              		.type	CLOCK__dispatch_250MS_Hours, %function
 549              	CLOCK__dispatch_250MS_Hours:
 550              	.LFB141:
 471:SourceFiles\asw/swc_clock_control.c ****     UART_LOG_PutString("CLOCK__dispatch_250MS_Hours\n");
 551              		.loc 1 471 0
 552              		.cfi_startproc
 553              		@ args = 0, pretend = 0, frame = 0
 554              		@ frame_needed = 0, uses_anonymous_args = 0
 555 0000 08B5     		push	{r3, lr}
 556              		.cfi_def_cfa_offset 8
 557              		.cfi_offset 3, -8
 558              		.cfi_offset 14, -4
 472:SourceFiles\asw/swc_clock_control.c ****     CLOCK__dispatch_wrapper(EV_250MS, CLOCK_HOURWIDGET);
 559              		.loc 1 472 0
 560 0002 0448     		ldr	r0, .L39
 561 0004 FFF7FEFF 		bl	UART_LOG_PutString
 562              	.LVL41:
ARM GAS  C:\Users\JASON\AppData\Local\Temp\cct5bgFA.s 			page 28


 473:SourceFiles\asw/swc_clock_control.c **** }
 563              		.loc 1 473 0
 564 0008 0121     		movs	r1, #1
 565 000a 0420     		movs	r0, #4
 566 000c FFF7FEFF 		bl	CLOCK__dispatch_wrapper
 567              	.LVL42:
 568 0010 08BD     		pop	{r3, pc}
 569              	.L40:
 570 0012 00BF     		.align	2
 571              	.L39:
 572 0014 00000000 		.word	.LC0
 573              		.cfi_endproc
 574              	.LFE141:
 575              		.size	CLOCK__dispatch_250MS_Hours, .-CLOCK__dispatch_250MS_Hours
 576              		.section	.text.CLOCK__dispatch_KR_Hours,"ax",%progbits
 577              		.align	2
 578              		.thumb
 579              		.thumb_func
 580              		.type	CLOCK__dispatch_KR_Hours, %function
 581              	CLOCK__dispatch_KR_Hours:
 582              	.LFB135:
 412:SourceFiles\asw/swc_clock_control.c ****     UART_LOG_PutString("CLOCK__dispatch_KR_Hours\n");
 583              		.loc 1 412 0
 584              		.cfi_startproc
 585              		@ args = 0, pretend = 0, frame = 0
 586              		@ frame_needed = 0, uses_anonymous_args = 0
 587 0000 08B5     		push	{r3, lr}
 588              		.cfi_def_cfa_offset 8
 589              		.cfi_offset 3, -8
 590              		.cfi_offset 14, -4
 413:SourceFiles\asw/swc_clock_control.c ****     CLOCK__dispatch_wrapper(EV_KEYRIGHT, CLOCK_HOURWIDGET);
 591              		.loc 1 413 0
 592 0002 0448     		ldr	r0, .L43
 593 0004 FFF7FEFF 		bl	UART_LOG_PutString
 594              	.LVL43:
 414:SourceFiles\asw/swc_clock_control.c **** }
 595              		.loc 1 414 0
 596 0008 0121     		movs	r1, #1
 597 000a 0220     		movs	r0, #2
 598 000c FFF7FEFF 		bl	CLOCK__dispatch_wrapper
 599              	.LVL44:
 600 0010 08BD     		pop	{r3, pc}
 601              	.L44:
 602 0012 00BF     		.align	2
 603              	.L43:
 604 0014 20000000 		.word	.LC1
 605              		.cfi_endproc
 606              	.LFE135:
 607              		.size	CLOCK__dispatch_KR_Hours, .-CLOCK__dispatch_KR_Hours
 608              		.section	.text.CLOCK__dispatch_KL_HoursMin,"ax",%progbits
 609              		.align	2
 610              		.thumb
 611              		.thumb_func
 612              		.type	CLOCK__dispatch_KL_HoursMin, %function
 613              	CLOCK__dispatch_KL_HoursMin:
 614              	.LFB136:
 420:SourceFiles\asw/swc_clock_control.c ****     UART_LOG_PutString("CLOCK__dispatch_KL_HoursMin\n");
ARM GAS  C:\Users\JASON\AppData\Local\Temp\cct5bgFA.s 			page 29


 615              		.loc 1 420 0
 616              		.cfi_startproc
 617              		@ args = 0, pretend = 0, frame = 0
 618              		@ frame_needed = 0, uses_anonymous_args = 0
 619 0000 08B5     		push	{r3, lr}
 620              		.cfi_def_cfa_offset 8
 621              		.cfi_offset 3, -8
 622              		.cfi_offset 14, -4
 421:SourceFiles\asw/swc_clock_control.c ****     CLOCK__dispatch_wrapper(EV_KEYLEFT, CLOCK_HOURWIDGET);
 623              		.loc 1 421 0
 624 0002 0648     		ldr	r0, .L47
 625 0004 FFF7FEFF 		bl	UART_LOG_PutString
 626              	.LVL45:
 422:SourceFiles\asw/swc_clock_control.c ****     CLOCK__dispatch_wrapper(EV_KEYLEFT, CLOCK_MINWIDGET);
 627              		.loc 1 422 0
 628 0008 0121     		movs	r1, #1
 629 000a 0846     		mov	r0, r1
 630 000c FFF7FEFF 		bl	CLOCK__dispatch_wrapper
 631              	.LVL46:
 423:SourceFiles\asw/swc_clock_control.c **** }
 632              		.loc 1 423 0
 633 0010 0221     		movs	r1, #2
 634 0012 0120     		movs	r0, #1
 635 0014 FFF7FEFF 		bl	CLOCK__dispatch_wrapper
 636              	.LVL47:
 637 0018 08BD     		pop	{r3, pc}
 638              	.L48:
 639 001a 00BF     		.align	2
 640              	.L47:
 641 001c 3C000000 		.word	.LC2
 642              		.cfi_endproc
 643              	.LFE136:
 644              		.size	CLOCK__dispatch_KL_HoursMin, .-CLOCK__dispatch_KL_HoursMin
 645              		.section	.text.CLOCK__dispatch_250MS_Min,"ax",%progbits
 646              		.align	2
 647              		.thumb
 648              		.thumb_func
 649              		.type	CLOCK__dispatch_250MS_Min, %function
 650              	CLOCK__dispatch_250MS_Min:
 651              	.LFB142:
 479:SourceFiles\asw/swc_clock_control.c ****     UART_LOG_PutString("CLOCK__dispatch_250MS_Min\n");
 652              		.loc 1 479 0
 653              		.cfi_startproc
 654              		@ args = 0, pretend = 0, frame = 0
 655              		@ frame_needed = 0, uses_anonymous_args = 0
 656 0000 08B5     		push	{r3, lr}
 657              		.cfi_def_cfa_offset 8
 658              		.cfi_offset 3, -8
 659              		.cfi_offset 14, -4
 480:SourceFiles\asw/swc_clock_control.c ****     CLOCK__dispatch_wrapper(EV_250MS, CLOCK_MINWIDGET);
 660              		.loc 1 480 0
 661 0002 0448     		ldr	r0, .L51
 662 0004 FFF7FEFF 		bl	UART_LOG_PutString
 663              	.LVL48:
 481:SourceFiles\asw/swc_clock_control.c ****     
 664              		.loc 1 481 0
 665 0008 0221     		movs	r1, #2
ARM GAS  C:\Users\JASON\AppData\Local\Temp\cct5bgFA.s 			page 30


 666 000a 0420     		movs	r0, #4
 667 000c FFF7FEFF 		bl	CLOCK__dispatch_wrapper
 668              	.LVL49:
 669 0010 08BD     		pop	{r3, pc}
 670              	.L52:
 671 0012 00BF     		.align	2
 672              	.L51:
 673 0014 5C000000 		.word	.LC3
 674              		.cfi_endproc
 675              	.LFE142:
 676              		.size	CLOCK__dispatch_250MS_Min, .-CLOCK__dispatch_250MS_Min
 677              		.section	.text.CLOCK__dispatch_KR_Min,"ax",%progbits
 678              		.align	2
 679              		.thumb
 680              		.thumb_func
 681              		.type	CLOCK__dispatch_KR_Min, %function
 682              	CLOCK__dispatch_KR_Min:
 683              	.LFB138:
 437:SourceFiles\asw/swc_clock_control.c ****     UART_LOG_PutString("CLOCK__dispatch_KR_Minutes\n");
 684              		.loc 1 437 0
 685              		.cfi_startproc
 686              		@ args = 0, pretend = 0, frame = 0
 687              		@ frame_needed = 0, uses_anonymous_args = 0
 688 0000 08B5     		push	{r3, lr}
 689              		.cfi_def_cfa_offset 8
 690              		.cfi_offset 3, -8
 691              		.cfi_offset 14, -4
 438:SourceFiles\asw/swc_clock_control.c ****     CLOCK__dispatch_wrapper(EV_KEYRIGHT, CLOCK_MINWIDGET);    
 692              		.loc 1 438 0
 693 0002 0448     		ldr	r0, .L55
 694 0004 FFF7FEFF 		bl	UART_LOG_PutString
 695              	.LVL50:
 439:SourceFiles\asw/swc_clock_control.c **** }
 696              		.loc 1 439 0
 697 0008 0221     		movs	r1, #2
 698 000a 0846     		mov	r0, r1
 699 000c FFF7FEFF 		bl	CLOCK__dispatch_wrapper
 700              	.LVL51:
 701 0010 08BD     		pop	{r3, pc}
 702              	.L56:
 703 0012 00BF     		.align	2
 704              	.L55:
 705 0014 78000000 		.word	.LC4
 706              		.cfi_endproc
 707              	.LFE138:
 708              		.size	CLOCK__dispatch_KR_Min, .-CLOCK__dispatch_KR_Min
 709              		.section	.text.CLOCK__dispatch_KL_Min,"ax",%progbits
 710              		.align	2
 711              		.thumb
 712              		.thumb_func
 713              		.type	CLOCK__dispatch_KL_Min, %function
 714              	CLOCK__dispatch_KL_Min:
 715              	.LFB137:
 429:SourceFiles\asw/swc_clock_control.c ****     UART_LOG_PutString("CLOCK__dispatch_KL_Minutes\n");
 716              		.loc 1 429 0
 717              		.cfi_startproc
 718              		@ args = 0, pretend = 0, frame = 0
ARM GAS  C:\Users\JASON\AppData\Local\Temp\cct5bgFA.s 			page 31


 719              		@ frame_needed = 0, uses_anonymous_args = 0
 720 0000 08B5     		push	{r3, lr}
 721              		.cfi_def_cfa_offset 8
 722              		.cfi_offset 3, -8
 723              		.cfi_offset 14, -4
 430:SourceFiles\asw/swc_clock_control.c ****     CLOCK__dispatch_wrapper(EV_KEYLEFT, CLOCK_MINWIDGET);  
 724              		.loc 1 430 0
 725 0002 0448     		ldr	r0, .L59
 726 0004 FFF7FEFF 		bl	UART_LOG_PutString
 727              	.LVL52:
 431:SourceFiles\asw/swc_clock_control.c **** }
 728              		.loc 1 431 0
 729 0008 0221     		movs	r1, #2
 730 000a 0120     		movs	r0, #1
 731 000c FFF7FEFF 		bl	CLOCK__dispatch_wrapper
 732              	.LVL53:
 733 0010 08BD     		pop	{r3, pc}
 734              	.L60:
 735 0012 00BF     		.align	2
 736              	.L59:
 737 0014 94000000 		.word	.LC5
 738              		.cfi_endproc
 739              	.LFE137:
 740              		.size	CLOCK__dispatch_KL_Min, .-CLOCK__dispatch_KL_Min
 741              		.section	.text.CLOCK__dispatch_KL_Hours,"ax",%progbits
 742              		.align	2
 743              		.thumb
 744              		.thumb_func
 745              		.type	CLOCK__dispatch_KL_Hours, %function
 746              	CLOCK__dispatch_KL_Hours:
 747              	.LFB134:
 404:SourceFiles\asw/swc_clock_control.c ****     UART_LOG_PutString("CLOCK__dispatch_KL_Hours\n");
 748              		.loc 1 404 0
 749              		.cfi_startproc
 750              		@ args = 0, pretend = 0, frame = 0
 751              		@ frame_needed = 0, uses_anonymous_args = 0
 752 0000 08B5     		push	{r3, lr}
 753              		.cfi_def_cfa_offset 8
 754              		.cfi_offset 3, -8
 755              		.cfi_offset 14, -4
 405:SourceFiles\asw/swc_clock_control.c ****     CLOCK__dispatch_wrapper(EV_KEYLEFT, CLOCK_HOURWIDGET);
 756              		.loc 1 405 0
 757 0002 0448     		ldr	r0, .L63
 758 0004 FFF7FEFF 		bl	UART_LOG_PutString
 759              	.LVL54:
 406:SourceFiles\asw/swc_clock_control.c **** }
 760              		.loc 1 406 0
 761 0008 0121     		movs	r1, #1
 762 000a 0846     		mov	r0, r1
 763 000c FFF7FEFF 		bl	CLOCK__dispatch_wrapper
 764              	.LVL55:
 765 0010 08BD     		pop	{r3, pc}
 766              	.L64:
 767 0012 00BF     		.align	2
 768              	.L63:
 769 0014 B0000000 		.word	.LC6
 770              		.cfi_endproc
ARM GAS  C:\Users\JASON\AppData\Local\Temp\cct5bgFA.s 			page 32


 771              	.LFE134:
 772              		.size	CLOCK__dispatch_KL_Hours, .-CLOCK__dispatch_KL_Hours
 773              		.section	.text.CLOCK__errorHandler,"ax",%progbits
 774              		.align	2
 775              		.thumb
 776              		.thumb_func
 777              		.type	CLOCK__errorHandler, %function
 778              	CLOCK__errorHandler:
 779              	.LFB151:
 620:SourceFiles\asw/swc_clock_control.c **** }
 621:SourceFiles\asw/swc_clock_control.c **** /**
 622:SourceFiles\asw/swc_clock_control.c ****  * @brief Error handler : sets an error event.
 623:SourceFiles\asw/swc_clock_control.c ****  */
 624:SourceFiles\asw/swc_clock_control.c **** static void CLOCK__errorHandler()
 625:SourceFiles\asw/swc_clock_control.c **** {
 780              		.loc 1 625 0
 781              		.cfi_startproc
 782              		@ args = 0, pretend = 0, frame = 0
 783              		@ frame_needed = 0, uses_anonymous_args = 0
 784 0000 38B5     		push	{r3, r4, r5, lr}
 785              		.cfi_def_cfa_offset 16
 786              		.cfi_offset 3, -16
 787              		.cfi_offset 4, -12
 788              		.cfi_offset 5, -8
 789              		.cfi_offset 14, -4
 626:SourceFiles\asw/swc_clock_control.c ****     UART_LOG_PutString("CLOCK__errorHandler\n");
 790              		.loc 1 626 0
 791 0002 1848     		ldr	r0, .L73
 792 0004 FFF7FEFF 		bl	UART_LOG_PutString
 793              	.LVL56:
 794              	.LBB87:
 795              	.LBB88:
 796              		.file 3 ".\\SourceFiles\\rte/sc_event.h"
   1:.\SourceFiles\rte/sc_event.h **** 
   2:.\SourceFiles\rte/sc_event.h **** 
   3:.\SourceFiles\rte/sc_event.h **** /**
   4:.\SourceFiles\rte/sc_event.h **** *  file    SC_EVENT_signal.h
   5:.\SourceFiles\rte/sc_event.h **** *
   6:.\SourceFiles\rte/sc_event.h **** *  brief   signal base class for signal sc_event
   7:.\SourceFiles\rte/sc_event.h **** *
   8:.\SourceFiles\rte/sc_event.h **** *  author  Autogenerated, Peter Fromm       <peter.fromm@h-da.de>
   9:.\SourceFiles\rte/sc_event.h **** *
  10:.\SourceFiles\rte/sc_event.h **** *
  11:.\SourceFiles\rte/sc_event.h **** */
  12:.\SourceFiles\rte/sc_event.h **** 
  13:.\SourceFiles\rte/sc_event.h **** /*
  14:.\SourceFiles\rte/sc_event.h **** * description: Signalclass of the Events.
  15:.\SourceFiles\rte/sc_event.h **** * name: sc_EVENT
  16:.\SourceFiles\rte/sc_event.h **** * shortname: EVENT
  17:.\SourceFiles\rte/sc_event.h **** */
  18:.\SourceFiles\rte/sc_event.h **** 
  19:.\SourceFiles\rte/sc_event.h **** #ifndef SC_EVENT_SIGNAL_H_INCLUDED
  20:.\SourceFiles\rte/sc_event.h **** #define SC_EVENT_SIGNAL_H_INCLUDED
  21:.\SourceFiles\rte/sc_event.h **** 
  22:.\SourceFiles\rte/sc_event.h **** /*================================================[ public includes  ]=============================
  23:.\SourceFiles\rte/sc_event.h **** #include "global.h"
  24:.\SourceFiles\rte/sc_event.h **** #include "project.h"
ARM GAS  C:\Users\JASON\AppData\Local\Temp\cct5bgFA.s 			page 33


  25:.\SourceFiles\rte/sc_event.h **** #include "rte.h"
  26:.\SourceFiles\rte/sc_event.h **** #include "rte_types.h"
  27:.\SourceFiles\rte/sc_event.h **** 
  28:.\SourceFiles\rte/sc_event.h **** #include "sc_event_type.h"
  29:.\SourceFiles\rte/sc_event.h **** 
  30:.\SourceFiles\rte/sc_event.h **** 
  31:.\SourceFiles\rte/sc_event.h **** /**************************************************************************************************
  32:.\SourceFiles\rte/sc_event.h **** /* The driver API block																						*/
  33:.\SourceFiles\rte/sc_event.h **** /**************************************************************************************************
  34:.\SourceFiles\rte/sc_event.h ****                                                                                                    
  35:.\SourceFiles\rte/sc_event.h **** /**
  36:.\SourceFiles\rte/sc_event.h ****  *  Definition of function types for driver interfaces.
  37:.\SourceFiles\rte/sc_event.h ****  *  I-Port
  38:.\SourceFiles\rte/sc_event.h ****  */
  39:.\SourceFiles\rte/sc_event.h **** typedef RC_t (*SC_EVENT_driverIn_t)(SC_EVENT_data_t * const);
  40:.\SourceFiles\rte/sc_event.h **** 
  41:.\SourceFiles\rte/sc_event.h **** /**
  42:.\SourceFiles\rte/sc_event.h ****  *  Definition of function types for driver interfaces.
  43:.\SourceFiles\rte/sc_event.h ****  *  O-Port
  44:.\SourceFiles\rte/sc_event.h ****  */
  45:.\SourceFiles\rte/sc_event.h **** typedef RC_t (*SC_EVENT_driverOut_t)( const SC_EVENT_data_t * const);
  46:.\SourceFiles\rte/sc_event.h **** 
  47:.\SourceFiles\rte/sc_event.h **** 
  48:.\SourceFiles\rte/sc_event.h **** /**************************************************************************************************
  49:.\SourceFiles\rte/sc_event.h **** /* The signal configuration API block																				*/
  50:.\SourceFiles\rte/sc_event.h **** /**************************************************************************************************
  51:.\SourceFiles\rte/sc_event.h **** 
  52:.\SourceFiles\rte/sc_event.h **** /**
  53:.\SourceFiles\rte/sc_event.h ****  * Instances of the struct SC_EVENT_cfg_t represent the signal object configuration.
  54:.\SourceFiles\rte/sc_event.h ****  */
  55:.\SourceFiles\rte/sc_event.h **** struct SC_EVENT_cfg_s
  56:.\SourceFiles\rte/sc_event.h **** {
  57:.\SourceFiles\rte/sc_event.h ****     /**
  58:.\SourceFiles\rte/sc_event.h ****      * Function pointer to the input driver
  59:.\SourceFiles\rte/sc_event.h ****      */
  60:.\SourceFiles\rte/sc_event.h ****     SC_EVENT_driverIn_t const inDriver;
  61:.\SourceFiles\rte/sc_event.h **** 
  62:.\SourceFiles\rte/sc_event.h ****     /**
  63:.\SourceFiles\rte/sc_event.h ****      * Function pointer to the output driver table
  64:.\SourceFiles\rte/sc_event.h ****      */
  65:.\SourceFiles\rte/sc_event.h ****    SC_EVENT_driverOut_t const outDriver;
  66:.\SourceFiles\rte/sc_event.h ****    
  67:.\SourceFiles\rte/sc_event.h ****     /**
  68:.\SourceFiles\rte/sc_event.h ****      * Event onUpdate
  69:.\SourceFiles\rte/sc_event.h ****      */
  70:.\SourceFiles\rte/sc_event.h ****     EventMaskType const evOnUpdate;
  71:.\SourceFiles\rte/sc_event.h ****     
  72:.\SourceFiles\rte/sc_event.h ****     
  73:.\SourceFiles\rte/sc_event.h ****     /**
  74:.\SourceFiles\rte/sc_event.h ****      * Event onError
  75:.\SourceFiles\rte/sc_event.h ****      */
  76:.\SourceFiles\rte/sc_event.h ****     EventMaskType const evOnError;
  77:.\SourceFiles\rte/sc_event.h ****     
  78:.\SourceFiles\rte/sc_event.h ****     /**
  79:.\SourceFiles\rte/sc_event.h ****      * Task Count onUpdate
  80:.\SourceFiles\rte/sc_event.h ****      */
  81:.\SourceFiles\rte/sc_event.h ****     size_t const onUpdateTaskCount;
ARM GAS  C:\Users\JASON\AppData\Local\Temp\cct5bgFA.s 			page 34


  82:.\SourceFiles\rte/sc_event.h **** 
  83:.\SourceFiles\rte/sc_event.h ****     /**
  84:.\SourceFiles\rte/sc_event.h ****      * Task List onUpdate
  85:.\SourceFiles\rte/sc_event.h ****      */
  86:.\SourceFiles\rte/sc_event.h ****     TaskTypeArray* const onUpdateTasks;
  87:.\SourceFiles\rte/sc_event.h ****     
  88:.\SourceFiles\rte/sc_event.h ****     /**
  89:.\SourceFiles\rte/sc_event.h ****      * Task Count onError
  90:.\SourceFiles\rte/sc_event.h ****      */
  91:.\SourceFiles\rte/sc_event.h ****     size_t const onErrorTaskCount;
  92:.\SourceFiles\rte/sc_event.h **** 
  93:.\SourceFiles\rte/sc_event.h ****     /**
  94:.\SourceFiles\rte/sc_event.h ****      * Task List onError
  95:.\SourceFiles\rte/sc_event.h ****      */
  96:.\SourceFiles\rte/sc_event.h ****     TaskTypeArray* const onErrorTasks;
  97:.\SourceFiles\rte/sc_event.h **** 	
  98:.\SourceFiles\rte/sc_event.h **** 	
  99:.\SourceFiles\rte/sc_event.h **** 	/**
 100:.\SourceFiles\rte/sc_event.h **** 	 * Ressourse is active? We need an additional boolean as a ressource value 0 is valid.
 101:.\SourceFiles\rte/sc_event.h **** 	 */
 102:.\SourceFiles\rte/sc_event.h **** 	 boolean_t const resourceActive;
 103:.\SourceFiles\rte/sc_event.h **** 	 
 104:.\SourceFiles\rte/sc_event.h **** 	/**
 105:.\SourceFiles\rte/sc_event.h **** 	 * Ressourse 
 106:.\SourceFiles\rte/sc_event.h **** 	 */
 107:.\SourceFiles\rte/sc_event.h **** 	 ResourceType const resource;
 108:.\SourceFiles\rte/sc_event.h **** 
 109:.\SourceFiles\rte/sc_event.h **** };                                                                                                 
 110:.\SourceFiles\rte/sc_event.h **** typedef const struct SC_EVENT_cfg_s SC_EVENT_cfg_t;
 111:.\SourceFiles\rte/sc_event.h ****                               
 112:.\SourceFiles\rte/sc_event.h **** /**************************************************************************************************
 113:.\SourceFiles\rte/sc_event.h **** /* The data interface block																							*/
 114:.\SourceFiles\rte/sc_event.h **** /**************************************************************************************************
 115:.\SourceFiles\rte/sc_event.h **** 
 116:.\SourceFiles\rte/sc_event.h ****                                                                                                    
 117:.\SourceFiles\rte/sc_event.h **** 							  
 118:.\SourceFiles\rte/sc_event.h **** /**
 119:.\SourceFiles\rte/sc_event.h ****  * Instances of the struct SC_EVENT_t represent the signal objects.
 120:.\SourceFiles\rte/sc_event.h ****  * A signal object contains the current application value 'value' as well as relevant meta data.
 121:.\SourceFiles\rte/sc_event.h ****  */
 122:.\SourceFiles\rte/sc_event.h **** struct SC_EVENT_s
 123:.\SourceFiles\rte/sc_event.h **** {                                                                                                  
 124:.\SourceFiles\rte/sc_event.h **** 
 125:.\SourceFiles\rte/sc_event.h **** 	/**
 126:.\SourceFiles\rte/sc_event.h **** 	 * Data buffer for the application value
 127:.\SourceFiles\rte/sc_event.h **** 	 */
 128:.\SourceFiles\rte/sc_event.h ****     SC_EVENT_data_t value;
 129:.\SourceFiles\rte/sc_event.h **** 
 130:.\SourceFiles\rte/sc_event.h ****     /**
 131:.\SourceFiles\rte/sc_event.h ****      * Current signal status
 132:.\SourceFiles\rte/sc_event.h ****      */
 133:.\SourceFiles\rte/sc_event.h ****     RTE_signalStatus_t status;
 134:.\SourceFiles\rte/sc_event.h **** 
 135:.\SourceFiles\rte/sc_event.h ****     /**
 136:.\SourceFiles\rte/sc_event.h ****      * Current age of the signal (in calling cycles)
 137:.\SourceFiles\rte/sc_event.h ****      */
 138:.\SourceFiles\rte/sc_event.h ****     uint32_t age;
ARM GAS  C:\Users\JASON\AppData\Local\Temp\cct5bgFA.s 			page 35


 139:.\SourceFiles\rte/sc_event.h **** 
 140:.\SourceFiles\rte/sc_event.h ****     /**
 141:.\SourceFiles\rte/sc_event.h ****      * Pointer to the signal configuration
 142:.\SourceFiles\rte/sc_event.h ****      */
 143:.\SourceFiles\rte/sc_event.h **** 	const SC_EVENT_cfg_t * const    pSigCfg;
 144:.\SourceFiles\rte/sc_event.h **** 
 145:.\SourceFiles\rte/sc_event.h **** };                                                                                                 
 146:.\SourceFiles\rte/sc_event.h **** typedef struct SC_EVENT_s SC_EVENT_t;
 147:.\SourceFiles\rte/sc_event.h **** 
 148:.\SourceFiles\rte/sc_event.h **** /**************************************************************************************************
 149:.\SourceFiles\rte/sc_event.h **** /* Signal initialisation   																							*/
 150:.\SourceFiles\rte/sc_event.h **** /**************************************************************************************************
 151:.\SourceFiles\rte/sc_event.h **** 
 152:.\SourceFiles\rte/sc_event.h **** /**
 153:.\SourceFiles\rte/sc_event.h ****  * Initializes a signal instance with a passed init value.
 154:.\SourceFiles\rte/sc_event.h ****  * Depending on the configured conversion or scaling function the raw_value will be calculated.
 155:.\SourceFiles\rte/sc_event.h ****  * Signal status will change from RTE_SIGNALSTATUS_STARTUP to RTE_SIGNALSTATUS_INITIALIZED.
 156:.\SourceFiles\rte/sc_event.h ****  *
 157:.\SourceFiles\rte/sc_event.h ****  * @param  SC_EVENT_t * const signal: Pointer to the signal object which will be initialised
 158:.\SourceFiles\rte/sc_event.h ****  * @param const sc_event_data_t * const value: Pointer to initial value of the application data
 159:.\SourceFiles\rte/sc_event.h ****  * @return RC_t: standard return code, currently only RC_SUCCESS
 160:.\SourceFiles\rte/sc_event.h ****  *
 161:.\SourceFiles\rte/sc_event.h ****  **/
 162:.\SourceFiles\rte/sc_event.h **** inline RC_t RTE_SC_EVENT_init( SC_EVENT_t * const signal, const SC_EVENT_data_t * const value )
 163:.\SourceFiles\rte/sc_event.h **** {                                                                                                  
 164:.\SourceFiles\rte/sc_event.h **** 
 165:.\SourceFiles\rte/sc_event.h ****    RC_t ret = RC_SUCCESS;
 166:.\SourceFiles\rte/sc_event.h **** 
 167:.\SourceFiles\rte/sc_event.h ****    //Set value and raw value
 168:.\SourceFiles\rte/sc_event.h ****    signal->value  = *value;
 169:.\SourceFiles\rte/sc_event.h ****    signal->age    = 0;
 170:.\SourceFiles\rte/sc_event.h ****    signal->status = RTE_SIGNALSTATUS_INITIALIZED;
 171:.\SourceFiles\rte/sc_event.h **** 
 172:.\SourceFiles\rte/sc_event.h ****    return ret;
 173:.\SourceFiles\rte/sc_event.h **** }
 174:.\SourceFiles\rte/sc_event.h **** 
 175:.\SourceFiles\rte/sc_event.h **** /**************************************************************************************************
 176:.\SourceFiles\rte/sc_event.h **** /* Status and timeout control																						*/
 177:.\SourceFiles\rte/sc_event.h **** /**************************************************************************************************
 178:.\SourceFiles\rte/sc_event.h **** 
 179:.\SourceFiles\rte/sc_event.h **** /**
 180:.\SourceFiles\rte/sc_event.h ****  *  Returns the current signal status of the passed signal instance.
 181:.\SourceFiles\rte/sc_event.h ****  *
 182:.\SourceFiles\rte/sc_event.h ****  * @param  SC_EVENT_t * const signal: Pointer to the signal object
 183:.\SourceFiles\rte/sc_event.h ****  * @return  sig_status_t: The current signal status
 184:.\SourceFiles\rte/sc_event.h ****  *
 185:.\SourceFiles\rte/sc_event.h ****  **/
 186:.\SourceFiles\rte/sc_event.h **** inline RTE_signalStatus_t RTE_SC_EVENT_getStatus( const SC_EVENT_t * const signal )
 187:.\SourceFiles\rte/sc_event.h **** {
 188:.\SourceFiles\rte/sc_event.h ****    return signal->status;
 189:.\SourceFiles\rte/sc_event.h **** }
 190:.\SourceFiles\rte/sc_event.h **** 
 191:.\SourceFiles\rte/sc_event.h **** 
 192:.\SourceFiles\rte/sc_event.h **** /**
 193:.\SourceFiles\rte/sc_event.h ****  *  Sets a new signal status of the passed signal instance by passing the new status.
 194:.\SourceFiles\rte/sc_event.h ****  *
 195:.\SourceFiles\rte/sc_event.h ****  * @param  SC_EVENT_t * const signal: Pointer to the signal object
ARM GAS  C:\Users\JASON\AppData\Local\Temp\cct5bgFA.s 			page 36


 196:.\SourceFiles\rte/sc_event.h ****  * @param  const sig_status_t status: New signal status
 197:.\SourceFiles\rte/sc_event.h ****  * @return RC_t: standard return code, currently only RC_SUCCESS
 198:.\SourceFiles\rte/sc_event.h ****  *
 199:.\SourceFiles\rte/sc_event.h ****  */
 200:.\SourceFiles\rte/sc_event.h **** inline RC_t RTE_SC_EVENT_setStatus( SC_EVENT_t * const signal, const RTE_signalStatus_t status )
 201:.\SourceFiles\rte/sc_event.h **** {
 202:.\SourceFiles\rte/sc_event.h ****    signal->status = status;
 203:.\SourceFiles\rte/sc_event.h ****    size_t taskNum=0;
 204:.\SourceFiles\rte/sc_event.h ****    
 205:.\SourceFiles\rte/sc_event.h ****    //Fire error events in case of invalid state
 206:.\SourceFiles\rte/sc_event.h ****    if (signal->status == RTE_SIGNALSTATUS_INVALID)
 207:.\SourceFiles\rte/sc_event.h ****    {
 208:.\SourceFiles\rte/sc_event.h **** 	    //Pointer to the Taskarray, containing the tasks receiving the onUpdate events
 209:.\SourceFiles\rte/sc_event.h **** 		TaskTypeArray* pTaskArray = signal->pSigCfg->onErrorTasks;
 210:.\SourceFiles\rte/sc_event.h **** 
 211:.\SourceFiles\rte/sc_event.h **** 		if (NULL!=signal->pSigCfg->evOnError && NULL != pTaskArray){
 212:.\SourceFiles\rte/sc_event.h **** 			for( taskNum=0 ; taskNum < signal->pSigCfg->onErrorTaskCount ;taskNum++){
 213:.\SourceFiles\rte/sc_event.h **** 				TaskType task = (*pTaskArray)[taskNum];
 214:.\SourceFiles\rte/sc_event.h **** 				SetEvent( task, signal->pSigCfg->evOnError);
 215:.\SourceFiles\rte/sc_event.h **** 			}
 216:.\SourceFiles\rte/sc_event.h **** 		}
 217:.\SourceFiles\rte/sc_event.h ****    }
 218:.\SourceFiles\rte/sc_event.h ****    
 219:.\SourceFiles\rte/sc_event.h ****    return RC_SUCCESS;
 220:.\SourceFiles\rte/sc_event.h **** }
 221:.\SourceFiles\rte/sc_event.h **** 
 222:.\SourceFiles\rte/sc_event.h **** 
 223:.\SourceFiles\rte/sc_event.h **** /**
 224:.\SourceFiles\rte/sc_event.h ****  * Returns the count of refreshing trials (refresh, set or set_raw) that failed.
 225:.\SourceFiles\rte/sc_event.h ****  * Prerquisite: The signal is refreshed cyclically
 226:.\SourceFiles\rte/sc_event.h ****  *
 227:.\SourceFiles\rte/sc_event.h ****  * @param  SC_EVENT_t * const signal: Pointer to the signal object
 228:.\SourceFiles\rte/sc_event.h ****  * @return uint32_t: Number of cycles since the signal has been updated for the last time
 229:.\SourceFiles\rte/sc_event.h ****  */
 230:.\SourceFiles\rte/sc_event.h **** inline uint32_t RTE_SC_EVENT_getAge( const SC_EVENT_t * const signal )
 231:.\SourceFiles\rte/sc_event.h **** {
 232:.\SourceFiles\rte/sc_event.h ****    return signal->age;
 233:.\SourceFiles\rte/sc_event.h **** }
 234:.\SourceFiles\rte/sc_event.h **** 
 235:.\SourceFiles\rte/sc_event.h **** /**
 236:.\SourceFiles\rte/sc_event.h ****  * Should be called by application or driver if no new value can be provided.
 237:.\SourceFiles\rte/sc_event.h ****  * @param  SC_EVENT_t * const signal: Pointer to the signal object
 238:.\SourceFiles\rte/sc_event.h ****  * @param uint32_t increment: incrementvalue, typically in [ms]
 239:.\SourceFiles\rte/sc_event.h ****  * @return void
 240:.\SourceFiles\rte/sc_event.h ****  */
 241:.\SourceFiles\rte/sc_event.h **** inline void RTE_SC_EVENT_incAge(  SC_EVENT_t * const signal , uint32_t increment)
 242:.\SourceFiles\rte/sc_event.h **** {
 243:.\SourceFiles\rte/sc_event.h **** 	   //Hack....
 244:.\SourceFiles\rte/sc_event.h **** 	   if ( 0xFFFF0000 > (signal->age + increment) )
 245:.\SourceFiles\rte/sc_event.h **** 	   {
 246:.\SourceFiles\rte/sc_event.h **** 	      signal->age += increment;
 247:.\SourceFiles\rte/sc_event.h **** 	   }
 248:.\SourceFiles\rte/sc_event.h **** }
 249:.\SourceFiles\rte/sc_event.h **** 
 250:.\SourceFiles\rte/sc_event.h **** 
 251:.\SourceFiles\rte/sc_event.h **** /**************************************************************************************************
 252:.\SourceFiles\rte/sc_event.h **** /* Application Data read/write Interface																			*/
ARM GAS  C:\Users\JASON\AppData\Local\Temp\cct5bgFA.s 			page 37


 253:.\SourceFiles\rte/sc_event.h **** /**************************************************************************************************
 254:.\SourceFiles\rte/sc_event.h **** 
 255:.\SourceFiles\rte/sc_event.h **** /**
 256:.\SourceFiles\rte/sc_event.h ****  * Returns the current application value of the passed signal instance.
 257:.\SourceFiles\rte/sc_event.h ****  *
 258:.\SourceFiles\rte/sc_event.h ****  * @param  SC_EVENT_t * const signal: Pointer to the signal object
 259:.\SourceFiles\rte/sc_event.h ****  * @return sc_event_data_t: current value of the application data buffer
 260:.\SourceFiles\rte/sc_event.h ****  *
 261:.\SourceFiles\rte/sc_event.h ****  **/
 262:.\SourceFiles\rte/sc_event.h **** inline SC_EVENT_data_t RTE_SC_EVENT_get( const SC_EVENT_t * const signal )
 263:.\SourceFiles\rte/sc_event.h **** {               
 264:.\SourceFiles\rte/sc_event.h ****    //Todo: Critical region cannot be protected using return values																						
 265:.\SourceFiles\rte/sc_event.h ****    return signal->value;                                                                           
 266:.\SourceFiles\rte/sc_event.h **** }                                                                                                  
 267:.\SourceFiles\rte/sc_event.h ****                                                                                                    
 268:.\SourceFiles\rte/sc_event.h **** /**
 269:.\SourceFiles\rte/sc_event.h ****  * Returns the current application value of the passed signal instance threadsafe.
 270:.\SourceFiles\rte/sc_event.h ****  *
 271:.\SourceFiles\rte/sc_event.h ****  * @param  SC_EVENT_t * const signal: Pointer to the signal object
 272:.\SourceFiles\rte/sc_event.h ****  * @param  SC_EVENT_data_t* data: Pointer to the return data Pointer to the signal object
 273:.\SourceFiles\rte/sc_event.h ****  * @return RC_SUCCESS
 274:.\SourceFiles\rte/sc_event.h ****  *
 275:.\SourceFiles\rte/sc_event.h ****  **/
 276:.\SourceFiles\rte/sc_event.h **** inline RC_t RTE_SC_EVENT_getThreadSafe( const SC_EVENT_t * const signal, SC_EVENT_data_t * const da
 277:.\SourceFiles\rte/sc_event.h **** {    
 278:.\SourceFiles\rte/sc_event.h ****    if (TRUE == signal->pSigCfg->resourceActive) GetResource(signal->pSigCfg->resource);
 279:.\SourceFiles\rte/sc_event.h ****    *data = signal->value;
 280:.\SourceFiles\rte/sc_event.h ****    if (TRUE == signal->pSigCfg->resourceActive) ReleaseResource(signal->pSigCfg->resource);        
 281:.\SourceFiles\rte/sc_event.h **** 
 282:.\SourceFiles\rte/sc_event.h ****    return RC_SUCCESS;                                                                   
 283:.\SourceFiles\rte/sc_event.h ****    
 284:.\SourceFiles\rte/sc_event.h **** }                                                                                                  
 285:.\SourceFiles\rte/sc_event.h ****                                                                                                    
 286:.\SourceFiles\rte/sc_event.h **** /**
 287:.\SourceFiles\rte/sc_event.h ****  * Sets a new application value to the passed signal instance by passing the new value.
 288:.\SourceFiles\rte/sc_event.h ****  * The corresponding driver raw value will be calculated immediately by using the default conversio
 289:.\SourceFiles\rte/sc_event.h ****  * signal specific scaling function.
 290:.\SourceFiles\rte/sc_event.h ****  * The signal age will be set to 0 and the new status will be 'RTE_SIGNALSTATUS_VALID'.
 291:.\SourceFiles\rte/sc_event.h ****  *
 292:.\SourceFiles\rte/sc_event.h ****  * @param  SC_EVENT_t * const signal: Pointer to the signal object
 293:.\SourceFiles\rte/sc_event.h ****  * @param  sc_event_data_t const value: value for the application data buffer
 294:.\SourceFiles\rte/sc_event.h ****  * @return RC_t: standard return code, currently only RC_SUCCESS
 295:.\SourceFiles\rte/sc_event.h ****  *
 296:.\SourceFiles\rte/sc_event.h ****  **/
 297:.\SourceFiles\rte/sc_event.h **** inline RC_t RTE_SC_EVENT_set(SC_EVENT_t * const signal, const SC_EVENT_data_t value  )
 298:.\SourceFiles\rte/sc_event.h **** {
 299:.\SourceFiles\rte/sc_event.h **** 
 300:.\SourceFiles\rte/sc_event.h ****    RC_t ret = RC_SUCCESS;
 301:.\SourceFiles\rte/sc_event.h ****    size_t taskNum=0;
 302:.\SourceFiles\rte/sc_event.h **** 
 303:.\SourceFiles\rte/sc_event.h **** 
 304:.\SourceFiles\rte/sc_event.h ****    if (TRUE == signal->pSigCfg->resourceActive) GetResource(signal->pSigCfg->resource);
 797              		.loc 3 304 0
 798 0008 174B     		ldr	r3, .L73+4
 799 000a 9B68     		ldr	r3, [r3, #8]
 800 000c 93F82020 		ldrb	r2, [r3, #32]	@ zero_extendqisi2
 801 0010 012A     		cmp	r2, #1
ARM GAS  C:\Users\JASON\AppData\Local\Temp\cct5bgFA.s 			page 38


 802 0012 02D1     		bne	.L66
 803 0014 586A     		ldr	r0, [r3, #36]
 804 0016 FFF7FEFF 		bl	EE_oo_GetResource
 805              	.LVL57:
 806              	.L66:
 305:.\SourceFiles\rte/sc_event.h ****    signal->value  = value;
 807              		.loc 3 305 0
 808 001a 134B     		ldr	r3, .L73+4
 809 001c 0622     		movs	r2, #6
 810 001e 1A70     		strb	r2, [r3]
 306:.\SourceFiles\rte/sc_event.h ****    signal->age    = 0;
 811              		.loc 3 306 0
 812 0020 0022     		movs	r2, #0
 813 0022 5A60     		str	r2, [r3, #4]
 307:.\SourceFiles\rte/sc_event.h ****    signal->status = RTE_SIGNALSTATUS_VALID;
 814              		.loc 3 307 0
 815 0024 0222     		movs	r2, #2
 816 0026 5A70     		strb	r2, [r3, #1]
 308:.\SourceFiles\rte/sc_event.h ****    if (TRUE == signal->pSigCfg->resourceActive) ReleaseResource(signal->pSigCfg->resource);
 817              		.loc 3 308 0
 818 0028 9B68     		ldr	r3, [r3, #8]
 819 002a 93F82020 		ldrb	r2, [r3, #32]	@ zero_extendqisi2
 820 002e 012A     		cmp	r2, #1
 821 0030 02D1     		bne	.L67
 822 0032 586A     		ldr	r0, [r3, #36]
 823 0034 FFF7FEFF 		bl	EE_oo_ReleaseResource
 824              	.LVL58:
 825              	.L67:
 309:.\SourceFiles\rte/sc_event.h **** 
 310:.\SourceFiles\rte/sc_event.h ****    //Pointer to the Taskarray, containing the tasks receiving the onUpdate events
 311:.\SourceFiles\rte/sc_event.h ****    TaskTypeArray* pTaskArray = signal->pSigCfg->onUpdateTasks;
 826              		.loc 3 311 0
 827 0038 0B4B     		ldr	r3, .L73+4
 828 003a 9B68     		ldr	r3, [r3, #8]
 829 003c 5D69     		ldr	r5, [r3, #20]
 830              	.LVL59:
 312:.\SourceFiles\rte/sc_event.h **** 
 313:.\SourceFiles\rte/sc_event.h ****    if (NULL!=signal->pSigCfg->evOnUpdate && NULL != pTaskArray){
 831              		.loc 3 313 0
 832 003e 9B68     		ldr	r3, [r3, #8]
 833 0040 73B1     		cbz	r3, .L65
 834 0042 3DB9     		cbnz	r5, .L71
 835 0044 38BD     		pop	{r3, r4, r5, pc}
 836              	.LVL60:
 837              	.L70:
 838              	.LBB89:
 314:.\SourceFiles\rte/sc_event.h ****       for( taskNum=0 ; taskNum < signal->pSigCfg->onUpdateTaskCount ;taskNum++){
 315:.\SourceFiles\rte/sc_event.h **** 		  
 316:.\SourceFiles\rte/sc_event.h ****           TaskType task = (*pTaskArray)[taskNum];
 317:.\SourceFiles\rte/sc_event.h **** 	      SetEvent( task, signal->pSigCfg->evOnUpdate);
 839              		.loc 3 317 0
 840 0046 9968     		ldr	r1, [r3, #8]
 841 0048 55F82400 		ldr	r0, [r5, r4, lsl #2]
 842 004c FFF7FEFF 		bl	EE_oo_SetEvent
 843              	.LVL61:
 844              	.LBE89:
 314:.\SourceFiles\rte/sc_event.h ****       for( taskNum=0 ; taskNum < signal->pSigCfg->onUpdateTaskCount ;taskNum++){
ARM GAS  C:\Users\JASON\AppData\Local\Temp\cct5bgFA.s 			page 39


 845              		.loc 3 314 0
 846 0050 0134     		adds	r4, r4, #1
 847              	.LVL62:
 848 0052 00E0     		b	.L69
 849              	.LVL63:
 850              	.L71:
 313:.\SourceFiles\rte/sc_event.h ****       for( taskNum=0 ; taskNum < signal->pSigCfg->onUpdateTaskCount ;taskNum++){
 851              		.loc 3 313 0
 852 0054 0024     		movs	r4, #0
 853              	.LVL64:
 854              	.L69:
 314:.\SourceFiles\rte/sc_event.h ****       for( taskNum=0 ; taskNum < signal->pSigCfg->onUpdateTaskCount ;taskNum++){
 855              		.loc 3 314 0
 856 0056 044B     		ldr	r3, .L73+4
 857 0058 9B68     		ldr	r3, [r3, #8]
 858 005a 1A69     		ldr	r2, [r3, #16]
 859 005c 9442     		cmp	r4, r2
 860 005e F2D3     		bcc	.L70
 861              	.LVL65:
 862              	.L65:
 863 0060 38BD     		pop	{r3, r4, r5, pc}
 864              	.LVL66:
 865              	.L74:
 866 0062 00BF     		.align	2
 867              	.L73:
 868 0064 CC000000 		.word	.LC7
 869 0068 00000000 		.word	SO_EVENT_signal
 870              	.LBE88:
 871              	.LBE87:
 872              		.cfi_endproc
 873              	.LFE151:
 874              		.size	CLOCK__errorHandler, .-CLOCK__errorHandler
 875              		.section	.text.CLOCK__incrementWidget,"ax",%progbits
 876              		.align	2
 877              		.thumb
 878              		.thumb_func
 879              		.type	CLOCK__incrementWidget, %function
 880              	CLOCK__incrementWidget:
 881              	.LFB148:
 582:SourceFiles\asw/swc_clock_control.c ****     UART_LOG_PutString("CLOCK__incrementWidget\n");
 882              		.loc 1 582 0
 883              		.cfi_startproc
 884              		@ args = 0, pretend = 0, frame = 112
 885              		@ frame_needed = 0, uses_anonymous_args = 0
 886 0000 70B5     		push	{r4, r5, r6, lr}
 887              		.cfi_def_cfa_offset 16
 888              		.cfi_offset 4, -16
 889              		.cfi_offset 5, -12
 890              		.cfi_offset 6, -8
 891              		.cfi_offset 14, -4
 892 0002 9CB0     		sub	sp, sp, #112
 893              		.cfi_def_cfa_offset 128
 583:SourceFiles\asw/swc_clock_control.c ****     
 894              		.loc 1 583 0
 895 0004 3F48     		ldr	r0, .L85
 896 0006 FFF7FEFF 		bl	UART_LOG_PutString
 897              	.LVL67:
ARM GAS  C:\Users\JASON\AppData\Local\Temp\cct5bgFA.s 			page 40


 898              	.LBB90:
 899              	.LBB91:
 265:.\SourceFiles\rte/sc_clock.h **** }                                                                                                  
 900              		.loc 2 265 0
 901 000a 0EAC     		add	r4, sp, #56
 902 000c 3E4D     		ldr	r5, .L85+4
 903 000e 0FCD     		ldmia	r5!, {r0, r1, r2, r3}
 904 0010 0FC4     		stmia	r4!, {r0, r1, r2, r3}
 905 0012 0FCD     		ldmia	r5!, {r0, r1, r2, r3}
 906 0014 0FC4     		stmia	r4!, {r0, r1, r2, r3}
 907 0016 0FCD     		ldmia	r5!, {r0, r1, r2, r3}
 908 0018 0FC4     		stmia	r4!, {r0, r1, r2, r3}
 909 001a 95E80300 		ldmia	r5, {r0, r1}
 910 001e 84E80300 		stmia	r4, {r0, r1}
 911              	.LVL68:
 912              	.LBE91:
 913              	.LBE90:
 588:SourceFiles\asw/swc_clock_control.c ****     
 914              		.loc 1 588 0
 915 0022 9DF84830 		ldrb	r3, [sp, #72]	@ zero_extendqisi2
 916              	.LVL69:
 591:SourceFiles\asw/swc_clock_control.c ****     {
 917              		.loc 1 591 0
 918 0026 043B     		subs	r3, r3, #4
 919              	.LVL70:
 920 0028 DBB2     		uxtb	r3, r3
 921              	.LVL71:
 922 002a 012B     		cmp	r3, #1
 923 002c 0ED8     		bhi	.L76
 593:SourceFiles\asw/swc_clock_control.c ****     }
 924              		.loc 1 593 0
 925 002e BDF85420 		ldrh	r2, [sp, #84]
 926 0032 0132     		adds	r2, r2, #1
 927 0034 354B     		ldr	r3, .L85+8
 928 0036 83FB0231 		smull	r3, r1, r3, r2
 929 003a D317     		asrs	r3, r2, #31
 930 003c C3EBA103 		rsb	r3, r3, r1, asr #2
 931 0040 03EB4303 		add	r3, r3, r3, lsl #1
 932 0044 D900     		lsls	r1, r3, #3
 933 0046 531A     		subs	r3, r2, r1
 934 0048 ADF85430 		strh	r3, [sp, #84]	@ movhi
 935              	.L76:
 596:SourceFiles\asw/swc_clock_control.c ****     
 936              		.loc 1 596 0
 937 004c 9DF85C30 		ldrb	r3, [sp, #92]	@ zero_extendqisi2
 938              	.LVL72:
 599:SourceFiles\asw/swc_clock_control.c ****     {
 939              		.loc 1 599 0
 940 0050 043B     		subs	r3, r3, #4
 941              	.LVL73:
 942 0052 DBB2     		uxtb	r3, r3
 943              	.LVL74:
 944 0054 012B     		cmp	r3, #1
 945 0056 0FD8     		bhi	.L77
 601:SourceFiles\asw/swc_clock_control.c ****     }
 946              		.loc 1 601 0
 947 0058 BDF86820 		ldrh	r2, [sp, #104]
ARM GAS  C:\Users\JASON\AppData\Local\Temp\cct5bgFA.s 			page 41


 948 005c 0132     		adds	r2, r2, #1
 949 005e 2C48     		ldr	r0, .L85+12
 950 0060 82FB0001 		smull	r0, r1, r2, r0
 951 0064 1144     		add	r1, r1, r2
 952 0066 D317     		asrs	r3, r2, #31
 953 0068 C3EB6113 		rsb	r3, r3, r1, asr #5
 954 006c C3EB0313 		rsb	r3, r3, r3, lsl #4
 955 0070 9900     		lsls	r1, r3, #2
 956 0072 531A     		subs	r3, r2, r1
 957 0074 ADF86830 		strh	r3, [sp, #104]	@ movhi
 958              	.L77:
 959              	.LVL75:
 960 0078 6C46     		mov	r4, sp
 961 007a 0EAD     		add	r5, sp, #56
 962 007c 0FCD     		ldmia	r5!, {r0, r1, r2, r3}
 963 007e 0FC4     		stmia	r4!, {r0, r1, r2, r3}
 964 0080 0FCD     		ldmia	r5!, {r0, r1, r2, r3}
 965 0082 0FC4     		stmia	r4!, {r0, r1, r2, r3}
 966 0084 0FCD     		ldmia	r5!, {r0, r1, r2, r3}
 967 0086 0FC4     		stmia	r4!, {r0, r1, r2, r3}
 968 0088 95E80300 		ldmia	r5, {r0, r1}
 969 008c 84E80300 		stmia	r4, {r0, r1}
 970              	.LVL76:
 971              	.LBB92:
 972              	.LBB93:
 304:.\SourceFiles\rte/sc_clock.h ****    signal->value  = value;
 973              		.loc 2 304 0
 974 0090 1D4B     		ldr	r3, .L85+4
 975 0092 1B6C     		ldr	r3, [r3, #64]
 976 0094 93F82020 		ldrb	r2, [r3, #32]	@ zero_extendqisi2
 977 0098 012A     		cmp	r2, #1
 978 009a 02D1     		bne	.L78
 979 009c 586A     		ldr	r0, [r3, #36]
 980 009e FFF7FEFF 		bl	EE_oo_GetResource
 981              	.LVL77:
 982              	.L78:
 305:.\SourceFiles\rte/sc_clock.h ****    signal->age    = 0;
 983              		.loc 2 305 0
 984 00a2 194E     		ldr	r6, .L85+4
 985 00a4 3446     		mov	r4, r6
 986 00a6 6D46     		mov	r5, sp
 987 00a8 0FCD     		ldmia	r5!, {r0, r1, r2, r3}
 988 00aa 0FC4     		stmia	r4!, {r0, r1, r2, r3}
 989 00ac 0FCD     		ldmia	r5!, {r0, r1, r2, r3}
 990 00ae 0FC4     		stmia	r4!, {r0, r1, r2, r3}
 991 00b0 0FCD     		ldmia	r5!, {r0, r1, r2, r3}
 992 00b2 0FC4     		stmia	r4!, {r0, r1, r2, r3}
 993 00b4 95E80300 		ldmia	r5, {r0, r1}
 994 00b8 84E80300 		stmia	r4, {r0, r1}
 306:.\SourceFiles\rte/sc_clock.h ****    signal->status = RTE_SIGNALSTATUS_VALID;
 995              		.loc 2 306 0
 996 00bc 0023     		movs	r3, #0
 997 00be F363     		str	r3, [r6, #60]
 307:.\SourceFiles\rte/sc_clock.h ****    if (TRUE == signal->pSigCfg->resourceActive) ReleaseResource(signal->pSigCfg->resource);
 998              		.loc 2 307 0
 999 00c0 0223     		movs	r3, #2
 1000 00c2 86F83830 		strb	r3, [r6, #56]
ARM GAS  C:\Users\JASON\AppData\Local\Temp\cct5bgFA.s 			page 42


 308:.\SourceFiles\rte/sc_clock.h **** 
 1001              		.loc 2 308 0
 1002 00c6 336C     		ldr	r3, [r6, #64]
 1003 00c8 93F82020 		ldrb	r2, [r3, #32]	@ zero_extendqisi2
 1004 00cc 012A     		cmp	r2, #1
 1005 00ce 02D1     		bne	.L79
 1006 00d0 586A     		ldr	r0, [r3, #36]
 1007 00d2 FFF7FEFF 		bl	EE_oo_ReleaseResource
 1008              	.LVL78:
 1009              	.L79:
 311:.\SourceFiles\rte/sc_clock.h **** 
 1010              		.loc 2 311 0
 1011 00d6 0C4B     		ldr	r3, .L85+4
 1012 00d8 1B6C     		ldr	r3, [r3, #64]
 1013 00da 5D69     		ldr	r5, [r3, #20]
 1014              	.LVL79:
 313:.\SourceFiles\rte/sc_clock.h ****       for( taskNum=0 ; taskNum < signal->pSigCfg->onUpdateTaskCount ;taskNum++){
 1015              		.loc 2 313 0
 1016 00dc 9B68     		ldr	r3, [r3, #8]
 1017 00de 73B1     		cbz	r3, .L75
 1018 00e0 3DB9     		cbnz	r5, .L83
 1019 00e2 0CE0     		b	.L75
 1020              	.LVL80:
 1021              	.L82:
 1022              	.LBB94:
 1023              		.loc 2 317 0
 1024 00e4 9968     		ldr	r1, [r3, #8]
 1025 00e6 55F82400 		ldr	r0, [r5, r4, lsl #2]
 1026 00ea FFF7FEFF 		bl	EE_oo_SetEvent
 1027              	.LVL81:
 1028              	.LBE94:
 314:.\SourceFiles\rte/sc_clock.h **** 		  
 1029              		.loc 2 314 0
 1030 00ee 0134     		adds	r4, r4, #1
 1031              	.LVL82:
 1032 00f0 00E0     		b	.L81
 1033              	.LVL83:
 1034              	.L83:
 313:.\SourceFiles\rte/sc_clock.h ****       for( taskNum=0 ; taskNum < signal->pSigCfg->onUpdateTaskCount ;taskNum++){
 1035              		.loc 2 313 0
 1036 00f2 0024     		movs	r4, #0
 1037              	.LVL84:
 1038              	.L81:
 314:.\SourceFiles\rte/sc_clock.h **** 		  
 1039              		.loc 2 314 0
 1040 00f4 044B     		ldr	r3, .L85+4
 1041 00f6 1B6C     		ldr	r3, [r3, #64]
 1042 00f8 1A69     		ldr	r2, [r3, #16]
 1043 00fa 9442     		cmp	r4, r2
 1044 00fc F2D3     		bcc	.L82
 1045              	.LVL85:
 1046              	.L75:
 1047              	.LBE93:
 1048              	.LBE92:
 606:SourceFiles\asw/swc_clock_control.c **** /**
 1049              		.loc 1 606 0
 1050 00fe 1CB0     		add	sp, sp, #112
ARM GAS  C:\Users\JASON\AppData\Local\Temp\cct5bgFA.s 			page 43


 1051              		.cfi_def_cfa_offset 16
 1052              		@ sp needed
 1053 0100 70BD     		pop	{r4, r5, r6, pc}
 1054              	.LVL86:
 1055              	.L86:
 1056 0102 00BF     		.align	2
 1057              	.L85:
 1058 0104 E4000000 		.word	.LC8
 1059 0108 00000000 		.word	SO_CLOCK_signal
 1060 010c ABAAAA2A 		.word	715827883
 1061 0110 89888888 		.word	-2004318071
 1062              		.cfi_endproc
 1063              	.LFE148:
 1064              		.size	CLOCK__incrementWidget, .-CLOCK__incrementWidget
 1065              		.section	.text.CLOCK__setDisplayFonts,"ax",%progbits
 1066              		.align	2
 1067              		.thumb
 1068              		.thumb_func
 1069              		.type	CLOCK__setDisplayFonts, %function
 1070              	CLOCK__setDisplayFonts:
 1071              	.LFB147:
 560:SourceFiles\asw/swc_clock_control.c ****     UART_LOG_PutString("CLOCK__setDisplayFonts\n");
 1072              		.loc 1 560 0
 1073              		.cfi_startproc
 1074              		@ args = 0, pretend = 0, frame = 120
 1075              		@ frame_needed = 0, uses_anonymous_args = 0
 1076 0000 70B5     		push	{r4, r5, r6, lr}
 1077              		.cfi_def_cfa_offset 16
 1078              		.cfi_offset 4, -16
 1079              		.cfi_offset 5, -12
 1080              		.cfi_offset 6, -8
 1081              		.cfi_offset 14, -4
 1082 0002 9EB0     		sub	sp, sp, #120
 1083              		.cfi_def_cfa_offset 136
 561:SourceFiles\asw/swc_clock_control.c ****     
 1084              		.loc 1 561 0
 1085 0004 2F48     		ldr	r0, .L95
 1086 0006 FFF7FEFF 		bl	UART_LOG_PutString
 1087              	.LVL87:
 1088              	.LBB95:
 1089              	.LBB96:
 265:.\SourceFiles\rte/sc_clock.h **** }                                                                                                  
 1090              		.loc 2 265 0
 1091 000a 2F4E     		ldr	r6, .L95+4
 1092 000c 10AC     		add	r4, sp, #64
 1093 000e 3546     		mov	r5, r6
 1094 0010 0FCD     		ldmia	r5!, {r0, r1, r2, r3}
 1095 0012 0FC4     		stmia	r4!, {r0, r1, r2, r3}
 1096 0014 0FCD     		ldmia	r5!, {r0, r1, r2, r3}
 1097 0016 0FC4     		stmia	r4!, {r0, r1, r2, r3}
 1098 0018 0FCD     		ldmia	r5!, {r0, r1, r2, r3}
 1099 001a 0FC4     		stmia	r4!, {r0, r1, r2, r3}
 1100 001c 95E80300 		ldmia	r5, {r0, r1}
 1101 0020 84E80300 		stmia	r4, {r0, r1}
 1102              	.LVL88:
 1103              	.LBE96:
 1104              	.LBE95:
ARM GAS  C:\Users\JASON\AppData\Local\Temp\cct5bgFA.s 			page 44


 568:SourceFiles\asw/swc_clock_control.c ****     font.background = BLACK;
 1105              		.loc 1 568 0
 1106 0024 4FF6FF73 		movw	r3, #65535
 1107 0028 ADF83C30 		strh	r3, [sp, #60]	@ movhi
 569:SourceFiles\asw/swc_clock_control.c ****         
 1108              		.loc 1 569 0
 1109 002c 0023     		movs	r3, #0
 1110 002e ADF83E30 		strh	r3, [sp, #62]	@ movhi
 571:SourceFiles\asw/swc_clock_control.c ****     clock.m_minutes.m_font  = font;
 1111              		.loc 1 571 0
 1112 0032 0F98     		ldr	r0, [sp, #60]	@ unaligned
 1113 0034 CDF85E00 		str	r0, [sp, #94]	@ unaligned
 572:SourceFiles\asw/swc_clock_control.c ****         
 1114              		.loc 1 572 0
 1115 0038 CDF87200 		str	r0, [sp, #114]	@ unaligned
 1116              	.LVL89:
 1117 003c 01AC     		add	r4, sp, #4
 1118 003e 10AD     		add	r5, sp, #64
 1119 0040 0FCD     		ldmia	r5!, {r0, r1, r2, r3}
 1120 0042 0FC4     		stmia	r4!, {r0, r1, r2, r3}
 1121 0044 0FCD     		ldmia	r5!, {r0, r1, r2, r3}
 1122 0046 0FC4     		stmia	r4!, {r0, r1, r2, r3}
 1123 0048 0FCD     		ldmia	r5!, {r0, r1, r2, r3}
 1124 004a 0FC4     		stmia	r4!, {r0, r1, r2, r3}
 1125 004c 95E80300 		ldmia	r5, {r0, r1}
 1126 0050 84E80300 		stmia	r4, {r0, r1}
 1127              	.LVL90:
 1128              	.LBB97:
 1129              	.LBB98:
 304:.\SourceFiles\rte/sc_clock.h ****    signal->value  = value;
 1130              		.loc 2 304 0
 1131 0054 336C     		ldr	r3, [r6, #64]
 1132 0056 93F82020 		ldrb	r2, [r3, #32]	@ zero_extendqisi2
 1133 005a 012A     		cmp	r2, #1
 1134 005c 02D1     		bne	.L88
 1135 005e 586A     		ldr	r0, [r3, #36]
 1136 0060 FFF7FEFF 		bl	EE_oo_GetResource
 1137              	.LVL91:
 1138              	.L88:
 305:.\SourceFiles\rte/sc_clock.h ****    signal->age    = 0;
 1139              		.loc 2 305 0
 1140 0064 184E     		ldr	r6, .L95+4
 1141 0066 3446     		mov	r4, r6
 1142 0068 01AD     		add	r5, sp, #4
 1143 006a 0FCD     		ldmia	r5!, {r0, r1, r2, r3}
 1144 006c 0FC4     		stmia	r4!, {r0, r1, r2, r3}
 1145 006e 0FCD     		ldmia	r5!, {r0, r1, r2, r3}
 1146 0070 0FC4     		stmia	r4!, {r0, r1, r2, r3}
 1147 0072 0FCD     		ldmia	r5!, {r0, r1, r2, r3}
 1148 0074 0FC4     		stmia	r4!, {r0, r1, r2, r3}
 1149 0076 95E80300 		ldmia	r5, {r0, r1}
 1150 007a 84E80300 		stmia	r4, {r0, r1}
 306:.\SourceFiles\rte/sc_clock.h ****    signal->status = RTE_SIGNALSTATUS_VALID;
 1151              		.loc 2 306 0
 1152 007e 0023     		movs	r3, #0
 1153 0080 F363     		str	r3, [r6, #60]
 307:.\SourceFiles\rte/sc_clock.h ****    if (TRUE == signal->pSigCfg->resourceActive) ReleaseResource(signal->pSigCfg->resource);
ARM GAS  C:\Users\JASON\AppData\Local\Temp\cct5bgFA.s 			page 45


 1154              		.loc 2 307 0
 1155 0082 0223     		movs	r3, #2
 1156 0084 86F83830 		strb	r3, [r6, #56]
 308:.\SourceFiles\rte/sc_clock.h **** 
 1157              		.loc 2 308 0
 1158 0088 336C     		ldr	r3, [r6, #64]
 1159 008a 93F82020 		ldrb	r2, [r3, #32]	@ zero_extendqisi2
 1160 008e 012A     		cmp	r2, #1
 1161 0090 02D1     		bne	.L89
 1162 0092 586A     		ldr	r0, [r3, #36]
 1163 0094 FFF7FEFF 		bl	EE_oo_ReleaseResource
 1164              	.LVL92:
 1165              	.L89:
 311:.\SourceFiles\rte/sc_clock.h **** 
 1166              		.loc 2 311 0
 1167 0098 0B4B     		ldr	r3, .L95+4
 1168 009a 1B6C     		ldr	r3, [r3, #64]
 1169 009c 5D69     		ldr	r5, [r3, #20]
 1170              	.LVL93:
 313:.\SourceFiles\rte/sc_clock.h ****       for( taskNum=0 ; taskNum < signal->pSigCfg->onUpdateTaskCount ;taskNum++){
 1171              		.loc 2 313 0
 1172 009e 9B68     		ldr	r3, [r3, #8]
 1173 00a0 73B1     		cbz	r3, .L87
 1174 00a2 3DB9     		cbnz	r5, .L93
 1175 00a4 0CE0     		b	.L87
 1176              	.LVL94:
 1177              	.L92:
 1178              	.LBB99:
 1179              		.loc 2 317 0
 1180 00a6 9968     		ldr	r1, [r3, #8]
 1181 00a8 55F82400 		ldr	r0, [r5, r4, lsl #2]
 1182 00ac FFF7FEFF 		bl	EE_oo_SetEvent
 1183              	.LVL95:
 1184              	.LBE99:
 314:.\SourceFiles\rte/sc_clock.h **** 		  
 1185              		.loc 2 314 0
 1186 00b0 0134     		adds	r4, r4, #1
 1187              	.LVL96:
 1188 00b2 00E0     		b	.L91
 1189              	.LVL97:
 1190              	.L93:
 313:.\SourceFiles\rte/sc_clock.h ****       for( taskNum=0 ; taskNum < signal->pSigCfg->onUpdateTaskCount ;taskNum++){
 1191              		.loc 2 313 0
 1192 00b4 0024     		movs	r4, #0
 1193              	.LVL98:
 1194              	.L91:
 314:.\SourceFiles\rte/sc_clock.h **** 		  
 1195              		.loc 2 314 0
 1196 00b6 044B     		ldr	r3, .L95+4
 1197 00b8 1B6C     		ldr	r3, [r3, #64]
 1198 00ba 1A69     		ldr	r2, [r3, #16]
 1199 00bc 9442     		cmp	r4, r2
 1200 00be F2D3     		bcc	.L92
 1201              	.LVL99:
 1202              	.L87:
 1203              	.LBE98:
 1204              	.LBE97:
ARM GAS  C:\Users\JASON\AppData\Local\Temp\cct5bgFA.s 			page 46


 576:SourceFiles\asw/swc_clock_control.c **** /**
 1205              		.loc 1 576 0
 1206 00c0 1EB0     		add	sp, sp, #120
 1207              		.cfi_def_cfa_offset 16
 1208              		@ sp needed
 1209 00c2 70BD     		pop	{r4, r5, r6, pc}
 1210              	.LVL100:
 1211              	.L96:
 1212              		.align	2
 1213              	.L95:
 1214 00c4 FC000000 		.word	.LC9
 1215 00c8 00000000 		.word	SO_CLOCK_signal
 1216              		.cfi_endproc
 1217              	.LFE147:
 1218              		.size	CLOCK__setDisplayFonts, .-CLOCK__setDisplayFonts
 1219              		.section	.text.CLOCK__setEditFonts,"ax",%progbits
 1220              		.align	2
 1221              		.thumb
 1222              		.thumb_func
 1223              		.type	CLOCK__setEditFonts, %function
 1224              	CLOCK__setEditFonts:
 1225              	.LFB146:
 525:SourceFiles\asw/swc_clock_control.c ****     UART_LOG_PutString("CLOCK__setEditFonts\n");
 1226              		.loc 1 525 0
 1227              		.cfi_startproc
 1228              		@ args = 0, pretend = 0, frame = 120
 1229              		@ frame_needed = 0, uses_anonymous_args = 0
 1230 0000 70B5     		push	{r4, r5, r6, lr}
 1231              		.cfi_def_cfa_offset 16
 1232              		.cfi_offset 4, -16
 1233              		.cfi_offset 5, -12
 1234              		.cfi_offset 6, -8
 1235              		.cfi_offset 14, -4
 1236 0002 9EB0     		sub	sp, sp, #120
 1237              		.cfi_def_cfa_offset 136
 526:SourceFiles\asw/swc_clock_control.c ****     
 1238              		.loc 1 526 0
 1239 0004 3848     		ldr	r0, .L107
 1240 0006 FFF7FEFF 		bl	UART_LOG_PutString
 1241              	.LVL101:
 1242              	.LBB100:
 1243              	.LBB101:
 265:.\SourceFiles\rte/sc_clock.h **** }                                                                                                  
 1244              		.loc 2 265 0
 1245 000a 10AC     		add	r4, sp, #64
 1246 000c 374D     		ldr	r5, .L107+4
 1247 000e 0FCD     		ldmia	r5!, {r0, r1, r2, r3}
 1248 0010 0FC4     		stmia	r4!, {r0, r1, r2, r3}
 1249 0012 0FCD     		ldmia	r5!, {r0, r1, r2, r3}
 1250 0014 0FC4     		stmia	r4!, {r0, r1, r2, r3}
 1251 0016 0FCD     		ldmia	r5!, {r0, r1, r2, r3}
 1252 0018 0FC4     		stmia	r4!, {r0, r1, r2, r3}
 1253 001a 95E80300 		ldmia	r5, {r0, r1}
 1254 001e 84E80300 		stmia	r4, {r0, r1}
 1255              	.LVL102:
 1256              	.LBE101:
 1257              	.LBE100:
ARM GAS  C:\Users\JASON\AppData\Local\Temp\cct5bgFA.s 			page 47


 534:SourceFiles\asw/swc_clock_control.c ****     activeFont.background   = WHITE;
 1258              		.loc 1 534 0
 1259 0022 0023     		movs	r3, #0
 1260 0024 ADF83C30 		strh	r3, [sp, #60]	@ movhi
 535:SourceFiles\asw/swc_clock_control.c ****     
 1261              		.loc 1 535 0
 1262 0028 4FF6FF72 		movw	r2, #65535
 1263 002c ADF83E20 		strh	r2, [sp, #62]	@ movhi
 537:SourceFiles\asw/swc_clock_control.c ****     inactiveFont.background = BLACK;
 1264              		.loc 1 537 0
 1265 0030 ADF83820 		strh	r2, [sp, #56]	@ movhi
 538:SourceFiles\asw/swc_clock_control.c ****         
 1266              		.loc 1 538 0
 1267 0034 ADF83A30 		strh	r3, [sp, #58]	@ movhi
 540:SourceFiles\asw/swc_clock_control.c ****     {
 1268              		.loc 1 540 0
 1269 0038 9DF84C30 		ldrb	r3, [sp, #76]	@ zero_extendqisi2
 1270 003c 012B     		cmp	r3, #1
 1271 003e 05D1     		bne	.L98
 542:SourceFiles\asw/swc_clock_control.c ****         clock.m_minutes.m_font      = inactiveFont;
 1272              		.loc 1 542 0
 1273 0040 0F98     		ldr	r0, [sp, #60]	@ unaligned
 1274 0042 CDF85E00 		str	r0, [sp, #94]	@ unaligned
 543:SourceFiles\asw/swc_clock_control.c ****     }
 1275              		.loc 1 543 0
 1276 0046 0E98     		ldr	r0, [sp, #56]	@ unaligned
 1277 0048 CDF87200 		str	r0, [sp, #114]	@ unaligned
 1278              	.L98:
 546:SourceFiles\asw/swc_clock_control.c ****     {
 1279              		.loc 1 546 0
 1280 004c 022B     		cmp	r3, #2
 1281 004e 05D1     		bne	.L99
 548:SourceFiles\asw/swc_clock_control.c ****         clock.m_minutes.m_font      = activeFont;
 1282              		.loc 1 548 0
 1283 0050 0E98     		ldr	r0, [sp, #56]	@ unaligned
 1284 0052 CDF85E00 		str	r0, [sp, #94]	@ unaligned
 549:SourceFiles\asw/swc_clock_control.c ****     }
 1285              		.loc 1 549 0
 1286 0056 0F98     		ldr	r0, [sp, #60]	@ unaligned
 1287 0058 CDF87200 		str	r0, [sp, #114]	@ unaligned
 1288              	.L99:
 1289              	.LVL103:
 1290 005c 6C46     		mov	r4, sp
 1291 005e 10AD     		add	r5, sp, #64
 1292 0060 0FCD     		ldmia	r5!, {r0, r1, r2, r3}
 1293 0062 0FC4     		stmia	r4!, {r0, r1, r2, r3}
 1294 0064 0FCD     		ldmia	r5!, {r0, r1, r2, r3}
 1295 0066 0FC4     		stmia	r4!, {r0, r1, r2, r3}
 1296 0068 0FCD     		ldmia	r5!, {r0, r1, r2, r3}
 1297 006a 0FC4     		stmia	r4!, {r0, r1, r2, r3}
 1298 006c 95E80300 		ldmia	r5, {r0, r1}
 1299 0070 84E80300 		stmia	r4, {r0, r1}
 1300              	.LVL104:
 1301              	.LBB102:
 1302              	.LBB103:
 304:.\SourceFiles\rte/sc_clock.h ****    signal->value  = value;
 1303              		.loc 2 304 0
ARM GAS  C:\Users\JASON\AppData\Local\Temp\cct5bgFA.s 			page 48


 1304 0074 1D4B     		ldr	r3, .L107+4
 1305 0076 1B6C     		ldr	r3, [r3, #64]
 1306 0078 93F82020 		ldrb	r2, [r3, #32]	@ zero_extendqisi2
 1307 007c 012A     		cmp	r2, #1
 1308 007e 02D1     		bne	.L100
 1309 0080 586A     		ldr	r0, [r3, #36]
 1310 0082 FFF7FEFF 		bl	EE_oo_GetResource
 1311              	.LVL105:
 1312              	.L100:
 305:.\SourceFiles\rte/sc_clock.h ****    signal->age    = 0;
 1313              		.loc 2 305 0
 1314 0086 194E     		ldr	r6, .L107+4
 1315 0088 3446     		mov	r4, r6
 1316 008a 6D46     		mov	r5, sp
 1317 008c 0FCD     		ldmia	r5!, {r0, r1, r2, r3}
 1318 008e 0FC4     		stmia	r4!, {r0, r1, r2, r3}
 1319 0090 0FCD     		ldmia	r5!, {r0, r1, r2, r3}
 1320 0092 0FC4     		stmia	r4!, {r0, r1, r2, r3}
 1321 0094 0FCD     		ldmia	r5!, {r0, r1, r2, r3}
 1322 0096 0FC4     		stmia	r4!, {r0, r1, r2, r3}
 1323 0098 95E80300 		ldmia	r5, {r0, r1}
 1324 009c 84E80300 		stmia	r4, {r0, r1}
 306:.\SourceFiles\rte/sc_clock.h ****    signal->status = RTE_SIGNALSTATUS_VALID;
 1325              		.loc 2 306 0
 1326 00a0 0023     		movs	r3, #0
 1327 00a2 F363     		str	r3, [r6, #60]
 307:.\SourceFiles\rte/sc_clock.h ****    if (TRUE == signal->pSigCfg->resourceActive) ReleaseResource(signal->pSigCfg->resource);
 1328              		.loc 2 307 0
 1329 00a4 0223     		movs	r3, #2
 1330 00a6 86F83830 		strb	r3, [r6, #56]
 308:.\SourceFiles\rte/sc_clock.h **** 
 1331              		.loc 2 308 0
 1332 00aa 336C     		ldr	r3, [r6, #64]
 1333 00ac 93F82020 		ldrb	r2, [r3, #32]	@ zero_extendqisi2
 1334 00b0 012A     		cmp	r2, #1
 1335 00b2 02D1     		bne	.L101
 1336 00b4 586A     		ldr	r0, [r3, #36]
 1337 00b6 FFF7FEFF 		bl	EE_oo_ReleaseResource
 1338              	.LVL106:
 1339              	.L101:
 311:.\SourceFiles\rte/sc_clock.h **** 
 1340              		.loc 2 311 0
 1341 00ba 0C4B     		ldr	r3, .L107+4
 1342 00bc 1B6C     		ldr	r3, [r3, #64]
 1343 00be 5D69     		ldr	r5, [r3, #20]
 1344              	.LVL107:
 313:.\SourceFiles\rte/sc_clock.h ****       for( taskNum=0 ; taskNum < signal->pSigCfg->onUpdateTaskCount ;taskNum++){
 1345              		.loc 2 313 0
 1346 00c0 9B68     		ldr	r3, [r3, #8]
 1347 00c2 73B1     		cbz	r3, .L97
 1348 00c4 3DB9     		cbnz	r5, .L105
 1349 00c6 0CE0     		b	.L97
 1350              	.LVL108:
 1351              	.L104:
 1352              	.LBB104:
 1353              		.loc 2 317 0
 1354 00c8 9968     		ldr	r1, [r3, #8]
ARM GAS  C:\Users\JASON\AppData\Local\Temp\cct5bgFA.s 			page 49


 1355 00ca 55F82400 		ldr	r0, [r5, r4, lsl #2]
 1356 00ce FFF7FEFF 		bl	EE_oo_SetEvent
 1357              	.LVL109:
 1358              	.LBE104:
 314:.\SourceFiles\rte/sc_clock.h **** 		  
 1359              		.loc 2 314 0
 1360 00d2 0134     		adds	r4, r4, #1
 1361              	.LVL110:
 1362 00d4 00E0     		b	.L103
 1363              	.LVL111:
 1364              	.L105:
 313:.\SourceFiles\rte/sc_clock.h ****       for( taskNum=0 ; taskNum < signal->pSigCfg->onUpdateTaskCount ;taskNum++){
 1365              		.loc 2 313 0
 1366 00d6 0024     		movs	r4, #0
 1367              	.LVL112:
 1368              	.L103:
 314:.\SourceFiles\rte/sc_clock.h **** 		  
 1369              		.loc 2 314 0
 1370 00d8 044B     		ldr	r3, .L107+4
 1371 00da 1B6C     		ldr	r3, [r3, #64]
 1372 00dc 1A69     		ldr	r2, [r3, #16]
 1373 00de 9442     		cmp	r4, r2
 1374 00e0 F2D3     		bcc	.L104
 1375              	.LVL113:
 1376              	.L97:
 1377              	.LBE103:
 1378              	.LBE102:
 554:SourceFiles\asw/swc_clock_control.c **** /**
 1379              		.loc 1 554 0
 1380 00e2 1EB0     		add	sp, sp, #120
 1381              		.cfi_def_cfa_offset 16
 1382              		@ sp needed
 1383 00e4 70BD     		pop	{r4, r5, r6, pc}
 1384              	.LVL114:
 1385              	.L108:
 1386 00e6 00BF     		.align	2
 1387              	.L107:
 1388 00e8 14010000 		.word	.LC10
 1389 00ec 00000000 		.word	SO_CLOCK_signal
 1390              		.cfi_endproc
 1391              	.LFE146:
 1392              		.size	CLOCK__setEditFonts, .-CLOCK__setEditFonts
 1393              		.section	.text.CLOCK__dispatch_KRLP_Hours,"ax",%progbits
 1394              		.align	2
 1395              		.thumb
 1396              		.thumb_func
 1397              		.type	CLOCK__dispatch_KRLP_Hours, %function
 1398              	CLOCK__dispatch_KRLP_Hours:
 1399              	.LFB139:
 445:SourceFiles\asw/swc_clock_control.c ****     UART_LOG_PutString("CLOCK__dispatch_KRLP_Hours\n");
 1400              		.loc 1 445 0
 1401              		.cfi_startproc
 1402              		@ args = 0, pretend = 0, frame = 0
 1403              		@ frame_needed = 0, uses_anonymous_args = 0
 1404 0000 38B5     		push	{r3, r4, r5, lr}
 1405              		.cfi_def_cfa_offset 16
 1406              		.cfi_offset 3, -16
ARM GAS  C:\Users\JASON\AppData\Local\Temp\cct5bgFA.s 			page 50


 1407              		.cfi_offset 4, -12
 1408              		.cfi_offset 5, -8
 1409              		.cfi_offset 14, -4
 446:SourceFiles\asw/swc_clock_control.c ****     CLOCK__dispatch_wrapper(EV_KEYRIGHTLONGPRESS, CLOCK_HOURWIDGET);
 1410              		.loc 1 446 0
 1411 0002 1A48     		ldr	r0, .L117
 1412 0004 FFF7FEFF 		bl	UART_LOG_PutString
 1413              	.LVL115:
 447:SourceFiles\asw/swc_clock_control.c ****     
 1414              		.loc 1 447 0
 1415 0008 0121     		movs	r1, #1
 1416 000a 0320     		movs	r0, #3
 1417 000c FFF7FEFF 		bl	CLOCK__dispatch_wrapper
 1418              	.LVL116:
 1419              	.LBB105:
 1420              	.LBB106:
 304:.\SourceFiles\rte/sc_event.h ****    signal->value  = value;
 1421              		.loc 3 304 0
 1422 0010 174B     		ldr	r3, .L117+4
 1423 0012 9B68     		ldr	r3, [r3, #8]
 1424 0014 93F82020 		ldrb	r2, [r3, #32]	@ zero_extendqisi2
 1425 0018 012A     		cmp	r2, #1
 1426 001a 02D1     		bne	.L110
 1427 001c 586A     		ldr	r0, [r3, #36]
 1428 001e FFF7FEFF 		bl	EE_oo_GetResource
 1429              	.LVL117:
 1430              	.L110:
 305:.\SourceFiles\rte/sc_event.h ****    signal->age    = 0;
 1431              		.loc 3 305 0
 1432 0022 134B     		ldr	r3, .L117+4
 1433 0024 0422     		movs	r2, #4
 1434 0026 1A70     		strb	r2, [r3]
 306:.\SourceFiles\rte/sc_event.h ****    signal->status = RTE_SIGNALSTATUS_VALID;
 1435              		.loc 3 306 0
 1436 0028 0022     		movs	r2, #0
 1437 002a 5A60     		str	r2, [r3, #4]
 307:.\SourceFiles\rte/sc_event.h ****    if (TRUE == signal->pSigCfg->resourceActive) ReleaseResource(signal->pSigCfg->resource);
 1438              		.loc 3 307 0
 1439 002c 0222     		movs	r2, #2
 1440 002e 5A70     		strb	r2, [r3, #1]
 308:.\SourceFiles\rte/sc_event.h **** 
 1441              		.loc 3 308 0
 1442 0030 9B68     		ldr	r3, [r3, #8]
 1443 0032 93F82020 		ldrb	r2, [r3, #32]	@ zero_extendqisi2
 1444 0036 012A     		cmp	r2, #1
 1445 0038 02D1     		bne	.L111
 1446 003a 586A     		ldr	r0, [r3, #36]
 1447 003c FFF7FEFF 		bl	EE_oo_ReleaseResource
 1448              	.LVL118:
 1449              	.L111:
 311:.\SourceFiles\rte/sc_event.h **** 
 1450              		.loc 3 311 0
 1451 0040 0B4B     		ldr	r3, .L117+4
 1452 0042 9B68     		ldr	r3, [r3, #8]
 1453 0044 5D69     		ldr	r5, [r3, #20]
 1454              	.LVL119:
 313:.\SourceFiles\rte/sc_event.h ****       for( taskNum=0 ; taskNum < signal->pSigCfg->onUpdateTaskCount ;taskNum++){
ARM GAS  C:\Users\JASON\AppData\Local\Temp\cct5bgFA.s 			page 51


 1455              		.loc 3 313 0
 1456 0046 9B68     		ldr	r3, [r3, #8]
 1457 0048 73B1     		cbz	r3, .L109
 1458 004a 3DB9     		cbnz	r5, .L115
 1459 004c 38BD     		pop	{r3, r4, r5, pc}
 1460              	.LVL120:
 1461              	.L114:
 1462              	.LBB107:
 1463              		.loc 3 317 0
 1464 004e 9968     		ldr	r1, [r3, #8]
 1465 0050 55F82400 		ldr	r0, [r5, r4, lsl #2]
 1466 0054 FFF7FEFF 		bl	EE_oo_SetEvent
 1467              	.LVL121:
 1468              	.LBE107:
 314:.\SourceFiles\rte/sc_event.h **** 		  
 1469              		.loc 3 314 0
 1470 0058 0134     		adds	r4, r4, #1
 1471              	.LVL122:
 1472 005a 00E0     		b	.L113
 1473              	.LVL123:
 1474              	.L115:
 313:.\SourceFiles\rte/sc_event.h ****       for( taskNum=0 ; taskNum < signal->pSigCfg->onUpdateTaskCount ;taskNum++){
 1475              		.loc 3 313 0
 1476 005c 0024     		movs	r4, #0
 1477              	.LVL124:
 1478              	.L113:
 314:.\SourceFiles\rte/sc_event.h **** 		  
 1479              		.loc 3 314 0
 1480 005e 044B     		ldr	r3, .L117+4
 1481 0060 9B68     		ldr	r3, [r3, #8]
 1482 0062 1A69     		ldr	r2, [r3, #16]
 1483 0064 9442     		cmp	r4, r2
 1484 0066 F2D3     		bcc	.L114
 1485              	.LVL125:
 1486              	.L109:
 1487 0068 38BD     		pop	{r3, r4, r5, pc}
 1488              	.LVL126:
 1489              	.L118:
 1490 006a 00BF     		.align	2
 1491              	.L117:
 1492 006c 2C010000 		.word	.LC11
 1493 0070 00000000 		.word	SO_EVENT_signal
 1494              	.LBE106:
 1495              	.LBE105:
 1496              		.cfi_endproc
 1497              	.LFE139:
 1498              		.size	CLOCK__dispatch_KRLP_Hours, .-CLOCK__dispatch_KRLP_Hours
 1499              		.section	.text.CLOCK__dispatch_KRLP_Min,"ax",%progbits
 1500              		.align	2
 1501              		.thumb
 1502              		.thumb_func
 1503              		.type	CLOCK__dispatch_KRLP_Min, %function
 1504              	CLOCK__dispatch_KRLP_Min:
 1505              	.LFB140:
 458:SourceFiles\asw/swc_clock_control.c ****     UART_LOG_PutString("CLOCK__dispatch_KRLP_Min\n");
 1506              		.loc 1 458 0
 1507              		.cfi_startproc
ARM GAS  C:\Users\JASON\AppData\Local\Temp\cct5bgFA.s 			page 52


 1508              		@ args = 0, pretend = 0, frame = 0
 1509              		@ frame_needed = 0, uses_anonymous_args = 0
 1510 0000 38B5     		push	{r3, r4, r5, lr}
 1511              		.cfi_def_cfa_offset 16
 1512              		.cfi_offset 3, -16
 1513              		.cfi_offset 4, -12
 1514              		.cfi_offset 5, -8
 1515              		.cfi_offset 14, -4
 459:SourceFiles\asw/swc_clock_control.c ****     CLOCK__dispatch_wrapper(EV_KEYRIGHTLONGPRESS, CLOCK_MINWIDGET);
 1516              		.loc 1 459 0
 1517 0002 1A48     		ldr	r0, .L127
 1518 0004 FFF7FEFF 		bl	UART_LOG_PutString
 1519              	.LVL127:
 460:SourceFiles\asw/swc_clock_control.c ****     
 1520              		.loc 1 460 0
 1521 0008 0221     		movs	r1, #2
 1522 000a 0320     		movs	r0, #3
 1523 000c FFF7FEFF 		bl	CLOCK__dispatch_wrapper
 1524              	.LVL128:
 1525              	.LBB108:
 1526              	.LBB109:
 304:.\SourceFiles\rte/sc_event.h ****    signal->value  = value;
 1527              		.loc 3 304 0
 1528 0010 174B     		ldr	r3, .L127+4
 1529 0012 9B68     		ldr	r3, [r3, #8]
 1530 0014 93F82020 		ldrb	r2, [r3, #32]	@ zero_extendqisi2
 1531 0018 012A     		cmp	r2, #1
 1532 001a 02D1     		bne	.L120
 1533 001c 586A     		ldr	r0, [r3, #36]
 1534 001e FFF7FEFF 		bl	EE_oo_GetResource
 1535              	.LVL129:
 1536              	.L120:
 305:.\SourceFiles\rte/sc_event.h ****    signal->age    = 0;
 1537              		.loc 3 305 0
 1538 0022 134B     		ldr	r3, .L127+4
 1539 0024 0422     		movs	r2, #4
 1540 0026 1A70     		strb	r2, [r3]
 306:.\SourceFiles\rte/sc_event.h ****    signal->status = RTE_SIGNALSTATUS_VALID;
 1541              		.loc 3 306 0
 1542 0028 0022     		movs	r2, #0
 1543 002a 5A60     		str	r2, [r3, #4]
 307:.\SourceFiles\rte/sc_event.h ****    if (TRUE == signal->pSigCfg->resourceActive) ReleaseResource(signal->pSigCfg->resource);
 1544              		.loc 3 307 0
 1545 002c 0222     		movs	r2, #2
 1546 002e 5A70     		strb	r2, [r3, #1]
 308:.\SourceFiles\rte/sc_event.h **** 
 1547              		.loc 3 308 0
 1548 0030 9B68     		ldr	r3, [r3, #8]
 1549 0032 93F82020 		ldrb	r2, [r3, #32]	@ zero_extendqisi2
 1550 0036 012A     		cmp	r2, #1
 1551 0038 02D1     		bne	.L121
 1552 003a 586A     		ldr	r0, [r3, #36]
 1553 003c FFF7FEFF 		bl	EE_oo_ReleaseResource
 1554              	.LVL130:
 1555              	.L121:
 311:.\SourceFiles\rte/sc_event.h **** 
 1556              		.loc 3 311 0
ARM GAS  C:\Users\JASON\AppData\Local\Temp\cct5bgFA.s 			page 53


 1557 0040 0B4B     		ldr	r3, .L127+4
 1558 0042 9B68     		ldr	r3, [r3, #8]
 1559 0044 5D69     		ldr	r5, [r3, #20]
 1560              	.LVL131:
 313:.\SourceFiles\rte/sc_event.h ****       for( taskNum=0 ; taskNum < signal->pSigCfg->onUpdateTaskCount ;taskNum++){
 1561              		.loc 3 313 0
 1562 0046 9B68     		ldr	r3, [r3, #8]
 1563 0048 73B1     		cbz	r3, .L119
 1564 004a 3DB9     		cbnz	r5, .L125
 1565 004c 38BD     		pop	{r3, r4, r5, pc}
 1566              	.LVL132:
 1567              	.L124:
 1568              	.LBB110:
 1569              		.loc 3 317 0
 1570 004e 9968     		ldr	r1, [r3, #8]
 1571 0050 55F82400 		ldr	r0, [r5, r4, lsl #2]
 1572 0054 FFF7FEFF 		bl	EE_oo_SetEvent
 1573              	.LVL133:
 1574              	.LBE110:
 314:.\SourceFiles\rte/sc_event.h **** 		  
 1575              		.loc 3 314 0
 1576 0058 0134     		adds	r4, r4, #1
 1577              	.LVL134:
 1578 005a 00E0     		b	.L123
 1579              	.LVL135:
 1580              	.L125:
 313:.\SourceFiles\rte/sc_event.h ****       for( taskNum=0 ; taskNum < signal->pSigCfg->onUpdateTaskCount ;taskNum++){
 1581              		.loc 3 313 0
 1582 005c 0024     		movs	r4, #0
 1583              	.LVL136:
 1584              	.L123:
 314:.\SourceFiles\rte/sc_event.h **** 		  
 1585              		.loc 3 314 0
 1586 005e 044B     		ldr	r3, .L127+4
 1587 0060 9B68     		ldr	r3, [r3, #8]
 1588 0062 1A69     		ldr	r2, [r3, #16]
 1589 0064 9442     		cmp	r4, r2
 1590 0066 F2D3     		bcc	.L124
 1591              	.LVL137:
 1592              	.L119:
 1593 0068 38BD     		pop	{r3, r4, r5, pc}
 1594              	.LVL138:
 1595              	.L128:
 1596 006a 00BF     		.align	2
 1597              	.L127:
 1598 006c 48010000 		.word	.LC12
 1599 0070 00000000 		.word	SO_EVENT_signal
 1600              	.LBE109:
 1601              	.LBE108:
 1602              		.cfi_endproc
 1603              	.LFE140:
 1604              		.size	CLOCK__dispatch_KRLP_Min, .-CLOCK__dispatch_KRLP_Min
 1605              		.section	.text.CLOCK__increment1Minute,"ax",%progbits
 1606              		.align	2
 1607              		.thumb
 1608              		.thumb_func
 1609              		.type	CLOCK__increment1Minute, %function
ARM GAS  C:\Users\JASON\AppData\Local\Temp\cct5bgFA.s 			page 54


 1610              	CLOCK__increment1Minute:
 1611              	.LFB143:
 488:SourceFiles\asw/swc_clock_control.c ****     UART_LOG_PutString("CLOCK__increment1Minute\n");
 1612              		.loc 1 488 0
 1613              		.cfi_startproc
 1614              		@ args = 0, pretend = 0, frame = 112
 1615              		@ frame_needed = 0, uses_anonymous_args = 0
 1616 0000 70B5     		push	{r4, r5, r6, lr}
 1617              		.cfi_def_cfa_offset 16
 1618              		.cfi_offset 4, -16
 1619              		.cfi_offset 5, -12
 1620              		.cfi_offset 6, -8
 1621              		.cfi_offset 14, -4
 1622 0002 9CB0     		sub	sp, sp, #112
 1623              		.cfi_def_cfa_offset 128
 489:SourceFiles\asw/swc_clock_control.c **** 	
 1624              		.loc 1 489 0
 1625 0004 3A48     		ldr	r0, .L138
 1626 0006 FFF7FEFF 		bl	UART_LOG_PutString
 1627              	.LVL139:
 1628              	.LBB111:
 1629              	.LBB112:
 265:.\SourceFiles\rte/sc_clock.h **** }                                                                                                  
 1630              		.loc 2 265 0
 1631 000a 0EAC     		add	r4, sp, #56
 1632 000c 394D     		ldr	r5, .L138+4
 1633 000e 0FCD     		ldmia	r5!, {r0, r1, r2, r3}
 1634 0010 0FC4     		stmia	r4!, {r0, r1, r2, r3}
 1635 0012 0FCD     		ldmia	r5!, {r0, r1, r2, r3}
 1636 0014 0FC4     		stmia	r4!, {r0, r1, r2, r3}
 1637 0016 0FCD     		ldmia	r5!, {r0, r1, r2, r3}
 1638 0018 0FC4     		stmia	r4!, {r0, r1, r2, r3}
 1639 001a 95E80300 		ldmia	r5, {r0, r1}
 1640 001e 84E80300 		stmia	r4, {r0, r1}
 1641              	.LVL140:
 1642              	.LBE112:
 1643              	.LBE111:
 494:SourceFiles\asw/swc_clock_control.c **** 	uint16_t mm = clock.m_minutes.m_value;
 1644              		.loc 1 494 0
 1645 0022 BDF85410 		ldrh	r1, [sp, #84]
 1646              	.LVL141:
 495:SourceFiles\asw/swc_clock_control.c **** 	
 1647              		.loc 1 495 0
 1648 0026 BDF86820 		ldrh	r2, [sp, #104]
 1649              	.LVL142:
 497:SourceFiles\asw/swc_clock_control.c **** 	hh = (mm == 0)? ((hh + 1) % 24) : hh;
 1650              		.loc 1 497 0
 1651 002a 0132     		adds	r2, r2, #1
 1652              	.LVL143:
 1653 002c 324C     		ldr	r4, .L138+8
 1654 002e 82FB0445 		smull	r4, r5, r2, r4
 1655 0032 5019     		adds	r0, r2, r5
 1656 0034 D317     		asrs	r3, r2, #31
 1657 0036 C3EB6013 		rsb	r3, r3, r0, asr #5
 1658 003a C3EB0313 		rsb	r3, r3, r3, lsl #4
 1659 003e 9800     		lsls	r0, r3, #2
 1660 0040 131A     		subs	r3, r2, r0
ARM GAS  C:\Users\JASON\AppData\Local\Temp\cct5bgFA.s 			page 55


 1661 0042 9BB2     		uxth	r3, r3
 1662              	.LVL144:
 498:SourceFiles\asw/swc_clock_control.c **** 	
 1663              		.loc 1 498 0
 1664 0044 5BB9     		cbnz	r3, .L130
 498:SourceFiles\asw/swc_clock_control.c **** 	
 1665              		.loc 1 498 0 is_stmt 0 discriminator 1
 1666 0046 4A1C     		adds	r2, r1, #1
 1667 0048 2C49     		ldr	r1, .L138+12
 1668              	.LVL145:
 1669 004a 81FB0210 		smull	r1, r0, r1, r2
 1670 004e D117     		asrs	r1, r2, #31
 1671 0050 C1EBA001 		rsb	r1, r1, r0, asr #2
 1672 0054 01EB4101 		add	r1, r1, r1, lsl #1
 1673 0058 C800     		lsls	r0, r1, #3
 1674 005a 111A     		subs	r1, r2, r0
 1675 005c 89B2     		uxth	r1, r1
 1676              	.LVL146:
 1677              	.L130:
 501:SourceFiles\asw/swc_clock_control.c **** 	clock.m_minutes.m_value	= mm;
 1678              		.loc 1 501 0 is_stmt 1 discriminator 4
 1679 005e ADF85410 		strh	r1, [sp, #84]	@ movhi
 502:SourceFiles\asw/swc_clock_control.c **** 	
 1680              		.loc 1 502 0 discriminator 4
 1681 0062 ADF86830 		strh	r3, [sp, #104]	@ movhi
 1682              	.LVL147:
 1683 0066 6C46     		mov	r4, sp
 1684 0068 0EAD     		add	r5, sp, #56
 1685 006a 0FCD     		ldmia	r5!, {r0, r1, r2, r3}
 1686              	.LVL148:
 1687 006c 0FC4     		stmia	r4!, {r0, r1, r2, r3}
 1688 006e 0FCD     		ldmia	r5!, {r0, r1, r2, r3}
 1689 0070 0FC4     		stmia	r4!, {r0, r1, r2, r3}
 1690 0072 0FCD     		ldmia	r5!, {r0, r1, r2, r3}
 1691 0074 0FC4     		stmia	r4!, {r0, r1, r2, r3}
 1692 0076 95E80300 		ldmia	r5, {r0, r1}
 1693 007a 84E80300 		stmia	r4, {r0, r1}
 1694              	.LVL149:
 1695              	.LBB113:
 1696              	.LBB114:
 304:.\SourceFiles\rte/sc_clock.h ****    signal->value  = value;
 1697              		.loc 2 304 0 discriminator 4
 1698 007e 1D4B     		ldr	r3, .L138+4
 1699 0080 1B6C     		ldr	r3, [r3, #64]
 1700 0082 93F82020 		ldrb	r2, [r3, #32]	@ zero_extendqisi2
 1701 0086 012A     		cmp	r2, #1
 1702 0088 02D1     		bne	.L131
 304:.\SourceFiles\rte/sc_clock.h ****    signal->value  = value;
 1703              		.loc 2 304 0 is_stmt 0
 1704 008a 586A     		ldr	r0, [r3, #36]
 1705 008c FFF7FEFF 		bl	EE_oo_GetResource
 1706              	.LVL150:
 1707              	.L131:
 305:.\SourceFiles\rte/sc_clock.h ****    signal->age    = 0;
 1708              		.loc 2 305 0 is_stmt 1
 1709 0090 184E     		ldr	r6, .L138+4
 1710 0092 3446     		mov	r4, r6
ARM GAS  C:\Users\JASON\AppData\Local\Temp\cct5bgFA.s 			page 56


 1711 0094 6D46     		mov	r5, sp
 1712 0096 0FCD     		ldmia	r5!, {r0, r1, r2, r3}
 1713 0098 0FC4     		stmia	r4!, {r0, r1, r2, r3}
 1714 009a 0FCD     		ldmia	r5!, {r0, r1, r2, r3}
 1715 009c 0FC4     		stmia	r4!, {r0, r1, r2, r3}
 1716 009e 0FCD     		ldmia	r5!, {r0, r1, r2, r3}
 1717 00a0 0FC4     		stmia	r4!, {r0, r1, r2, r3}
 1718 00a2 95E80300 		ldmia	r5, {r0, r1}
 1719 00a6 84E80300 		stmia	r4, {r0, r1}
 306:.\SourceFiles\rte/sc_clock.h ****    signal->status = RTE_SIGNALSTATUS_VALID;
 1720              		.loc 2 306 0
 1721 00aa 0023     		movs	r3, #0
 1722 00ac F363     		str	r3, [r6, #60]
 307:.\SourceFiles\rte/sc_clock.h ****    if (TRUE == signal->pSigCfg->resourceActive) ReleaseResource(signal->pSigCfg->resource);
 1723              		.loc 2 307 0
 1724 00ae 0223     		movs	r3, #2
 1725 00b0 86F83830 		strb	r3, [r6, #56]
 308:.\SourceFiles\rte/sc_clock.h **** 
 1726              		.loc 2 308 0
 1727 00b4 336C     		ldr	r3, [r6, #64]
 1728 00b6 93F82020 		ldrb	r2, [r3, #32]	@ zero_extendqisi2
 1729 00ba 012A     		cmp	r2, #1
 1730 00bc 02D1     		bne	.L132
 1731 00be 586A     		ldr	r0, [r3, #36]
 1732 00c0 FFF7FEFF 		bl	EE_oo_ReleaseResource
 1733              	.LVL151:
 1734              	.L132:
 311:.\SourceFiles\rte/sc_clock.h **** 
 1735              		.loc 2 311 0
 1736 00c4 0B4B     		ldr	r3, .L138+4
 1737 00c6 1B6C     		ldr	r3, [r3, #64]
 1738 00c8 5D69     		ldr	r5, [r3, #20]
 1739              	.LVL152:
 313:.\SourceFiles\rte/sc_clock.h ****       for( taskNum=0 ; taskNum < signal->pSigCfg->onUpdateTaskCount ;taskNum++){
 1740              		.loc 2 313 0
 1741 00ca 9B68     		ldr	r3, [r3, #8]
 1742 00cc 73B1     		cbz	r3, .L129
 1743 00ce 3DB9     		cbnz	r5, .L136
 1744 00d0 0CE0     		b	.L129
 1745              	.LVL153:
 1746              	.L135:
 1747              	.LBB115:
 1748              		.loc 2 317 0
 1749 00d2 9968     		ldr	r1, [r3, #8]
 1750 00d4 55F82400 		ldr	r0, [r5, r4, lsl #2]
 1751 00d8 FFF7FEFF 		bl	EE_oo_SetEvent
 1752              	.LVL154:
 1753              	.LBE115:
 314:.\SourceFiles\rte/sc_clock.h **** 		  
 1754              		.loc 2 314 0
 1755 00dc 0134     		adds	r4, r4, #1
 1756              	.LVL155:
 1757 00de 00E0     		b	.L134
 1758              	.LVL156:
 1759              	.L136:
 313:.\SourceFiles\rte/sc_clock.h ****       for( taskNum=0 ; taskNum < signal->pSigCfg->onUpdateTaskCount ;taskNum++){
 1760              		.loc 2 313 0
ARM GAS  C:\Users\JASON\AppData\Local\Temp\cct5bgFA.s 			page 57


 1761 00e0 0024     		movs	r4, #0
 1762              	.LVL157:
 1763              	.L134:
 314:.\SourceFiles\rte/sc_clock.h **** 		  
 1764              		.loc 2 314 0
 1765 00e2 044B     		ldr	r3, .L138+4
 1766 00e4 1B6C     		ldr	r3, [r3, #64]
 1767 00e6 1A69     		ldr	r2, [r3, #16]
 1768 00e8 9442     		cmp	r4, r2
 1769 00ea F2D3     		bcc	.L135
 1770              	.LVL158:
 1771              	.L129:
 1772              	.LBE114:
 1773              	.LBE113:
 505:SourceFiles\asw/swc_clock_control.c **** /**
 1774              		.loc 1 505 0
 1775 00ec 1CB0     		add	sp, sp, #112
 1776              		.cfi_def_cfa_offset 16
 1777              		@ sp needed
 1778 00ee 70BD     		pop	{r4, r5, r6, pc}
 1779              	.LVL159:
 1780              	.L139:
 1781              		.align	2
 1782              	.L138:
 1783 00f0 64010000 		.word	.LC13
 1784 00f4 00000000 		.word	SO_CLOCK_signal
 1785 00f8 89888888 		.word	-2004318071
 1786 00fc ABAAAA2A 		.word	715827883
 1787              		.cfi_endproc
 1788              	.LFE143:
 1789              		.size	CLOCK__increment1Minute, .-CLOCK__increment1Minute
 1790              		.section	.text.CLOCK__errorHandlerRoutine,"ax",%progbits
 1791              		.align	2
 1792              		.thumb
 1793              		.thumb_func
 1794              		.type	CLOCK__errorHandlerRoutine, %function
 1795              	CLOCK__errorHandlerRoutine:
 1796              	.LFB152:
 627:SourceFiles\asw/swc_clock_control.c ****     
 628:SourceFiles\asw/swc_clock_control.c ****     // Set an error event.
 629:SourceFiles\asw/swc_clock_control.c ****     SC_EVENT_data_t ev = {EV_ERROR};
 630:SourceFiles\asw/swc_clock_control.c ****     RTE_SC_EVENT_set(&SO_EVENT_signal, ev);
 631:SourceFiles\asw/swc_clock_control.c **** }
 632:SourceFiles\asw/swc_clock_control.c **** /**
 633:SourceFiles\asw/swc_clock_control.c ****  * @brief Error handler routine : handling of error is done here.
 634:SourceFiles\asw/swc_clock_control.c ****  */
 635:SourceFiles\asw/swc_clock_control.c **** static void CLOCK__errorHandlerRoutine()
 636:SourceFiles\asw/swc_clock_control.c **** {
 1797              		.loc 1 636 0
 1798              		.cfi_startproc
 1799              		@ args = 0, pretend = 0, frame = 136
 1800              		@ frame_needed = 0, uses_anonymous_args = 0
 1801 0000 70B5     		push	{r4, r5, r6, lr}
 1802              		.cfi_def_cfa_offset 16
 1803              		.cfi_offset 4, -16
 1804              		.cfi_offset 5, -12
 1805              		.cfi_offset 6, -8
ARM GAS  C:\Users\JASON\AppData\Local\Temp\cct5bgFA.s 			page 58


 1806              		.cfi_offset 14, -4
 1807 0002 A2B0     		sub	sp, sp, #136
 1808              		.cfi_def_cfa_offset 152
 637:SourceFiles\asw/swc_clock_control.c ****     UART_LOG_PutString("CLOCK__errorHandlerRoutine\n");
 1809              		.loc 1 637 0
 1810 0004 3C48     		ldr	r0, .L148
 1811 0006 FFF7FEFF 		bl	UART_LOG_PutString
 1812              	.LVL160:
 1813              	.LBB116:
 1814              	.LBB117:
 265:.\SourceFiles\rte/sc_clock.h **** }                                                                                                  
 1815              		.loc 2 265 0
 1816 000a 3C4E     		ldr	r6, .L148+4
 1817 000c 14AC     		add	r4, sp, #80
 1818 000e 3546     		mov	r5, r6
 1819 0010 0FCD     		ldmia	r5!, {r0, r1, r2, r3}
 1820 0012 0FC4     		stmia	r4!, {r0, r1, r2, r3}
 1821 0014 0FCD     		ldmia	r5!, {r0, r1, r2, r3}
 1822 0016 0FC4     		stmia	r4!, {r0, r1, r2, r3}
 1823 0018 0FCD     		ldmia	r5!, {r0, r1, r2, r3}
 1824 001a 0FC4     		stmia	r4!, {r0, r1, r2, r3}
 1825 001c 95E80300 		ldmia	r5, {r0, r1}
 1826 0020 84E80300 		stmia	r4, {r0, r1}
 1827              	.LVL161:
 1828              	.LBE117:
 1829              	.LBE116:
 638:SourceFiles\asw/swc_clock_control.c ****     
 639:SourceFiles\asw/swc_clock_control.c ****     // Read the clock object
 640:SourceFiles\asw/swc_clock_control.c ****     SC_CLOCK_data_t clock   =   RTE_SC_CLOCK_get(&SO_CLOCK_signal);
 641:SourceFiles\asw/swc_clock_control.c ****     
 642:SourceFiles\asw/swc_clock_control.c ****     clock.m_containerState  =   STATE_CLOCK_C_ISDISPLAYING; // Set container state to ISDISPLAY.
 1830              		.loc 1 642 0
 1831 0024 0023     		movs	r3, #0
 1832 0026 8DF85030 		strb	r3, [sp, #80]
 643:SourceFiles\asw/swc_clock_control.c ****     clock.m_activeWidget    =   CLOCK_NONE; // No active widget.
 1833              		.loc 1 643 0
 1834 002a 8DF85C30 		strb	r3, [sp, #92]
 644:SourceFiles\asw/swc_clock_control.c ****     
 645:SourceFiles\asw/swc_clock_control.c ****     CLOCK_widget_t widget;
 646:SourceFiles\asw/swc_clock_control.c ****     widget.m_state          =   STATE_CLOCK_W_ISDISPLAYING; //Set widget state to ISDISPLAY.
 1835              		.loc 1 646 0
 1836 002e 0322     		movs	r2, #3
 1837 0030 8DF83C20 		strb	r2, [sp, #60]
 647:SourceFiles\asw/swc_clock_control.c ****     
 648:SourceFiles\asw/swc_clock_control.c ****     CLOCK_font_t font;
 649:SourceFiles\asw/swc_clock_control.c ****     font.foreground         =   WHITE;
 1838              		.loc 1 649 0
 1839 0034 4FF6FF72 		movw	r2, #65535
 1840 0038 ADF83820 		strh	r2, [sp, #56]	@ movhi
 650:SourceFiles\asw/swc_clock_control.c ****     font.background         =   BLACK;
 1841              		.loc 1 650 0
 1842 003c ADF83A30 		strh	r3, [sp, #58]	@ movhi
 651:SourceFiles\asw/swc_clock_control.c ****     widget.m_font           =   font;
 1843              		.loc 1 651 0
 1844 0040 0E98     		ldr	r0, [sp, #56]	@ unaligned
 1845 0042 CDF84A00 		str	r0, [sp, #74]	@ unaligned
 652:SourceFiles\asw/swc_clock_control.c ****     
ARM GAS  C:\Users\JASON\AppData\Local\Temp\cct5bgFA.s 			page 59


 653:SourceFiles\asw/swc_clock_control.c ****     // retain the hours and minutes values before the error occured.
 654:SourceFiles\asw/swc_clock_control.c ****     widget.m_value          =   clock.m_hours.m_value;
 1846              		.loc 1 654 0
 1847 0046 BDF86C30 		ldrh	r3, [sp, #108]
 1848 004a ADF84830 		strh	r3, [sp, #72]	@ movhi
 655:SourceFiles\asw/swc_clock_control.c ****     clock.m_hours           =   widget;
 1849              		.loc 1 655 0
 1850 004e 18AC     		add	r4, sp, #96
 1851 0050 0FAD     		add	r5, sp, #60
 1852 0052 0FCD     		ldmia	r5!, {r0, r1, r2, r3}
 1853 0054 0FC4     		stmia	r4!, {r0, r1, r2, r3}
 1854 0056 2B68     		ldr	r3, [r5]
 1855 0058 2360     		str	r3, [r4]
 656:SourceFiles\asw/swc_clock_control.c ****     widget.m_value          =   clock.m_minutes.m_value;
 1856              		.loc 1 656 0
 1857 005a BDF88030 		ldrh	r3, [sp, #128]
 1858 005e ADF84830 		strh	r3, [sp, #72]	@ movhi
 657:SourceFiles\asw/swc_clock_control.c ****     clock.m_minutes         =   widget;
 1859              		.loc 1 657 0
 1860 0062 1DAC     		add	r4, sp, #116
 1861 0064 0FAD     		add	r5, sp, #60
 1862 0066 0FCD     		ldmia	r5!, {r0, r1, r2, r3}
 1863 0068 0FC4     		stmia	r4!, {r0, r1, r2, r3}
 1864 006a 2B68     		ldr	r3, [r5]
 1865 006c 2360     		str	r3, [r4]
 1866              	.LVL162:
 1867 006e 6C46     		mov	r4, sp
 1868 0070 14AD     		add	r5, sp, #80
 1869 0072 0FCD     		ldmia	r5!, {r0, r1, r2, r3}
 1870 0074 0FC4     		stmia	r4!, {r0, r1, r2, r3}
 1871 0076 0FCD     		ldmia	r5!, {r0, r1, r2, r3}
 1872 0078 0FC4     		stmia	r4!, {r0, r1, r2, r3}
 1873 007a 0FCD     		ldmia	r5!, {r0, r1, r2, r3}
 1874 007c 0FC4     		stmia	r4!, {r0, r1, r2, r3}
 1875 007e 95E80300 		ldmia	r5, {r0, r1}
 1876 0082 84E80300 		stmia	r4, {r0, r1}
 1877              	.LVL163:
 1878              	.LBB118:
 1879              	.LBB119:
 304:.\SourceFiles\rte/sc_clock.h ****    signal->value  = value;
 1880              		.loc 2 304 0
 1881 0086 336C     		ldr	r3, [r6, #64]
 1882 0088 93F82020 		ldrb	r2, [r3, #32]	@ zero_extendqisi2
 1883 008c 012A     		cmp	r2, #1
 1884 008e 02D1     		bne	.L141
 1885 0090 586A     		ldr	r0, [r3, #36]
 1886 0092 FFF7FEFF 		bl	EE_oo_GetResource
 1887              	.LVL164:
 1888              	.L141:
 305:.\SourceFiles\rte/sc_clock.h ****    signal->age    = 0;
 1889              		.loc 2 305 0
 1890 0096 194E     		ldr	r6, .L148+4
 1891 0098 3446     		mov	r4, r6
 1892 009a 6D46     		mov	r5, sp
 1893 009c 0FCD     		ldmia	r5!, {r0, r1, r2, r3}
 1894 009e 0FC4     		stmia	r4!, {r0, r1, r2, r3}
 1895 00a0 0FCD     		ldmia	r5!, {r0, r1, r2, r3}
ARM GAS  C:\Users\JASON\AppData\Local\Temp\cct5bgFA.s 			page 60


 1896 00a2 0FC4     		stmia	r4!, {r0, r1, r2, r3}
 1897 00a4 0FCD     		ldmia	r5!, {r0, r1, r2, r3}
 1898 00a6 0FC4     		stmia	r4!, {r0, r1, r2, r3}
 1899 00a8 95E80300 		ldmia	r5, {r0, r1}
 1900 00ac 84E80300 		stmia	r4, {r0, r1}
 306:.\SourceFiles\rte/sc_clock.h ****    signal->status = RTE_SIGNALSTATUS_VALID;
 1901              		.loc 2 306 0
 1902 00b0 0023     		movs	r3, #0
 1903 00b2 F363     		str	r3, [r6, #60]
 307:.\SourceFiles\rte/sc_clock.h ****    if (TRUE == signal->pSigCfg->resourceActive) ReleaseResource(signal->pSigCfg->resource);
 1904              		.loc 2 307 0
 1905 00b4 0223     		movs	r3, #2
 1906 00b6 86F83830 		strb	r3, [r6, #56]
 308:.\SourceFiles\rte/sc_clock.h **** 
 1907              		.loc 2 308 0
 1908 00ba 336C     		ldr	r3, [r6, #64]
 1909 00bc 93F82020 		ldrb	r2, [r3, #32]	@ zero_extendqisi2
 1910 00c0 012A     		cmp	r2, #1
 1911 00c2 02D1     		bne	.L142
 1912 00c4 586A     		ldr	r0, [r3, #36]
 1913 00c6 FFF7FEFF 		bl	EE_oo_ReleaseResource
 1914              	.LVL165:
 1915              	.L142:
 311:.\SourceFiles\rte/sc_clock.h **** 
 1916              		.loc 2 311 0
 1917 00ca 0C4B     		ldr	r3, .L148+4
 1918 00cc 1B6C     		ldr	r3, [r3, #64]
 1919 00ce 5D69     		ldr	r5, [r3, #20]
 1920              	.LVL166:
 313:.\SourceFiles\rte/sc_clock.h ****       for( taskNum=0 ; taskNum < signal->pSigCfg->onUpdateTaskCount ;taskNum++){
 1921              		.loc 2 313 0
 1922 00d0 9B68     		ldr	r3, [r3, #8]
 1923 00d2 73B1     		cbz	r3, .L140
 1924 00d4 3DB9     		cbnz	r5, .L146
 1925 00d6 0CE0     		b	.L140
 1926              	.LVL167:
 1927              	.L145:
 1928              	.LBB120:
 1929              		.loc 2 317 0
 1930 00d8 9968     		ldr	r1, [r3, #8]
 1931 00da 55F82400 		ldr	r0, [r5, r4, lsl #2]
 1932 00de FFF7FEFF 		bl	EE_oo_SetEvent
 1933              	.LVL168:
 1934              	.LBE120:
 314:.\SourceFiles\rte/sc_clock.h **** 		  
 1935              		.loc 2 314 0
 1936 00e2 0134     		adds	r4, r4, #1
 1937              	.LVL169:
 1938 00e4 00E0     		b	.L144
 1939              	.LVL170:
 1940              	.L146:
 313:.\SourceFiles\rte/sc_clock.h ****       for( taskNum=0 ; taskNum < signal->pSigCfg->onUpdateTaskCount ;taskNum++){
 1941              		.loc 2 313 0
 1942 00e6 0024     		movs	r4, #0
 1943              	.LVL171:
 1944              	.L144:
 314:.\SourceFiles\rte/sc_clock.h **** 		  
ARM GAS  C:\Users\JASON\AppData\Local\Temp\cct5bgFA.s 			page 61


 1945              		.loc 2 314 0
 1946 00e8 044B     		ldr	r3, .L148+4
 1947 00ea 1B6C     		ldr	r3, [r3, #64]
 1948 00ec 1A69     		ldr	r2, [r3, #16]
 1949 00ee 9442     		cmp	r4, r2
 1950 00f0 F2D3     		bcc	.L145
 1951              	.LVL172:
 1952              	.L140:
 1953              	.LBE119:
 1954              	.LBE118:
 658:SourceFiles\asw/swc_clock_control.c ****     
 659:SourceFiles\asw/swc_clock_control.c ****     // Set the clock object after re-initatilzation when error occured.
 660:SourceFiles\asw/swc_clock_control.c ****     RTE_SC_CLOCK_set(&SO_CLOCK_signal, clock);
 661:SourceFiles\asw/swc_clock_control.c **** }
 1955              		.loc 1 661 0
 1956 00f2 22B0     		add	sp, sp, #136
 1957              		.cfi_def_cfa_offset 16
 1958              		@ sp needed
 1959 00f4 70BD     		pop	{r4, r5, r6, pc}
 1960              	.LVL173:
 1961              	.L149:
 1962 00f6 00BF     		.align	2
 1963              	.L148:
 1964 00f8 80010000 		.word	.LC14
 1965 00fc 00000000 		.word	SO_CLOCK_signal
 1966              		.cfi_endproc
 1967              	.LFE152:
 1968              		.size	CLOCK__errorHandlerRoutine, .-CLOCK__errorHandlerRoutine
 1969              		.section	.text.CLOCK_CONTROL__run,"ax",%progbits
 1970              		.align	2
 1971              		.global	CLOCK_CONTROL__run
 1972              		.thumb
 1973              		.thumb_func
 1974              		.type	CLOCK_CONTROL__run, %function
 1975              	CLOCK_CONTROL__run:
 1976              	.LFB131:
 237:SourceFiles\asw/swc_clock_control.c **** 	
 1977              		.loc 1 237 0
 1978              		.cfi_startproc
 1979              		@ args = 0, pretend = 0, frame = 176
 1980              		@ frame_needed = 0, uses_anonymous_args = 0
 1981              	.LVL174:
 1982 0000 70B5     		push	{r4, r5, r6, lr}
 1983              		.cfi_def_cfa_offset 16
 1984              		.cfi_offset 4, -16
 1985              		.cfi_offset 5, -12
 1986              		.cfi_offset 6, -8
 1987              		.cfi_offset 14, -4
 1988 0002 AEB0     		sub	sp, sp, #184
 1989              		.cfi_def_cfa_offset 200
 1990              	.LVL175:
 1991              	.LBB121:
 1992              	.LBB122:
 265:.\SourceFiles\rte/sc_clock.h **** }                                                                                                  
 1993              		.loc 2 265 0
 1994 0004 20AC     		add	r4, sp, #128
 1995 0006 4E4D     		ldr	r5, .L160
ARM GAS  C:\Users\JASON\AppData\Local\Temp\cct5bgFA.s 			page 62


 1996 0008 0FCD     		ldmia	r5!, {r0, r1, r2, r3}
 1997              	.LVL176:
 1998 000a 0FC4     		stmia	r4!, {r0, r1, r2, r3}
 1999 000c 0FCD     		ldmia	r5!, {r0, r1, r2, r3}
 2000 000e 0FC4     		stmia	r4!, {r0, r1, r2, r3}
 2001 0010 0FCD     		ldmia	r5!, {r0, r1, r2, r3}
 2002 0012 0FC4     		stmia	r4!, {r0, r1, r2, r3}
 2003 0014 95E80300 		ldmia	r5, {r0, r1}
 2004 0018 84E80300 		stmia	r4, {r0, r1}
 2005              	.LVL177:
 2006              	.LBE122:
 2007              	.LBE121:
 245:SourceFiles\asw/swc_clock_control.c ****     {
 2008              		.loc 1 245 0
 2009 001c 494B     		ldr	r3, .L160+4
 2010 001e 1A78     		ldrb	r2, [r3]	@ zero_extendqisi2
 2011 0020 062A     		cmp	r2, #6
 2012 0022 02D1     		bne	.L151
 248:SourceFiles\asw/swc_clock_control.c ****     }
 2013              		.loc 1 248 0
 2014 0024 FFF7FEFF 		bl	CLOCK__errorHandlerRoutine
 2015              	.LVL178:
 2016 0028 6CE0     		b	.L152
 2017              	.L151:
 2018              	.LBB123:
 253:SourceFiles\asw/swc_clock_control.c ****         //Call the state machine and process the event
 2019              		.loc 1 253 0
 2020 002a 9DF88010 		ldrb	r1, [sp, #128]	@ zero_extendqisi2
 2021 002e 2EAB     		add	r3, sp, #184
 2022 0030 03F8A91D 		strb	r1, [r3, #-169]!
 255:SourceFiles\asw/swc_clock_control.c ****                                         CLOCK_StateActions, CLOCK_StateActions_size,
 2023              		.loc 1 255 0
 2024 0034 4448     		ldr	r0, .L160+8
 2025 0036 0193     		str	r3, [sp, #4]
 2026 0038 0092     		str	r2, [sp]
 2027 003a 0223     		movs	r3, #2
 2028 003c 0246     		mov	r2, r0
 2029 003e 0321     		movs	r1, #3
 2030 0040 3C30     		adds	r0, r0, #60
 2031 0042 FFF7FEFF 		bl	STATE_processEvent
 2032              	.LVL179:
 2033              	.LBB124:
 2034              	.LBB125:
 265:.\SourceFiles\rte/sc_clock.h **** }                                                                                                  
 2035              		.loc 2 265 0
 2036 0046 3E4E     		ldr	r6, .L160
 2037 0048 12AC     		add	r4, sp, #72
 2038 004a 3546     		mov	r5, r6
 2039 004c 0FCD     		ldmia	r5!, {r0, r1, r2, r3}
 2040 004e 0FC4     		stmia	r4!, {r0, r1, r2, r3}
 2041 0050 0FCD     		ldmia	r5!, {r0, r1, r2, r3}
 2042 0052 0FC4     		stmia	r4!, {r0, r1, r2, r3}
 2043 0054 0FCD     		ldmia	r5!, {r0, r1, r2, r3}
 2044 0056 0FC4     		stmia	r4!, {r0, r1, r2, r3}
 2045 0058 95E80300 		ldmia	r5, {r0, r1}
 2046 005c 84E80300 		stmia	r4, {r0, r1}
 2047              	.LVL180:
ARM GAS  C:\Users\JASON\AppData\Local\Temp\cct5bgFA.s 			page 63


 2048              	.LBE125:
 2049              	.LBE124:
 259:SourceFiles\asw/swc_clock_control.c ****         clock.m_containerState = state; 
 2050              		.loc 1 259 0
 2051 0060 20AC     		add	r4, sp, #128
 2052 0062 12AD     		add	r5, sp, #72
 2053 0064 0FCD     		ldmia	r5!, {r0, r1, r2, r3}
 2054 0066 0FC4     		stmia	r4!, {r0, r1, r2, r3}
 2055 0068 0FCD     		ldmia	r5!, {r0, r1, r2, r3}
 2056 006a 0FC4     		stmia	r4!, {r0, r1, r2, r3}
 2057 006c 0FCD     		ldmia	r5!, {r0, r1, r2, r3}
 2058 006e 0FC4     		stmia	r4!, {r0, r1, r2, r3}
 2059 0070 95E80300 		ldmia	r5, {r0, r1}
 2060 0074 84E80300 		stmia	r4, {r0, r1}
 260:SourceFiles\asw/swc_clock_control.c ****         RTE_SC_CLOCK_set(&SO_CLOCK_signal, clock);
 2061              		.loc 1 260 0
 2062 0078 9DF80F30 		ldrb	r3, [sp, #15]	@ zero_extendqisi2
 2063 007c 8DF88030 		strb	r3, [sp, #128]
 2064              	.LVL181:
 2065 0080 04AC     		add	r4, sp, #16
 2066 0082 20AD     		add	r5, sp, #128
 2067 0084 0FCD     		ldmia	r5!, {r0, r1, r2, r3}
 2068 0086 0FC4     		stmia	r4!, {r0, r1, r2, r3}
 2069 0088 0FCD     		ldmia	r5!, {r0, r1, r2, r3}
 2070 008a 0FC4     		stmia	r4!, {r0, r1, r2, r3}
 2071 008c 0FCD     		ldmia	r5!, {r0, r1, r2, r3}
 2072 008e 0FC4     		stmia	r4!, {r0, r1, r2, r3}
 2073 0090 95E80300 		ldmia	r5, {r0, r1}
 2074 0094 84E80300 		stmia	r4, {r0, r1}
 2075              	.LVL182:
 2076              	.LBB126:
 2077              	.LBB127:
 304:.\SourceFiles\rte/sc_clock.h ****    signal->value  = value;
 2078              		.loc 2 304 0
 2079 0098 336C     		ldr	r3, [r6, #64]
 2080 009a 93F82020 		ldrb	r2, [r3, #32]	@ zero_extendqisi2
 2081 009e 012A     		cmp	r2, #1
 2082 00a0 02D1     		bne	.L153
 2083 00a2 586A     		ldr	r0, [r3, #36]
 2084 00a4 FFF7FEFF 		bl	EE_oo_GetResource
 2085              	.LVL183:
 2086              	.L153:
 305:.\SourceFiles\rte/sc_clock.h ****    signal->age    = 0;
 2087              		.loc 2 305 0
 2088 00a8 254E     		ldr	r6, .L160
 2089 00aa 3446     		mov	r4, r6
 2090 00ac 04AD     		add	r5, sp, #16
 2091 00ae 0FCD     		ldmia	r5!, {r0, r1, r2, r3}
 2092 00b0 0FC4     		stmia	r4!, {r0, r1, r2, r3}
 2093 00b2 0FCD     		ldmia	r5!, {r0, r1, r2, r3}
 2094 00b4 0FC4     		stmia	r4!, {r0, r1, r2, r3}
 2095 00b6 0FCD     		ldmia	r5!, {r0, r1, r2, r3}
 2096 00b8 0FC4     		stmia	r4!, {r0, r1, r2, r3}
 2097 00ba 95E80300 		ldmia	r5, {r0, r1}
 2098 00be 84E80300 		stmia	r4, {r0, r1}
 306:.\SourceFiles\rte/sc_clock.h ****    signal->status = RTE_SIGNALSTATUS_VALID;
 2099              		.loc 2 306 0
ARM GAS  C:\Users\JASON\AppData\Local\Temp\cct5bgFA.s 			page 64


 2100 00c2 0023     		movs	r3, #0
 2101 00c4 F363     		str	r3, [r6, #60]
 307:.\SourceFiles\rte/sc_clock.h ****    if (TRUE == signal->pSigCfg->resourceActive) ReleaseResource(signal->pSigCfg->resource);
 2102              		.loc 2 307 0
 2103 00c6 0223     		movs	r3, #2
 2104 00c8 86F83830 		strb	r3, [r6, #56]
 308:.\SourceFiles\rte/sc_clock.h **** 
 2105              		.loc 2 308 0
 2106 00cc 336C     		ldr	r3, [r6, #64]
 2107 00ce 93F82020 		ldrb	r2, [r3, #32]	@ zero_extendqisi2
 2108 00d2 012A     		cmp	r2, #1
 2109 00d4 02D1     		bne	.L154
 2110 00d6 586A     		ldr	r0, [r3, #36]
 2111 00d8 FFF7FEFF 		bl	EE_oo_ReleaseResource
 2112              	.LVL184:
 2113              	.L154:
 311:.\SourceFiles\rte/sc_clock.h **** 
 2114              		.loc 2 311 0
 2115 00dc 184B     		ldr	r3, .L160
 2116 00de 1B6C     		ldr	r3, [r3, #64]
 2117 00e0 5D69     		ldr	r5, [r3, #20]
 2118              	.LVL185:
 313:.\SourceFiles\rte/sc_clock.h ****       for( taskNum=0 ; taskNum < signal->pSigCfg->onUpdateTaskCount ;taskNum++){
 2119              		.loc 2 313 0
 2120 00e2 9B68     		ldr	r3, [r3, #8]
 2121 00e4 73B1     		cbz	r3, .L152
 2122 00e6 3DB9     		cbnz	r5, .L158
 2123 00e8 0CE0     		b	.L152
 2124              	.LVL186:
 2125              	.L157:
 2126              	.LBB128:
 2127              		.loc 2 317 0
 2128 00ea 9968     		ldr	r1, [r3, #8]
 2129 00ec 55F82400 		ldr	r0, [r5, r4, lsl #2]
 2130 00f0 FFF7FEFF 		bl	EE_oo_SetEvent
 2131              	.LVL187:
 2132              	.LBE128:
 314:.\SourceFiles\rte/sc_clock.h **** 		  
 2133              		.loc 2 314 0
 2134 00f4 0134     		adds	r4, r4, #1
 2135              	.LVL188:
 2136 00f6 00E0     		b	.L156
 2137              	.LVL189:
 2138              	.L158:
 313:.\SourceFiles\rte/sc_clock.h ****       for( taskNum=0 ; taskNum < signal->pSigCfg->onUpdateTaskCount ;taskNum++){
 2139              		.loc 2 313 0
 2140 00f8 0024     		movs	r4, #0
 2141              	.LVL190:
 2142              	.L156:
 314:.\SourceFiles\rte/sc_clock.h **** 		  
 2143              		.loc 2 314 0
 2144 00fa 114B     		ldr	r3, .L160
 2145 00fc 1B6C     		ldr	r3, [r3, #64]
 2146 00fe 1A69     		ldr	r2, [r3, #16]
 2147 0100 9442     		cmp	r4, r2
 2148 0102 F2D3     		bcc	.L157
 2149              	.LVL191:
ARM GAS  C:\Users\JASON\AppData\Local\Temp\cct5bgFA.s 			page 65


 2150              	.L152:
 2151              	.LBE127:
 2152              	.LBE126:
 2153              	.LBE123:
 268:SourceFiles\asw/swc_clock_control.c ****     intToASCII((uint32_t)clock.m_hours.m_value, (uint8_t*)&asciiConvert, 2);
 2154              		.loc 1 268 0
 2155 0104 1148     		ldr	r0, .L160+12
 2156 0106 FFF7FEFF 		bl	UART_LOG_PutString
 2157              	.LVL192:
 269:SourceFiles\asw/swc_clock_control.c ****     UART_LOG_PutString(asciiConvert);
 2158              		.loc 1 269 0
 2159 010a 114C     		ldr	r4, .L160+16
 2160 010c 0222     		movs	r2, #2
 2161 010e 2146     		mov	r1, r4
 2162 0110 BDF89C00 		ldrh	r0, [sp, #156]
 2163 0114 FFF7FEFF 		bl	intToASCII
 2164              	.LVL193:
 270:SourceFiles\asw/swc_clock_control.c ****     UART_LOG_PutChar(':');
 2165              		.loc 1 270 0
 2166 0118 2046     		mov	r0, r4
 2167 011a FFF7FEFF 		bl	UART_LOG_PutString
 2168              	.LVL194:
 271:SourceFiles\asw/swc_clock_control.c ****     intToASCII((uint32_t)clock.m_minutes.m_value, (uint8_t*)&asciiConvert, 2);
 2169              		.loc 1 271 0
 2170 011e 3A20     		movs	r0, #58
 2171 0120 FFF7FEFF 		bl	UART_LOG_PutChar
 2172              	.LVL195:
 272:SourceFiles\asw/swc_clock_control.c ****     UART_LOG_PutString(asciiConvert);
 2173              		.loc 1 272 0
 2174 0124 0222     		movs	r2, #2
 2175 0126 2146     		mov	r1, r4
 2176 0128 BDF8B000 		ldrh	r0, [sp, #176]
 2177 012c FFF7FEFF 		bl	intToASCII
 2178              	.LVL196:
 273:SourceFiles\asw/swc_clock_control.c ****     UART_LOG_PutString("\n\n\n");
 2179              		.loc 1 273 0
 2180 0130 2046     		mov	r0, r4
 2181 0132 FFF7FEFF 		bl	UART_LOG_PutString
 2182              	.LVL197:
 274:SourceFiles\asw/swc_clock_control.c ****     
 2183              		.loc 1 274 0
 2184 0136 0748     		ldr	r0, .L160+20
 2185 0138 FFF7FEFF 		bl	UART_LOG_PutString
 2186              	.LVL198:
 277:SourceFiles\asw/swc_clock_control.c **** 
 2187              		.loc 1 277 0
 2188 013c 2EB0     		add	sp, sp, #184
 2189              		.cfi_def_cfa_offset 16
 2190              		@ sp needed
 2191 013e 70BD     		pop	{r4, r5, r6, pc}
 2192              	.L161:
 2193              		.align	2
 2194              	.L160:
 2195 0140 00000000 		.word	SO_CLOCK_signal
 2196 0144 00000000 		.word	SO_EVENT_signal
 2197 0148 00000000 		.word	.LANCHOR1
 2198 014c 9C010000 		.word	.LC15
ARM GAS  C:\Users\JASON\AppData\Local\Temp\cct5bgFA.s 			page 66


 2199 0150 04000000 		.word	.LANCHOR0+4
 2200 0154 A0010000 		.word	.LC16
 2201              		.cfi_endproc
 2202              	.LFE131:
 2203              		.size	CLOCK_CONTROL__run, .-CLOCK_CONTROL__run
 2204              		.section	.text.CLOCK_CONTROL_init_run,"ax",%progbits
 2205              		.align	2
 2206              		.global	CLOCK_CONTROL_init_run
 2207              		.thumb
 2208              		.thumb_func
 2209              		.type	CLOCK_CONTROL_init_run, %function
 2210              	CLOCK_CONTROL_init_run:
 2211              	.LFB132:
 290:SourceFiles\asw/swc_clock_control.c **** 	
 2212              		.loc 1 290 0
 2213              		.cfi_startproc
 2214              		@ args = 0, pretend = 0, frame = 144
 2215              		@ frame_needed = 0, uses_anonymous_args = 0
 2216              	.LVL199:
 2217 0000 F0B5     		push	{r4, r5, r6, r7, lr}
 2218              		.cfi_def_cfa_offset 20
 2219              		.cfi_offset 4, -20
 2220              		.cfi_offset 5, -16
 2221              		.cfi_offset 6, -12
 2222              		.cfi_offset 7, -8
 2223              		.cfi_offset 14, -4
 2224 0002 A5B0     		sub	sp, sp, #148
 2225              		.cfi_def_cfa_offset 168
 295:SourceFiles\asw/swc_clock_control.c ****     clock.m_stateActions    =   (STATE_ActionPtr_t*)                    0;
 2226              		.loc 1 295 0
 2227 0004 424E     		ldr	r6, .L170
 2228 0006 06F13C03 		add	r3, r6, #60
 2229 000a 1793     		str	r3, [sp, #92]
 296:SourceFiles\asw/swc_clock_control.c ****     clock.m_activeWidget    =                                           CLOCK_NONE;
 2230              		.loc 1 296 0
 2231 000c 0023     		movs	r3, #0
 2232 000e 1893     		str	r3, [sp, #96]
 297:SourceFiles\asw/swc_clock_control.c ****     
 2233              		.loc 1 297 0
 2234 0010 8DF86430 		strb	r3, [sp, #100]
 301:SourceFiles\asw/swc_clock_control.c ****     widget.m_transitions    =   (STATE_stateInnerTransitionTable_t*)    CLOCK_Widget_Transitions;
 2235              		.loc 1 301 0
 2236 0014 0322     		movs	r2, #3
 2237 0016 8DF84420 		strb	r2, [sp, #68]
 302:SourceFiles\asw/swc_clock_control.c ****     widget.m_stateActions   =   (STATE_stateAction_t*)                  CLOCK_StateActions;
 2238              		.loc 1 302 0
 2239 001a 06F11802 		add	r2, r6, #24
 2240 001e 1292     		str	r2, [sp, #72]
 303:SourceFiles\asw/swc_clock_control.c ****     widget.m_value          =                                           0;
 2241              		.loc 1 303 0
 2242 0020 1396     		str	r6, [sp, #76]
 304:SourceFiles\asw/swc_clock_control.c ****     
 2243              		.loc 1 304 0
 2244 0022 ADF85030 		strh	r3, [sp, #80]	@ movhi
 308:SourceFiles\asw/swc_clock_control.c ****     font.background         =   BLACK;
 2245              		.loc 1 308 0
 2246 0026 4FF6FF72 		movw	r2, #65535
ARM GAS  C:\Users\JASON\AppData\Local\Temp\cct5bgFA.s 			page 67


 2247 002a ADF84020 		strh	r2, [sp, #64]	@ movhi
 309:SourceFiles\asw/swc_clock_control.c ****     
 2248              		.loc 1 309 0
 2249 002e ADF84230 		strh	r3, [sp, #66]	@ movhi
 311:SourceFiles\asw/swc_clock_control.c ****     
 2250              		.loc 1 311 0
 2251 0032 24AF     		add	r7, sp, #144
 2252 0034 57F8500D 		ldr	r0, [r7, #-80]!	@ unaligned
 2253              	.LVL200:
 2254 0038 CDF85200 		str	r0, [sp, #82]	@ unaligned
 313:SourceFiles\asw/swc_clock_control.c ****     
 2255              		.loc 1 313 0
 2256 003c 1AAC     		add	r4, sp, #104
 2257 003e 11AD     		add	r5, sp, #68
 2258 0040 0FCD     		ldmia	r5!, {r0, r1, r2, r3}
 2259 0042 0FC4     		stmia	r4!, {r0, r1, r2, r3}
 2260 0044 2B68     		ldr	r3, [r5]
 2261 0046 2360     		str	r3, [r4]
 323:SourceFiles\asw/swc_clock_control.c ****     
 2262              		.loc 1 323 0
 2263 0048 3868     		ldr	r0, [r7]	@ unaligned
 2264 004a CDF85200 		str	r0, [sp, #82]	@ unaligned
 325:SourceFiles\asw/swc_clock_control.c ****     
 2265              		.loc 1 325 0
 2266 004e 1FAC     		add	r4, sp, #124
 2267 0050 11AD     		add	r5, sp, #68
 2268 0052 0FCD     		ldmia	r5!, {r0, r1, r2, r3}
 2269 0054 0FC4     		stmia	r4!, {r0, r1, r2, r3}
 2270 0056 2B68     		ldr	r3, [r5]
 2271 0058 2360     		str	r3, [r4]
 329:SourceFiles\asw/swc_clock_control.c ****     
 2272              		.loc 1 329 0
 2273 005a 0DF13F02 		add	r2, sp, #63
 2274 005e 0221     		movs	r1, #2
 2275 0060 3046     		mov	r0, r6
 2276 0062 FFF7FEFF 		bl	STATE_initState
 2277              	.LVL201:
 331:SourceFiles\asw/swc_clock_control.c ****     
 2278              		.loc 1 331 0
 2279 0066 9DF83F30 		ldrb	r3, [sp, #63]	@ zero_extendqisi2
 2280 006a 8DF85830 		strb	r3, [sp, #88]
 2281              	.LVL202:
 2282 006e 01AC     		add	r4, sp, #4
 2283 0070 16AD     		add	r5, sp, #88
 2284 0072 0FCD     		ldmia	r5!, {r0, r1, r2, r3}
 2285 0074 0FC4     		stmia	r4!, {r0, r1, r2, r3}
 2286 0076 0FCD     		ldmia	r5!, {r0, r1, r2, r3}
 2287 0078 0FC4     		stmia	r4!, {r0, r1, r2, r3}
 2288 007a 0FCD     		ldmia	r5!, {r0, r1, r2, r3}
 2289 007c 0FC4     		stmia	r4!, {r0, r1, r2, r3}
 2290 007e 95E80300 		ldmia	r5, {r0, r1}
 2291 0082 84E80300 		stmia	r4, {r0, r1}
 2292              	.LVL203:
 2293              	.LBB129:
 2294              	.LBB130:
 304:.\SourceFiles\rte/sc_clock.h ****    signal->value  = value;
 2295              		.loc 2 304 0
ARM GAS  C:\Users\JASON\AppData\Local\Temp\cct5bgFA.s 			page 68


 2296 0086 234B     		ldr	r3, .L170+4
 2297 0088 1B6C     		ldr	r3, [r3, #64]
 2298 008a 93F82020 		ldrb	r2, [r3, #32]	@ zero_extendqisi2
 2299 008e 012A     		cmp	r2, #1
 2300 0090 02D1     		bne	.L163
 2301 0092 586A     		ldr	r0, [r3, #36]
 2302 0094 FFF7FEFF 		bl	EE_oo_GetResource
 2303              	.LVL204:
 2304              	.L163:
 305:.\SourceFiles\rte/sc_clock.h ****    signal->age    = 0;
 2305              		.loc 2 305 0
 2306 0098 1E4E     		ldr	r6, .L170+4
 2307 009a 3446     		mov	r4, r6
 2308 009c 01AD     		add	r5, sp, #4
 2309 009e 0FCD     		ldmia	r5!, {r0, r1, r2, r3}
 2310 00a0 0FC4     		stmia	r4!, {r0, r1, r2, r3}
 2311 00a2 0FCD     		ldmia	r5!, {r0, r1, r2, r3}
 2312 00a4 0FC4     		stmia	r4!, {r0, r1, r2, r3}
 2313 00a6 0FCD     		ldmia	r5!, {r0, r1, r2, r3}
 2314 00a8 0FC4     		stmia	r4!, {r0, r1, r2, r3}
 2315 00aa 95E80300 		ldmia	r5, {r0, r1}
 2316 00ae 84E80300 		stmia	r4, {r0, r1}
 306:.\SourceFiles\rte/sc_clock.h ****    signal->status = RTE_SIGNALSTATUS_VALID;
 2317              		.loc 2 306 0
 2318 00b2 0023     		movs	r3, #0
 2319 00b4 F363     		str	r3, [r6, #60]
 307:.\SourceFiles\rte/sc_clock.h ****    if (TRUE == signal->pSigCfg->resourceActive) ReleaseResource(signal->pSigCfg->resource);
 2320              		.loc 2 307 0
 2321 00b6 0223     		movs	r3, #2
 2322 00b8 86F83830 		strb	r3, [r6, #56]
 308:.\SourceFiles\rte/sc_clock.h **** 
 2323              		.loc 2 308 0
 2324 00bc 336C     		ldr	r3, [r6, #64]
 2325 00be 93F82020 		ldrb	r2, [r3, #32]	@ zero_extendqisi2
 2326 00c2 012A     		cmp	r2, #1
 2327 00c4 02D1     		bne	.L164
 2328 00c6 586A     		ldr	r0, [r3, #36]
 2329 00c8 FFF7FEFF 		bl	EE_oo_ReleaseResource
 2330              	.LVL205:
 2331              	.L164:
 311:.\SourceFiles\rte/sc_clock.h **** 
 2332              		.loc 2 311 0
 2333 00cc 114B     		ldr	r3, .L170+4
 2334 00ce 1B6C     		ldr	r3, [r3, #64]
 2335 00d0 5D69     		ldr	r5, [r3, #20]
 2336              	.LVL206:
 313:.\SourceFiles\rte/sc_clock.h ****       for( taskNum=0 ; taskNum < signal->pSigCfg->onUpdateTaskCount ;taskNum++){
 2337              		.loc 2 313 0
 2338 00d2 9B68     		ldr	r3, [r3, #8]
 2339 00d4 73B1     		cbz	r3, .L165
 2340 00d6 3DB9     		cbnz	r5, .L168
 2341 00d8 0CE0     		b	.L165
 2342              	.LVL207:
 2343              	.L167:
 2344              	.LBB131:
 2345              		.loc 2 317 0
 2346 00da 9968     		ldr	r1, [r3, #8]
ARM GAS  C:\Users\JASON\AppData\Local\Temp\cct5bgFA.s 			page 69


 2347 00dc 55F82400 		ldr	r0, [r5, r4, lsl #2]
 2348 00e0 FFF7FEFF 		bl	EE_oo_SetEvent
 2349              	.LVL208:
 2350              	.LBE131:
 314:.\SourceFiles\rte/sc_clock.h **** 		  
 2351              		.loc 2 314 0
 2352 00e4 0134     		adds	r4, r4, #1
 2353              	.LVL209:
 2354 00e6 00E0     		b	.L166
 2355              	.LVL210:
 2356              	.L168:
 313:.\SourceFiles\rte/sc_clock.h ****       for( taskNum=0 ; taskNum < signal->pSigCfg->onUpdateTaskCount ;taskNum++){
 2357              		.loc 2 313 0
 2358 00e8 0024     		movs	r4, #0
 2359              	.LVL211:
 2360              	.L166:
 314:.\SourceFiles\rte/sc_clock.h **** 		  
 2361              		.loc 2 314 0
 2362 00ea 0A4B     		ldr	r3, .L170+4
 2363 00ec 1B6C     		ldr	r3, [r3, #64]
 2364 00ee 1A69     		ldr	r2, [r3, #16]
 2365 00f0 9442     		cmp	r4, r2
 2366 00f2 F2D3     		bcc	.L167
 2367              	.LVL212:
 2368              	.L165:
 2369              	.LBE130:
 2370              	.LBE129:
 336:SourceFiles\asw/swc_clock_control.c ****     TFT_setColors(WHITE, BLACK);
 2371              		.loc 1 336 0
 2372 00f4 6420     		movs	r0, #100
 2373 00f6 FFF7FEFF 		bl	TFT_setBacklight
 2374              	.LVL213:
 337:SourceFiles\asw/swc_clock_control.c ****     TFT_setTextSize(3);
 2375              		.loc 1 337 0
 2376 00fa 0021     		movs	r1, #0
 2377 00fc 4FF6FF70 		movw	r0, #65535
 2378 0100 FFF7FEFF 		bl	TFT_setColors
 2379              	.LVL214:
 338:SourceFiles\asw/swc_clock_control.c ****     
 2380              		.loc 1 338 0
 2381 0104 0320     		movs	r0, #3
 2382 0106 FFF7FEFF 		bl	TFT_setTextSize
 2383              	.LVL215:
 341:SourceFiles\asw/swc_clock_control.c **** 
 2384              		.loc 1 341 0
 2385 010a 25B0     		add	sp, sp, #148
 2386              		.cfi_def_cfa_offset 20
 2387              		@ sp needed
 2388 010c F0BD     		pop	{r4, r5, r6, r7, pc}
 2389              	.L171:
 2390 010e 00BF     		.align	2
 2391              	.L170:
 2392 0110 00000000 		.word	.LANCHOR1
 2393 0114 00000000 		.word	SO_CLOCK_signal
 2394              		.cfi_endproc
 2395              	.LFE132:
 2396              		.size	CLOCK_CONTROL_init_run, .-CLOCK_CONTROL_init_run
ARM GAS  C:\Users\JASON\AppData\Local\Temp\cct5bgFA.s 			page 70


 2397              		.global	autoIncrement_st
 2398              		.global	increment1Min_st
 2399              		.section	.rodata
 2400              		.align	2
 2401              		.set	.LANCHOR1,. + 0
 2402              		.type	CLOCK_StateActions, %object
 2403              		.size	CLOCK_StateActions, 24
 2404              	CLOCK_StateActions:
 2405 0000 00       		.byte	0
 2406 0001 000000   		.space	3
 2407 0004 00000000 		.word	CLOCK_setIncrement1Min
 2408 0008 00000000 		.word	CLOCK_resetIncrement1Min
 2409 000c 05       		.byte	5
 2410 000d 000000   		.space	3
 2411 0010 00000000 		.word	CLOCK_setAutoIncrement
 2412 0014 00000000 		.word	CLOCK_resetAutoIncrement
 2413              		.type	CLOCK_Widget_Transitions, %object
 2414              		.size	CLOCK_Widget_Transitions, 36
 2415              	CLOCK_Widget_Transitions:
 2416 0018 03       		.byte	3
 2417 0019 000000   		.space	3
 2418 001c A8000000 		.word	STATE_CLOCK_W_ISDISPLAYING_Transitions
 2419 0020 0100     		.short	1
 2420 0022 0000     		.space	2
 2421 0024 04       		.byte	4
 2422 0025 000000   		.space	3
 2423 0028 84000000 		.word	STATE_CLOCK_W_ISEDITING_Transitions
 2424 002c 0300     		.short	3
 2425 002e 0000     		.space	2
 2426 0030 05       		.byte	5
 2427 0031 000000   		.space	3
 2428 0034 60000000 		.word	STATE_CLOCK_W_ISAUTOINCREMENT_Transitions
 2429 0038 0300     		.short	3
 2430 003a 0000     		.space	2
 2431              		.type	CLOCK_Container_Transitions, %object
 2432              		.size	CLOCK_Container_Transitions, 36
 2433              	CLOCK_Container_Transitions:
 2434 003c 00       		.byte	0
 2435 003d 000000   		.space	3
 2436 0040 14010000 		.word	STATE_CLOCK_C_ISDISPLAYING_Transitions
 2437 0044 0200     		.short	2
 2438 0046 0000     		.space	2
 2439 0048 01       		.byte	1
 2440 0049 000000   		.space	3
 2441 004c B4000000 		.word	STATE_CLOCK_C_ISEDITINGMINUTES_Transitions
 2442 0050 0400     		.short	4
 2443 0052 0000     		.space	2
 2444 0054 02       		.byte	2
 2445 0055 000000   		.space	3
 2446 0058 E4000000 		.word	STATE_CLOCK_C_ISEDITINGHOURS_Transitions
 2447 005c 0400     		.short	4
 2448 005e 0000     		.space	2
 2449              		.type	STATE_CLOCK_W_ISAUTOINCREMENT_Transitions, %object
 2450              		.size	STATE_CLOCK_W_ISAUTOINCREMENT_Transitions, 36
 2451              	STATE_CLOCK_W_ISAUTOINCREMENT_Transitions:
 2452 0060 02       		.byte	2
 2453 0061 04       		.byte	4
ARM GAS  C:\Users\JASON\AppData\Local\Temp\cct5bgFA.s 			page 71


 2454 0062 0000     		.space	2
 2455 0064 00000000 		.word	0
 2456 0068 00000000 		.word	0
 2457 006c 04       		.byte	4
 2458 006d 05       		.byte	5
 2459 006e 0000     		.space	2
 2460 0070 00000000 		.word	0
 2461 0074 00000000 		.word	CLOCK__incrementWidget
 2462 0078 01       		.byte	1
 2463 0079 03       		.byte	3
 2464 007a 0000     		.space	2
 2465 007c 00000000 		.word	0
 2466 0080 00000000 		.word	CLOCK__errorHandler
 2467              		.type	STATE_CLOCK_W_ISEDITING_Transitions, %object
 2468              		.size	STATE_CLOCK_W_ISEDITING_Transitions, 36
 2469              	STATE_CLOCK_W_ISEDITING_Transitions:
 2470 0084 02       		.byte	2
 2471 0085 04       		.byte	4
 2472 0086 0000     		.space	2
 2473 0088 00000000 		.word	0
 2474 008c 00000000 		.word	CLOCK__incrementWidget
 2475 0090 03       		.byte	3
 2476 0091 05       		.byte	5
 2477 0092 0000     		.space	2
 2478 0094 00000000 		.word	0
 2479 0098 00000000 		.word	0
 2480 009c 01       		.byte	1
 2481 009d 03       		.byte	3
 2482 009e 0000     		.space	2
 2483 00a0 00000000 		.word	0
 2484 00a4 00000000 		.word	CLOCK__setDisplayFonts
 2485              		.type	STATE_CLOCK_W_ISDISPLAYING_Transitions, %object
 2486              		.size	STATE_CLOCK_W_ISDISPLAYING_Transitions, 12
 2487              	STATE_CLOCK_W_ISDISPLAYING_Transitions:
 2488 00a8 01       		.byte	1
 2489 00a9 04       		.byte	4
 2490 00aa 0000     		.space	2
 2491 00ac 00000000 		.word	0
 2492 00b0 00000000 		.word	CLOCK__setEditFonts
 2493              		.type	STATE_CLOCK_C_ISEDITINGMINUTES_Transitions, %object
 2494              		.size	STATE_CLOCK_C_ISEDITINGMINUTES_Transitions, 48
 2495              	STATE_CLOCK_C_ISEDITINGMINUTES_Transitions:
 2496 00b4 01       		.byte	1
 2497 00b5 00       		.byte	0
 2498 00b6 0000     		.space	2
 2499 00b8 00000000 		.word	0
 2500 00bc 00000000 		.word	CLOCK__dispatch_KL_Min
 2501 00c0 02       		.byte	2
 2502 00c1 01       		.byte	1
 2503 00c2 0000     		.space	2
 2504 00c4 00000000 		.word	0
 2505 00c8 00000000 		.word	CLOCK__dispatch_KR_Min
 2506 00cc 03       		.byte	3
 2507 00cd 01       		.byte	1
 2508 00ce 0000     		.space	2
 2509 00d0 00000000 		.word	0
 2510 00d4 00000000 		.word	CLOCK__dispatch_KRLP_Min
ARM GAS  C:\Users\JASON\AppData\Local\Temp\cct5bgFA.s 			page 72


 2511 00d8 04       		.byte	4
 2512 00d9 01       		.byte	1
 2513 00da 0000     		.space	2
 2514 00dc 00000000 		.word	0
 2515 00e0 00000000 		.word	CLOCK__dispatch_250MS_Min
 2516              		.type	STATE_CLOCK_C_ISEDITINGHOURS_Transitions, %object
 2517              		.size	STATE_CLOCK_C_ISEDITINGHOURS_Transitions, 48
 2518              	STATE_CLOCK_C_ISEDITINGHOURS_Transitions:
 2519 00e4 01       		.byte	1
 2520 00e5 01       		.byte	1
 2521 00e6 0000     		.space	2
 2522 00e8 00000000 		.word	0
 2523 00ec 00000000 		.word	CLOCK__dispatch_KL_HoursMin
 2524 00f0 02       		.byte	2
 2525 00f1 02       		.byte	2
 2526 00f2 0000     		.space	2
 2527 00f4 00000000 		.word	0
 2528 00f8 00000000 		.word	CLOCK__dispatch_KR_Hours
 2529 00fc 03       		.byte	3
 2530 00fd 02       		.byte	2
 2531 00fe 0000     		.space	2
 2532 0100 00000000 		.word	0
 2533 0104 00000000 		.word	CLOCK__dispatch_KRLP_Hours
 2534 0108 04       		.byte	4
 2535 0109 02       		.byte	2
 2536 010a 0000     		.space	2
 2537 010c 00000000 		.word	0
 2538 0110 00000000 		.word	CLOCK__dispatch_250MS_Hours
 2539              		.type	STATE_CLOCK_C_ISDISPLAYING_Transitions, %object
 2540              		.size	STATE_CLOCK_C_ISDISPLAYING_Transitions, 24
 2541              	STATE_CLOCK_C_ISDISPLAYING_Transitions:
 2542 0114 01       		.byte	1
 2543 0115 02       		.byte	2
 2544 0116 0000     		.space	2
 2545 0118 00000000 		.word	0
 2546 011c 00000000 		.word	CLOCK__dispatch_KL_Hours
 2547 0120 05       		.byte	5
 2548 0121 00       		.byte	0
 2549 0122 0000     		.space	2
 2550 0124 00000000 		.word	0
 2551 0128 00000000 		.word	CLOCK__increment1Minute
 2552              		.section	.rodata.str1.4,"aMS",%progbits,1
 2553              		.align	2
 2554              	.LC0:
 2555 0000 434C4F43 		.ascii	"CLOCK__dispatch_250MS_Hours\012\000"
 2555      4B5F5F64 
 2555      69737061 
 2555      7463685F 
 2555      3235304D 
 2556 001d 000000   		.space	3
 2557              	.LC1:
 2558 0020 434C4F43 		.ascii	"CLOCK__dispatch_KR_Hours\012\000"
 2558      4B5F5F64 
 2558      69737061 
 2558      7463685F 
 2558      4B525F48 
 2559 003a 0000     		.space	2
ARM GAS  C:\Users\JASON\AppData\Local\Temp\cct5bgFA.s 			page 73


 2560              	.LC2:
 2561 003c 434C4F43 		.ascii	"CLOCK__dispatch_KL_HoursMin\012\000"
 2561      4B5F5F64 
 2561      69737061 
 2561      7463685F 
 2561      4B4C5F48 
 2562 0059 000000   		.space	3
 2563              	.LC3:
 2564 005c 434C4F43 		.ascii	"CLOCK__dispatch_250MS_Min\012\000"
 2564      4B5F5F64 
 2564      69737061 
 2564      7463685F 
 2564      3235304D 
 2565 0077 00       		.space	1
 2566              	.LC4:
 2567 0078 434C4F43 		.ascii	"CLOCK__dispatch_KR_Minutes\012\000"
 2567      4B5F5F64 
 2567      69737061 
 2567      7463685F 
 2567      4B525F4D 
 2568              	.LC5:
 2569 0094 434C4F43 		.ascii	"CLOCK__dispatch_KL_Minutes\012\000"
 2569      4B5F5F64 
 2569      69737061 
 2569      7463685F 
 2569      4B4C5F4D 
 2570              	.LC6:
 2571 00b0 434C4F43 		.ascii	"CLOCK__dispatch_KL_Hours\012\000"
 2571      4B5F5F64 
 2571      69737061 
 2571      7463685F 
 2571      4B4C5F48 
 2572 00ca 0000     		.space	2
 2573              	.LC7:
 2574 00cc 434C4F43 		.ascii	"CLOCK__errorHandler\012\000"
 2574      4B5F5F65 
 2574      72726F72 
 2574      48616E64 
 2574      6C65720A 
 2575 00e1 000000   		.space	3
 2576              	.LC8:
 2577 00e4 434C4F43 		.ascii	"CLOCK__incrementWidget\012\000"
 2577      4B5F5F69 
 2577      6E637265 
 2577      6D656E74 
 2577      57696467 
 2578              	.LC9:
 2579 00fc 434C4F43 		.ascii	"CLOCK__setDisplayFonts\012\000"
 2579      4B5F5F73 
 2579      65744469 
 2579      73706C61 
 2579      79466F6E 
 2580              	.LC10:
 2581 0114 434C4F43 		.ascii	"CLOCK__setEditFonts\012\000"
 2581      4B5F5F73 
 2581      65744564 
 2581      6974466F 
ARM GAS  C:\Users\JASON\AppData\Local\Temp\cct5bgFA.s 			page 74


 2581      6E74730A 
 2582 0129 000000   		.space	3
 2583              	.LC11:
 2584 012c 434C4F43 		.ascii	"CLOCK__dispatch_KRLP_Hours\012\000"
 2584      4B5F5F64 
 2584      69737061 
 2584      7463685F 
 2584      4B524C50 
 2585              	.LC12:
 2586 0148 434C4F43 		.ascii	"CLOCK__dispatch_KRLP_Min\012\000"
 2586      4B5F5F64 
 2586      69737061 
 2586      7463685F 
 2586      4B524C50 
 2587 0162 0000     		.space	2
 2588              	.LC13:
 2589 0164 434C4F43 		.ascii	"CLOCK__increment1Minute\012\000"
 2589      4B5F5F69 
 2589      6E637265 
 2589      6D656E74 
 2589      314D696E 
 2590 017d 000000   		.space	3
 2591              	.LC14:
 2592 0180 434C4F43 		.ascii	"CLOCK__errorHandlerRoutine\012\000"
 2592      4B5F5F65 
 2592      72726F72 
 2592      48616E64 
 2592      6C657252 
 2593              	.LC15:
 2594 019c 0A00     		.ascii	"\012\000"
 2595 019e 0000     		.space	2
 2596              	.LC16:
 2597 01a0 0A0A0A00 		.ascii	"\012\012\012\000"
 2598              		.bss
 2599              		.align	2
 2600              		.set	.LANCHOR0,. + 0
 2601              		.type	increment1Min_st, %object
 2602              		.size	increment1Min_st, 1
 2603              	increment1Min_st:
 2604 0000 00       		.space	1
 2605              		.type	autoIncrement_st, %object
 2606              		.size	autoIncrement_st, 1
 2607              	autoIncrement_st:
 2608 0001 00       		.space	1
 2609 0002 0000     		.space	2
 2610              		.type	asciiConvert.7702, %object
 2611              		.size	asciiConvert.7702, 30
 2612              	asciiConvert.7702:
 2613 0004 00000000 		.space	30
 2613      00000000 
 2613      00000000 
 2613      00000000 
 2613      00000000 
 2614              		.text
 2615              	.Letext0:
 2616              		.file 4 "c:\\program files (x86)\\cypress\\psoc creator\\4.4\\psoc creator\\import\\gnu\\arm\\5.4.
 2617              		.file 5 "c:\\program files (x86)\\cypress\\psoc creator\\4.4\\psoc creator\\import\\gnu\\arm\\5.4.
ARM GAS  C:\Users\JASON\AppData\Local\Temp\cct5bgFA.s 			page 75


 2618              		.file 6 "c:\\program files (x86)\\cypress\\psoc creator\\4.4\\psoc creator\\import\\gnu\\arm\\5.4.
 2619              		.file 7 "Generated_Source\\PSoC5/ErikaOS_common_ee_types.inc"
 2620              		.file 8 "Generated_Source\\PSoC5/ErikaOS_cortex_mx_ee_cpu.inc"
 2621              		.file 9 "Generated_Source\\PSoC5/ErikaOS_ee_oo_common.inc"
 2622              		.file 10 ".\\SourceFiles\\bsw/global.h"
 2623              		.file 11 ".\\SourceFiles\\rte/rte_types.h"
 2624              		.file 12 ".\\SourceFiles\\rte/rte.h"
 2625              		.file 13 ".\\SourceFiles\\bsw\\tft/tft.h"
 2626              		.file 14 "SourceFiles\\asw\\clock_statemachine_cfg.h"
 2627              		.file 15 "SourceFiles\\asw\\clock_statemachine.h"
 2628              		.file 16 ".\\SourceFiles\\rte/sc_clock_type.h"
 2629              		.file 17 ".\\SourceFiles\\rte/sc_event_type.h"
 2630              		.file 18 "Generated_Source\\PSoC5/ErikaOS_ee_oo_intfunc.inc"
 2631              		.file 19 "Generated_Source\\PSoC5/ErikaOS_cortex_mx_ee_context.inc"
 2632              		.file 20 "Generated_Source\\PSoC5/ErikaOS_common_ee_primitives.inc"
 2633              		.file 21 "Generated_Source\\PSoC5/core_cm3.h"
 2634              		.file 22 ".\\SourceFiles\\rte/sp_common.h"
 2635              		.file 23 "Generated_Source\\PSoC5/ErikaOS_ee_oo_kernel.inc"
 2636              		.file 24 "Generated_Source\\PSoC5/UART_LOG.h"
 2637              		.file 25 ".\\SourceFiles\\bsw/intToASCII.h"
 2638              		.section	.debug_info,"",%progbits
 2639              	.Ldebug_info0:
 2640 0000 0A1B0000 		.4byte	0x1b0a
 2641 0004 0400     		.2byte	0x4
 2642 0006 00000000 		.4byte	.Ldebug_abbrev0
 2643 000a 04       		.byte	0x4
 2644 000b 01       		.uleb128 0x1
 2645 000c C20A0000 		.4byte	.LASF236
 2646 0010 0C       		.byte	0xc
 2647 0011 00040000 		.4byte	.LASF237
 2648 0015 C1080000 		.4byte	.LASF238
 2649 0019 00000000 		.4byte	.Ldebug_ranges0+0
 2650 001d 00000000 		.4byte	0
 2651 0021 00000000 		.4byte	.Ldebug_line0
 2652 0025 02       		.uleb128 0x2
 2653 0026 01       		.byte	0x1
 2654 0027 06       		.byte	0x6
 2655 0028 59020000 		.4byte	.LASF0
 2656 002c 03       		.uleb128 0x3
 2657 002d D4000000 		.4byte	.LASF3
 2658 0031 04       		.byte	0x4
 2659 0032 1D       		.byte	0x1d
 2660 0033 37000000 		.4byte	0x37
 2661 0037 02       		.uleb128 0x2
 2662 0038 01       		.byte	0x1
 2663 0039 08       		.byte	0x8
 2664 003a 2E0A0000 		.4byte	.LASF1
 2665 003e 02       		.uleb128 0x2
 2666 003f 02       		.byte	0x2
 2667 0040 05       		.byte	0x5
 2668 0041 950A0000 		.4byte	.LASF2
 2669 0045 03       		.uleb128 0x3
 2670 0046 730C0000 		.4byte	.LASF4
 2671 004a 04       		.byte	0x4
 2672 004b 2B       		.byte	0x2b
 2673 004c 50000000 		.4byte	0x50
 2674 0050 02       		.uleb128 0x2
ARM GAS  C:\Users\JASON\AppData\Local\Temp\cct5bgFA.s 			page 76


 2675 0051 02       		.byte	0x2
 2676 0052 07       		.byte	0x7
 2677 0053 430D0000 		.4byte	.LASF5
 2678 0057 03       		.uleb128 0x3
 2679 0058 A2010000 		.4byte	.LASF6
 2680 005c 04       		.byte	0x4
 2681 005d 3F       		.byte	0x3f
 2682 005e 62000000 		.4byte	0x62
 2683 0062 02       		.uleb128 0x2
 2684 0063 04       		.byte	0x4
 2685 0064 05       		.byte	0x5
 2686 0065 3C030000 		.4byte	.LASF7
 2687 0069 03       		.uleb128 0x3
 2688 006a 76040000 		.4byte	.LASF8
 2689 006e 04       		.byte	0x4
 2690 006f 41       		.byte	0x41
 2691 0070 74000000 		.4byte	0x74
 2692 0074 02       		.uleb128 0x2
 2693 0075 04       		.byte	0x4
 2694 0076 07       		.byte	0x7
 2695 0077 090C0000 		.4byte	.LASF9
 2696 007b 02       		.uleb128 0x2
 2697 007c 08       		.byte	0x8
 2698 007d 05       		.byte	0x5
 2699 007e CA040000 		.4byte	.LASF10
 2700 0082 02       		.uleb128 0x2
 2701 0083 08       		.byte	0x8
 2702 0084 07       		.byte	0x7
 2703 0085 EB050000 		.4byte	.LASF11
 2704 0089 04       		.uleb128 0x4
 2705 008a 04       		.byte	0x4
 2706 008b 05       		.byte	0x5
 2707 008c 696E7400 		.ascii	"int\000"
 2708 0090 02       		.uleb128 0x2
 2709 0091 04       		.byte	0x4
 2710 0092 07       		.byte	0x7
 2711 0093 5F0C0000 		.4byte	.LASF12
 2712 0097 03       		.uleb128 0x3
 2713 0098 360E0000 		.4byte	.LASF13
 2714 009c 05       		.byte	0x5
 2715 009d 18       		.byte	0x18
 2716 009e 2C000000 		.4byte	0x2c
 2717 00a2 03       		.uleb128 0x3
 2718 00a3 14050000 		.4byte	.LASF14
 2719 00a7 05       		.byte	0x5
 2720 00a8 24       		.byte	0x24
 2721 00a9 45000000 		.4byte	0x45
 2722 00ad 03       		.uleb128 0x3
 2723 00ae 260A0000 		.4byte	.LASF15
 2724 00b2 05       		.byte	0x5
 2725 00b3 2C       		.byte	0x2c
 2726 00b4 57000000 		.4byte	0x57
 2727 00b8 03       		.uleb128 0x3
 2728 00b9 D60B0000 		.4byte	.LASF16
 2729 00bd 05       		.byte	0x5
 2730 00be 30       		.byte	0x30
 2731 00bf 69000000 		.4byte	0x69
ARM GAS  C:\Users\JASON\AppData\Local\Temp\cct5bgFA.s 			page 77


 2732 00c3 02       		.uleb128 0x2
 2733 00c4 04       		.byte	0x4
 2734 00c5 04       		.byte	0x4
 2735 00c6 8E090000 		.4byte	.LASF17
 2736 00ca 02       		.uleb128 0x2
 2737 00cb 08       		.byte	0x8
 2738 00cc 04       		.byte	0x4
 2739 00cd BF030000 		.4byte	.LASF18
 2740 00d1 02       		.uleb128 0x2
 2741 00d2 01       		.byte	0x1
 2742 00d3 08       		.byte	0x8
 2743 00d4 430C0000 		.4byte	.LASF19
 2744 00d8 03       		.uleb128 0x3
 2745 00d9 59000000 		.4byte	.LASF20
 2746 00dd 06       		.byte	0x6
 2747 00de D8       		.byte	0xd8
 2748 00df 90000000 		.4byte	0x90
 2749 00e3 02       		.uleb128 0x2
 2750 00e4 08       		.byte	0x8
 2751 00e5 04       		.byte	0x4
 2752 00e6 F5070000 		.4byte	.LASF21
 2753 00ea 03       		.uleb128 0x3
 2754 00eb 2D0E0000 		.4byte	.LASF22
 2755 00ef 07       		.byte	0x7
 2756 00f0 53       		.byte	0x53
 2757 00f1 89000000 		.4byte	0x89
 2758 00f5 03       		.uleb128 0x3
 2759 00f6 130E0000 		.4byte	.LASF23
 2760 00fa 07       		.byte	0x7
 2761 00fb 54       		.byte	0x54
 2762 00fc 90000000 		.4byte	0x90
 2763 0100 03       		.uleb128 0x3
 2764 0101 3E050000 		.4byte	.LASF24
 2765 0105 08       		.byte	0x8
 2766 0106 4D       		.byte	0x4d
 2767 0107 F5000000 		.4byte	0xf5
 2768 010b 03       		.uleb128 0x3
 2769 010c A20F0000 		.4byte	.LASF25
 2770 0110 08       		.byte	0x8
 2771 0111 4F       		.byte	0x4f
 2772 0112 F5000000 		.4byte	0xf5
 2773 0116 03       		.uleb128 0x3
 2774 0117 67090000 		.4byte	.LASF26
 2775 011b 08       		.byte	0x8
 2776 011c 78       		.byte	0x78
 2777 011d EA000000 		.4byte	0xea
 2778 0121 05       		.uleb128 0x5
 2779 0122 0D060000 		.4byte	.LASF27
 2780 0126 09       		.byte	0x9
 2781 0127 F701     		.2byte	0x1f7
 2782 0129 16010000 		.4byte	0x116
 2783 012d 05       		.uleb128 0x5
 2784 012e F00C0000 		.4byte	.LASF28
 2785 0132 09       		.byte	0x9
 2786 0133 2102     		.2byte	0x221
 2787 0135 00010000 		.4byte	0x100
 2788 0139 05       		.uleb128 0x5
ARM GAS  C:\Users\JASON\AppData\Local\Temp\cct5bgFA.s 			page 78


 2789 013a 0D0F0000 		.4byte	.LASF29
 2790 013e 09       		.byte	0x9
 2791 013f 2C02     		.2byte	0x22c
 2792 0141 00010000 		.4byte	0x100
 2793 0145 02       		.uleb128 0x2
 2794 0146 04       		.byte	0x4
 2795 0147 07       		.byte	0x7
 2796 0148 B9070000 		.4byte	.LASF30
 2797 014c 03       		.uleb128 0x3
 2798 014d 01080000 		.4byte	.LASF31
 2799 0151 0A       		.byte	0xa
 2800 0152 9C       		.byte	0x9c
 2801 0153 37000000 		.4byte	0x37
 2802 0157 06       		.uleb128 0x6
 2803 0158 01       		.byte	0x1
 2804 0159 25000000 		.4byte	0x25
 2805 015d 0A       		.byte	0xa
 2806 015e CF       		.byte	0xcf
 2807 015f 00020000 		.4byte	0x200
 2808 0163 07       		.uleb128 0x7
 2809 0164 8B050000 		.4byte	.LASF32
 2810 0168 00       		.byte	0
 2811 0169 08       		.uleb128 0x8
 2812 016a 80090000 		.4byte	.LASF33
 2813 016e 7F       		.sleb128 -1
 2814 016f 08       		.uleb128 0x8
 2815 0170 73050000 		.4byte	.LASF34
 2816 0174 7E       		.sleb128 -2
 2817 0175 08       		.uleb128 0x8
 2818 0176 B40A0000 		.4byte	.LASF35
 2819 017a 7D       		.sleb128 -3
 2820 017b 08       		.uleb128 0x8
 2821 017c 83070000 		.4byte	.LASF36
 2822 0180 7C       		.sleb128 -4
 2823 0181 08       		.uleb128 0x8
 2824 0182 E3000000 		.4byte	.LASF37
 2825 0186 7B       		.sleb128 -5
 2826 0187 08       		.uleb128 0x8
 2827 0188 FD0C0000 		.4byte	.LASF38
 2828 018c 7A       		.sleb128 -6
 2829 018d 08       		.uleb128 0x8
 2830 018e 18090000 		.4byte	.LASF39
 2831 0192 79       		.sleb128 -7
 2832 0193 08       		.uleb128 0x8
 2833 0194 63060000 		.4byte	.LASF40
 2834 0198 78       		.sleb128 -8
 2835 0199 08       		.uleb128 0x8
 2836 019a 0F030000 		.4byte	.LASF41
 2837 019e 77       		.sleb128 -9
 2838 019f 08       		.uleb128 0x8
 2839 01a0 E8090000 		.4byte	.LASF42
 2840 01a4 76       		.sleb128 -10
 2841 01a5 08       		.uleb128 0x8
 2842 01a6 6E010000 		.4byte	.LASF43
 2843 01aa 75       		.sleb128 -11
 2844 01ab 08       		.uleb128 0x8
 2845 01ac A8030000 		.4byte	.LASF44
ARM GAS  C:\Users\JASON\AppData\Local\Temp\cct5bgFA.s 			page 79


 2846 01b0 74       		.sleb128 -12
 2847 01b1 08       		.uleb128 0x8
 2848 01b2 50050000 		.4byte	.LASF45
 2849 01b6 73       		.sleb128 -13
 2850 01b7 08       		.uleb128 0x8
 2851 01b8 F60B0000 		.4byte	.LASF46
 2852 01bc 72       		.sleb128 -14
 2853 01bd 08       		.uleb128 0x8
 2854 01be 3E0E0000 		.4byte	.LASF47
 2855 01c2 71       		.sleb128 -15
 2856 01c3 08       		.uleb128 0x8
 2857 01c4 B3020000 		.4byte	.LASF48
 2858 01c8 70       		.sleb128 -16
 2859 01c9 08       		.uleb128 0x8
 2860 01ca 2A090000 		.4byte	.LASF49
 2861 01ce 6F       		.sleb128 -17
 2862 01cf 08       		.uleb128 0x8
 2863 01d0 8E060000 		.4byte	.LASF50
 2864 01d4 6E       		.sleb128 -18
 2865 01d5 08       		.uleb128 0x8
 2866 01d6 EB060000 		.4byte	.LASF51
 2867 01da 6D       		.sleb128 -19
 2868 01db 08       		.uleb128 0x8
 2869 01dc D8060000 		.4byte	.LASF52
 2870 01e0 6C       		.sleb128 -20
 2871 01e1 08       		.uleb128 0x8
 2872 01e2 3E010000 		.4byte	.LASF53
 2873 01e6 6B       		.sleb128 -21
 2874 01e7 08       		.uleb128 0x8
 2875 01e8 AF080000 		.4byte	.LASF54
 2876 01ec 6A       		.sleb128 -22
 2877 01ed 08       		.uleb128 0x8
 2878 01ee 3A000000 		.4byte	.LASF55
 2879 01f2 69       		.sleb128 -23
 2880 01f3 08       		.uleb128 0x8
 2881 01f4 2D050000 		.4byte	.LASF56
 2882 01f8 68       		.sleb128 -24
 2883 01f9 08       		.uleb128 0x8
 2884 01fa D70C0000 		.4byte	.LASF57
 2885 01fe 67       		.sleb128 -25
 2886 01ff 00       		.byte	0
 2887 0200 03       		.uleb128 0x3
 2888 0201 DE000000 		.4byte	.LASF58
 2889 0205 0A       		.byte	0xa
 2890 0206 EA       		.byte	0xea
 2891 0207 57010000 		.4byte	0x157
 2892 020b 03       		.uleb128 0x3
 2893 020c 670D0000 		.4byte	.LASF59
 2894 0210 0B       		.byte	0xb
 2895 0211 19       		.byte	0x19
 2896 0212 16020000 		.4byte	0x216
 2897 0216 09       		.uleb128 0x9
 2898 0217 21010000 		.4byte	0x121
 2899 021b 21020000 		.4byte	0x221
 2900 021f 0A       		.uleb128 0xa
 2901 0220 00       		.byte	0
 2902 0221 03       		.uleb128 0x3
ARM GAS  C:\Users\JASON\AppData\Local\Temp\cct5bgFA.s 			page 80


 2903 0222 81050000 		.4byte	.LASF60
 2904 0226 0B       		.byte	0xb
 2905 0227 21       		.byte	0x21
 2906 0228 39010000 		.4byte	0x139
 2907 022c 06       		.uleb128 0x6
 2908 022d 01       		.byte	0x1
 2909 022e 37000000 		.4byte	0x37
 2910 0232 0C       		.byte	0xc
 2911 0233 59       		.byte	0x59
 2912 0234 51020000 		.4byte	0x251
 2913 0238 07       		.uleb128 0x7
 2914 0239 B4060000 		.4byte	.LASF61
 2915 023d 00       		.byte	0
 2916 023e 07       		.uleb128 0x7
 2917 023f 08020000 		.4byte	.LASF62
 2918 0243 01       		.byte	0x1
 2919 0244 07       		.uleb128 0x7
 2920 0245 D3030000 		.4byte	.LASF63
 2921 0249 02       		.byte	0x2
 2922 024a 07       		.uleb128 0x7
 2923 024b C2070000 		.4byte	.LASF64
 2924 024f 03       		.byte	0x3
 2925 0250 00       		.byte	0
 2926 0251 03       		.uleb128 0x3
 2927 0252 1E0D0000 		.4byte	.LASF65
 2928 0256 0C       		.byte	0xc
 2929 0257 5E       		.byte	0x5e
 2930 0258 2C020000 		.4byte	0x22c
 2931 025c 06       		.uleb128 0x6
 2932 025d 02       		.byte	0x2
 2933 025e 50000000 		.4byte	0x50
 2934 0262 0D       		.byte	0xd
 2935 0263 5C       		.byte	0x5c
 2936 0264 FA020000 		.4byte	0x2fa
 2937 0268 0B       		.uleb128 0xb
 2938 0269 D9010000 		.4byte	.LASF66
 2939 026d FFFF     		.2byte	0xffff
 2940 026f 07       		.uleb128 0x7
 2941 0270 590C0000 		.4byte	.LASF67
 2942 0274 00       		.byte	0
 2943 0275 0B       		.uleb128 0xb
 2944 0276 7E0C0000 		.4byte	.LASF68
 2945 027a 00F8     		.2byte	0xf800
 2946 027c 0B       		.uleb128 0xb
 2947 027d 89090000 		.4byte	.LASF69
 2948 0281 1FF8     		.2byte	0xf81f
 2949 0283 0B       		.uleb128 0xb
 2950 0284 7F000000 		.4byte	.LASF70
 2951 0288 FF07     		.2byte	0x7ff
 2952 028a 0B       		.uleb128 0xb
 2953 028b E5050000 		.4byte	.LASF71
 2954 028f E0FF     		.2byte	0xffe0
 2955 0291 0C       		.uleb128 0xc
 2956 0292 52454400 		.ascii	"RED\000"
 2957 0296 1F       		.byte	0x1f
 2958 0297 0B       		.uleb128 0xb
 2959 0298 51000000 		.4byte	.LASF72
ARM GAS  C:\Users\JASON\AppData\Local\Temp\cct5bgFA.s 			page 81


 2960 029c 1FF8     		.2byte	0xf81f
 2961 029e 0B       		.uleb128 0xb
 2962 029f B80C0000 		.4byte	.LASF73
 2963 02a3 E007     		.2byte	0x7e0
 2964 02a5 0B       		.uleb128 0xb
 2965 02a6 5A0B0000 		.4byte	.LASF74
 2966 02aa E0FF     		.2byte	0xffe0
 2967 02ac 0B       		.uleb128 0xb
 2968 02ad 9A030000 		.4byte	.LASF75
 2969 02b1 FF07     		.2byte	0x7ff
 2970 02b3 0B       		.uleb128 0xb
 2971 02b4 7B030000 		.4byte	.LASF76
 2972 02b8 3D02     		.2byte	0x23d
 2973 02ba 0B       		.uleb128 0xb
 2974 02bb 81040000 		.4byte	.LASF77
 2975 02bf 3FE0     		.2byte	0xe03f
 2976 02c1 0B       		.uleb128 0xb
 2977 02c2 B9040000 		.4byte	.LASF78
 2978 02c6 210C     		.2byte	0xc21
 2979 02c8 0B       		.uleb128 0xb
 2980 02c9 6E090000 		.4byte	.LASF79
 2981 02cd 89F3     		.2byte	0xf389
 2982 02cf 0B       		.uleb128 0xb
 2983 02d0 2E070000 		.4byte	.LASF80
 2984 02d4 BE3E     		.2byte	0x3ebe
 2985 02d6 0B       		.uleb128 0xb
 2986 02d7 D20E0000 		.4byte	.LASF81
 2987 02db 2A1A     		.2byte	0x1a2a
 2988 02dd 0B       		.uleb128 0xb
 2989 02de 130D0000 		.4byte	.LASF82
 2990 02e2 21F8     		.2byte	0xf821
 2991 02e4 0B       		.uleb128 0xb
 2992 02e5 97040000 		.4byte	.LASF83
 2993 02e9 6318     		.2byte	0x1863
 2994 02eb 0B       		.uleb128 0xb
 2995 02ec 84060000 		.4byte	.LASF84
 2996 02f0 658A     		.2byte	0x8a65
 2997 02f2 0B       		.uleb128 0xb
 2998 02f3 5C060000 		.4byte	.LASF85
 2999 02f7 D448     		.2byte	0x48d4
 3000 02f9 00       		.byte	0
 3001 02fa 03       		.uleb128 0x3
 3002 02fb 24000000 		.4byte	.LASF86
 3003 02ff 0D       		.byte	0xd
 3004 0300 72       		.byte	0x72
 3005 0301 5C020000 		.4byte	0x25c
 3006 0305 06       		.uleb128 0x6
 3007 0306 01       		.byte	0x1
 3008 0307 37000000 		.4byte	0x37
 3009 030b 0E       		.byte	0xe
 3010 030c 0F       		.byte	0xf
 3011 030d 36030000 		.4byte	0x336
 3012 0311 07       		.uleb128 0x7
 3013 0312 F1040000 		.4byte	.LASF87
 3014 0316 00       		.byte	0
 3015 0317 07       		.uleb128 0x7
 3016 0318 40070000 		.4byte	.LASF88
ARM GAS  C:\Users\JASON\AppData\Local\Temp\cct5bgFA.s 			page 82


 3017 031c 01       		.byte	0x1
 3018 031d 07       		.uleb128 0x7
 3019 031e 780B0000 		.4byte	.LASF89
 3020 0322 02       		.byte	0x2
 3021 0323 07       		.uleb128 0x7
 3022 0324 B9000000 		.4byte	.LASF90
 3023 0328 03       		.byte	0x3
 3024 0329 07       		.uleb128 0x7
 3025 032a 4F040000 		.4byte	.LASF91
 3026 032e 04       		.byte	0x4
 3027 032f 07       		.uleb128 0x7
 3028 0330 8E0D0000 		.4byte	.LASF92
 3029 0334 05       		.byte	0x5
 3030 0335 00       		.byte	0
 3031 0336 03       		.uleb128 0x3
 3032 0337 AB000000 		.4byte	.LASF93
 3033 033b 0E       		.byte	0xe
 3034 033c 16       		.byte	0x16
 3035 033d 05030000 		.4byte	0x305
 3036 0341 06       		.uleb128 0x6
 3037 0342 01       		.byte	0x1
 3038 0343 37000000 		.4byte	0x37
 3039 0347 0E       		.byte	0xe
 3040 0348 19       		.byte	0x19
 3041 0349 78030000 		.4byte	0x378
 3042 034d 07       		.uleb128 0x7
 3043 034e F60D0000 		.4byte	.LASF94
 3044 0352 00       		.byte	0
 3045 0353 07       		.uleb128 0x7
 3046 0354 00000000 		.4byte	.LASF95
 3047 0358 01       		.byte	0x1
 3048 0359 07       		.uleb128 0x7
 3049 035a BE040000 		.4byte	.LASF96
 3050 035e 02       		.byte	0x2
 3051 035f 07       		.uleb128 0x7
 3052 0360 A20E0000 		.4byte	.LASF97
 3053 0364 03       		.byte	0x3
 3054 0365 07       		.uleb128 0x7
 3055 0366 B6030000 		.4byte	.LASF98
 3056 036a 04       		.byte	0x4
 3057 036b 07       		.uleb128 0x7
 3058 036c 0C050000 		.4byte	.LASF99
 3059 0370 05       		.byte	0x5
 3060 0371 07       		.uleb128 0x7
 3061 0372 99010000 		.4byte	.LASF100
 3062 0376 06       		.byte	0x6
 3063 0377 00       		.byte	0
 3064 0378 03       		.uleb128 0x3
 3065 0379 B1070000 		.4byte	.LASF101
 3066 037d 0E       		.byte	0xe
 3067 037e 21       		.byte	0x21
 3068 037f 41030000 		.4byte	0x341
 3069 0383 03       		.uleb128 0x3
 3070 0384 8C030000 		.4byte	.LASF102
 3071 0388 0E       		.byte	0xe
 3072 0389 25       		.byte	0x25
 3073 038a 36030000 		.4byte	0x336
ARM GAS  C:\Users\JASON\AppData\Local\Temp\cct5bgFA.s 			page 83


 3074 038e 03       		.uleb128 0x3
 3075 038f B40B0000 		.4byte	.LASF103
 3076 0393 0E       		.byte	0xe
 3077 0394 26       		.byte	0x26
 3078 0395 78030000 		.4byte	0x378
 3079 0399 03       		.uleb128 0x3
 3080 039a 780F0000 		.4byte	.LASF104
 3081 039e 0F       		.byte	0xf
 3082 039f 17       		.byte	0x17
 3083 03a0 A4030000 		.4byte	0x3a4
 3084 03a4 0D       		.uleb128 0xd
 3085 03a5 04       		.byte	0x4
 3086 03a6 AA030000 		.4byte	0x3aa
 3087 03aa 0E       		.uleb128 0xe
 3088 03ab B1030000 		.4byte	0x3b1
 3089 03af 0F       		.uleb128 0xf
 3090 03b0 00       		.byte	0
 3091 03b1 03       		.uleb128 0x3
 3092 03b2 2B030000 		.4byte	.LASF105
 3093 03b6 0F       		.byte	0xf
 3094 03b7 1A       		.byte	0x1a
 3095 03b8 BC030000 		.4byte	0x3bc
 3096 03bc 0D       		.uleb128 0xd
 3097 03bd 04       		.byte	0x4
 3098 03be C2030000 		.4byte	0x3c2
 3099 03c2 10       		.uleb128 0x10
 3100 03c3 4C010000 		.4byte	0x14c
 3101 03c7 CD030000 		.4byte	0x3cd
 3102 03cb 0F       		.uleb128 0xf
 3103 03cc 00       		.byte	0
 3104 03cd 11       		.uleb128 0x11
 3105 03ce 0C       		.byte	0xc
 3106 03cf 0F       		.byte	0xf
 3107 03d0 1F       		.byte	0x1f
 3108 03d1 06040000 		.4byte	0x406
 3109 03d5 12       		.uleb128 0x12
 3110 03d6 02060000 		.4byte	.LASF106
 3111 03da 0F       		.byte	0xf
 3112 03db 21       		.byte	0x21
 3113 03dc 8E030000 		.4byte	0x38e
 3114 03e0 00       		.byte	0
 3115 03e1 12       		.uleb128 0x12
 3116 03e2 FD000000 		.4byte	.LASF107
 3117 03e6 0F       		.byte	0xf
 3118 03e7 22       		.byte	0x22
 3119 03e8 83030000 		.4byte	0x383
 3120 03ec 01       		.byte	0x1
 3121 03ed 12       		.uleb128 0x12
 3122 03ee 070F0000 		.4byte	.LASF108
 3123 03f2 0F       		.byte	0xf
 3124 03f3 23       		.byte	0x23
 3125 03f4 B1030000 		.4byte	0x3b1
 3126 03f8 04       		.byte	0x4
 3127 03f9 12       		.uleb128 0x12
 3128 03fa 750D0000 		.4byte	.LASF109
 3129 03fe 0F       		.byte	0xf
 3130 03ff 24       		.byte	0x24
ARM GAS  C:\Users\JASON\AppData\Local\Temp\cct5bgFA.s 			page 84


 3131 0400 99030000 		.4byte	0x399
 3132 0404 08       		.byte	0x8
 3133 0405 00       		.byte	0
 3134 0406 03       		.uleb128 0x3
 3135 0407 0B080000 		.4byte	.LASF110
 3136 040b 0F       		.byte	0xf
 3137 040c 25       		.byte	0x25
 3138 040d CD030000 		.4byte	0x3cd
 3139 0411 03       		.uleb128 0x3
 3140 0412 4F0A0000 		.4byte	.LASF111
 3141 0416 0F       		.byte	0xf
 3142 0417 27       		.byte	0x27
 3143 0418 1C040000 		.4byte	0x41c
 3144 041c 09       		.uleb128 0x9
 3145 041d 06040000 		.4byte	0x406
 3146 0421 27040000 		.4byte	0x427
 3147 0425 0A       		.uleb128 0xa
 3148 0426 00       		.byte	0
 3149 0427 11       		.uleb128 0x11
 3150 0428 0C       		.byte	0xc
 3151 0429 0F       		.byte	0xf
 3152 042a 2A       		.byte	0x2a
 3153 042b 54040000 		.4byte	0x454
 3154 042f 12       		.uleb128 0x12
 3155 0430 1A000000 		.4byte	.LASF112
 3156 0434 0F       		.byte	0xf
 3157 0435 2C       		.byte	0x2c
 3158 0436 83030000 		.4byte	0x383
 3159 043a 00       		.byte	0
 3160 043b 12       		.uleb128 0x12
 3161 043c 9D020000 		.4byte	.LASF113
 3162 0440 0F       		.byte	0xf
 3163 0441 2D       		.byte	0x2d
 3164 0442 5A040000 		.4byte	0x45a
 3165 0446 04       		.byte	0x4
 3166 0447 12       		.uleb128 0x12
 3167 0448 08060000 		.4byte	.LASF114
 3168 044c 0F       		.byte	0xf
 3169 044d 2E       		.byte	0x2e
 3170 044e 5F040000 		.4byte	0x45f
 3171 0452 08       		.byte	0x8
 3172 0453 00       		.byte	0
 3173 0454 0D       		.uleb128 0xd
 3174 0455 04       		.byte	0x4
 3175 0456 1C040000 		.4byte	0x41c
 3176 045a 13       		.uleb128 0x13
 3177 045b 54040000 		.4byte	0x454
 3178 045f 13       		.uleb128 0x13
 3179 0460 A2000000 		.4byte	0xa2
 3180 0464 03       		.uleb128 0x3
 3181 0465 7F080000 		.4byte	.LASF115
 3182 0469 0F       		.byte	0xf
 3183 046a 2F       		.byte	0x2f
 3184 046b 27040000 		.4byte	0x427
 3185 046f 03       		.uleb128 0x3
 3186 0470 C3050000 		.4byte	.LASF116
 3187 0474 0F       		.byte	0xf
ARM GAS  C:\Users\JASON\AppData\Local\Temp\cct5bgFA.s 			page 85


 3188 0475 31       		.byte	0x31
 3189 0476 7A040000 		.4byte	0x47a
 3190 047a 09       		.uleb128 0x9
 3191 047b 64040000 		.4byte	0x464
 3192 047f 85040000 		.4byte	0x485
 3193 0483 0A       		.uleb128 0xa
 3194 0484 00       		.byte	0
 3195 0485 11       		.uleb128 0x11
 3196 0486 0C       		.byte	0xc
 3197 0487 0F       		.byte	0xf
 3198 0488 34       		.byte	0x34
 3199 0489 B2040000 		.4byte	0x4b2
 3200 048d 12       		.uleb128 0x12
 3201 048e 25030000 		.4byte	.LASF117
 3202 0492 0F       		.byte	0xf
 3203 0493 36       		.byte	0x36
 3204 0494 83030000 		.4byte	0x383
 3205 0498 00       		.byte	0
 3206 0499 12       		.uleb128 0x12
 3207 049a 78060000 		.4byte	.LASF118
 3208 049e 0F       		.byte	0xf
 3209 049f 37       		.byte	0x37
 3210 04a0 99030000 		.4byte	0x399
 3211 04a4 04       		.byte	0x4
 3212 04a5 12       		.uleb128 0x12
 3213 04a6 81030000 		.4byte	.LASF119
 3214 04aa 0F       		.byte	0xf
 3215 04ab 38       		.byte	0x38
 3216 04ac 99030000 		.4byte	0x399
 3217 04b0 08       		.byte	0x8
 3218 04b1 00       		.byte	0
 3219 04b2 03       		.uleb128 0x3
 3220 04b3 6F070000 		.4byte	.LASF120
 3221 04b7 0F       		.byte	0xf
 3222 04b8 39       		.byte	0x39
 3223 04b9 85040000 		.4byte	0x485
 3224 04bd 06       		.uleb128 0x6
 3225 04be 01       		.byte	0x1
 3226 04bf 37000000 		.4byte	0x37
 3227 04c3 10       		.byte	0x10
 3228 04c4 21       		.byte	0x21
 3229 04c5 DC040000 		.4byte	0x4dc
 3230 04c9 07       		.uleb128 0x7
 3231 04ca A90B0000 		.4byte	.LASF121
 3232 04ce 00       		.byte	0
 3233 04cf 07       		.uleb128 0x7
 3234 04d0 AC010000 		.4byte	.LASF122
 3235 04d4 01       		.byte	0x1
 3236 04d5 07       		.uleb128 0x7
 3237 04d6 5F070000 		.4byte	.LASF123
 3238 04da 02       		.byte	0x2
 3239 04db 00       		.byte	0
 3240 04dc 03       		.uleb128 0x3
 3241 04dd AD050000 		.4byte	.LASF124
 3242 04e1 10       		.byte	0x10
 3243 04e2 25       		.byte	0x25
 3244 04e3 BD040000 		.4byte	0x4bd
ARM GAS  C:\Users\JASON\AppData\Local\Temp\cct5bgFA.s 			page 86


 3245 04e7 11       		.uleb128 0x11
 3246 04e8 04       		.byte	0x4
 3247 04e9 10       		.byte	0x10
 3248 04ea 2A       		.byte	0x2a
 3249 04eb 08050000 		.4byte	0x508
 3250 04ef 12       		.uleb128 0x12
 3251 04f0 70030000 		.4byte	.LASF125
 3252 04f4 10       		.byte	0x10
 3253 04f5 2C       		.byte	0x2c
 3254 04f6 FA020000 		.4byte	0x2fa
 3255 04fa 00       		.byte	0
 3256 04fb 12       		.uleb128 0x12
 3257 04fc 2E0F0000 		.4byte	.LASF126
 3258 0500 10       		.byte	0x10
 3259 0501 2D       		.byte	0x2d
 3260 0502 FA020000 		.4byte	0x2fa
 3261 0506 02       		.byte	0x2
 3262 0507 00       		.byte	0
 3263 0508 03       		.uleb128 0x3
 3264 0509 DB0E0000 		.4byte	.LASF127
 3265 050d 10       		.byte	0x10
 3266 050e 2E       		.byte	0x2e
 3267 050f E7040000 		.4byte	0x4e7
 3268 0513 11       		.uleb128 0x11
 3269 0514 14       		.byte	0x14
 3270 0515 10       		.byte	0x10
 3271 0516 33       		.byte	0x33
 3272 0517 58050000 		.4byte	0x558
 3273 051b 12       		.uleb128 0x12
 3274 051c 00020000 		.4byte	.LASF128
 3275 0520 10       		.byte	0x10
 3276 0521 35       		.byte	0x35
 3277 0522 36030000 		.4byte	0x336
 3278 0526 00       		.byte	0
 3279 0527 12       		.uleb128 0x12
 3280 0528 21010000 		.4byte	.LASF129
 3281 052c 10       		.byte	0x10
 3282 052d 36       		.byte	0x36
 3283 052e 58050000 		.4byte	0x558
 3284 0532 04       		.byte	0x4
 3285 0533 12       		.uleb128 0x12
 3286 0534 170A0000 		.4byte	.LASF130
 3287 0538 10       		.byte	0x10
 3288 0539 37       		.byte	0x37
 3289 053a 5E050000 		.4byte	0x55e
 3290 053e 08       		.byte	0x8
 3291 053f 12       		.uleb128 0x12
 3292 0540 CB030000 		.4byte	.LASF131
 3293 0544 10       		.byte	0x10
 3294 0545 38       		.byte	0x38
 3295 0546 A2000000 		.4byte	0xa2
 3296 054a 0C       		.byte	0xc
 3297 054b 12       		.uleb128 0x12
 3298 054c 6C0C0000 		.4byte	.LASF132
 3299 0550 10       		.byte	0x10
 3300 0551 39       		.byte	0x39
 3301 0552 08050000 		.4byte	0x508
ARM GAS  C:\Users\JASON\AppData\Local\Temp\cct5bgFA.s 			page 87


 3302 0556 0E       		.byte	0xe
 3303 0557 00       		.byte	0
 3304 0558 0D       		.uleb128 0xd
 3305 0559 04       		.byte	0x4
 3306 055a 11040000 		.4byte	0x411
 3307 055e 0D       		.uleb128 0xd
 3308 055f 04       		.byte	0x4
 3309 0560 B2040000 		.4byte	0x4b2
 3310 0564 03       		.uleb128 0x3
 3311 0565 0B000000 		.4byte	.LASF133
 3312 0569 10       		.byte	0x10
 3313 056a 3A       		.byte	0x3a
 3314 056b 13050000 		.4byte	0x513
 3315 056f 11       		.uleb128 0x11
 3316 0570 38       		.byte	0x38
 3317 0571 10       		.byte	0x10
 3318 0572 40       		.byte	0x40
 3319 0573 C0050000 		.4byte	0x5c0
 3320 0577 12       		.uleb128 0x12
 3321 0578 5A0E0000 		.4byte	.LASF134
 3322 057c 10       		.byte	0x10
 3323 057d 42       		.byte	0x42
 3324 057e 36030000 		.4byte	0x336
 3325 0582 00       		.byte	0
 3326 0583 12       		.uleb128 0x12
 3327 0584 21010000 		.4byte	.LASF129
 3328 0588 10       		.byte	0x10
 3329 0589 43       		.byte	0x43
 3330 058a C0050000 		.4byte	0x5c0
 3331 058e 04       		.byte	0x4
 3332 058f 12       		.uleb128 0x12
 3333 0590 170A0000 		.4byte	.LASF130
 3334 0594 10       		.byte	0x10
 3335 0595 44       		.byte	0x44
 3336 0596 C6050000 		.4byte	0x5c6
 3337 059a 08       		.byte	0x8
 3338 059b 12       		.uleb128 0x12
 3339 059c A90C0000 		.4byte	.LASF135
 3340 05a0 10       		.byte	0x10
 3341 05a1 45       		.byte	0x45
 3342 05a2 DC040000 		.4byte	0x4dc
 3343 05a6 0C       		.byte	0xc
 3344 05a7 12       		.uleb128 0x12
 3345 05a8 520E0000 		.4byte	.LASF136
 3346 05ac 10       		.byte	0x10
 3347 05ad 46       		.byte	0x46
 3348 05ae 64050000 		.4byte	0x564
 3349 05b2 10       		.byte	0x10
 3350 05b3 12       		.uleb128 0x12
 3351 05b4 C00D0000 		.4byte	.LASF137
 3352 05b8 10       		.byte	0x10
 3353 05b9 47       		.byte	0x47
 3354 05ba 64050000 		.4byte	0x564
 3355 05be 24       		.byte	0x24
 3356 05bf 00       		.byte	0
 3357 05c0 0D       		.uleb128 0xd
 3358 05c1 04       		.byte	0x4
ARM GAS  C:\Users\JASON\AppData\Local\Temp\cct5bgFA.s 			page 88


 3359 05c2 6F040000 		.4byte	0x46f
 3360 05c6 0D       		.uleb128 0xd
 3361 05c7 04       		.byte	0x4
 3362 05c8 99030000 		.4byte	0x399
 3363 05cc 03       		.uleb128 0x3
 3364 05cd 1D050000 		.4byte	.LASF138
 3365 05d1 10       		.byte	0x10
 3366 05d2 4A       		.byte	0x4a
 3367 05d3 6F050000 		.4byte	0x56f
 3368 05d7 03       		.uleb128 0x3
 3369 05d8 C20B0000 		.4byte	.LASF139
 3370 05dc 02       		.byte	0x2
 3371 05dd 27       		.byte	0x27
 3372 05de E2050000 		.4byte	0x5e2
 3373 05e2 0D       		.uleb128 0xd
 3374 05e3 04       		.byte	0x4
 3375 05e4 E8050000 		.4byte	0x5e8
 3376 05e8 14       		.uleb128 0x14
 3377 05e9 00020000 		.4byte	0x200
 3378 05ed F7050000 		.4byte	0x5f7
 3379 05f1 15       		.uleb128 0x15
 3380 05f2 FD050000 		.4byte	0x5fd
 3381 05f6 00       		.byte	0
 3382 05f7 0D       		.uleb128 0xd
 3383 05f8 04       		.byte	0x4
 3384 05f9 CC050000 		.4byte	0x5cc
 3385 05fd 13       		.uleb128 0x13
 3386 05fe F7050000 		.4byte	0x5f7
 3387 0602 03       		.uleb128 0x3
 3388 0603 2E060000 		.4byte	.LASF140
 3389 0607 02       		.byte	0x2
 3390 0608 2D       		.byte	0x2d
 3391 0609 0D060000 		.4byte	0x60d
 3392 060d 0D       		.uleb128 0xd
 3393 060e 04       		.byte	0x4
 3394 060f 13060000 		.4byte	0x613
 3395 0613 14       		.uleb128 0x14
 3396 0614 00020000 		.4byte	0x200
 3397 0618 22060000 		.4byte	0x622
 3398 061c 15       		.uleb128 0x15
 3399 061d 2D060000 		.4byte	0x62d
 3400 0621 00       		.byte	0
 3401 0622 0D       		.uleb128 0xd
 3402 0623 04       		.byte	0x4
 3403 0624 28060000 		.4byte	0x628
 3404 0628 13       		.uleb128 0x13
 3405 0629 CC050000 		.4byte	0x5cc
 3406 062d 13       		.uleb128 0x13
 3407 062e 22060000 		.4byte	0x622
 3408 0632 16       		.uleb128 0x16
 3409 0633 25020000 		.4byte	.LASF152
 3410 0637 28       		.byte	0x28
 3411 0638 02       		.byte	0x2
 3412 0639 37       		.byte	0x37
 3413 063a B7060000 		.4byte	0x6b7
 3414 063e 12       		.uleb128 0x12
 3415 063f 77090000 		.4byte	.LASF141
ARM GAS  C:\Users\JASON\AppData\Local\Temp\cct5bgFA.s 			page 89


 3416 0643 02       		.byte	0x2
 3417 0644 3C       		.byte	0x3c
 3418 0645 B7060000 		.4byte	0x6b7
 3419 0649 00       		.byte	0
 3420 064a 12       		.uleb128 0x12
 3421 064b 46050000 		.4byte	.LASF142
 3422 064f 02       		.byte	0x2
 3423 0650 41       		.byte	0x41
 3424 0651 BC060000 		.4byte	0x6bc
 3425 0655 04       		.byte	0x4
 3426 0656 12       		.uleb128 0x12
 3427 0657 92020000 		.4byte	.LASF143
 3428 065b 02       		.byte	0x2
 3429 065c 46       		.byte	0x46
 3430 065d C1060000 		.4byte	0x6c1
 3431 0661 08       		.byte	0x8
 3432 0662 12       		.uleb128 0x12
 3433 0663 500B0000 		.4byte	.LASF144
 3434 0667 02       		.byte	0x2
 3435 0668 4C       		.byte	0x4c
 3436 0669 C1060000 		.4byte	0x6c1
 3437 066d 0C       		.byte	0xc
 3438 066e 12       		.uleb128 0x12
 3439 066f 24040000 		.4byte	.LASF145
 3440 0673 02       		.byte	0x2
 3441 0674 51       		.byte	0x51
 3442 0675 C6060000 		.4byte	0x6c6
 3443 0679 10       		.byte	0x10
 3444 067a 12       		.uleb128 0x12
 3445 067b A60A0000 		.4byte	.LASF146
 3446 067f 02       		.byte	0x2
 3447 0680 56       		.byte	0x56
 3448 0681 D1060000 		.4byte	0x6d1
 3449 0685 14       		.byte	0x14
 3450 0686 12       		.uleb128 0x12
 3451 0687 060A0000 		.4byte	.LASF147
 3452 068b 02       		.byte	0x2
 3453 068c 5B       		.byte	0x5b
 3454 068d C6060000 		.4byte	0x6c6
 3455 0691 18       		.byte	0x18
 3456 0692 12       		.uleb128 0x12
 3457 0693 540F0000 		.4byte	.LASF148
 3458 0697 02       		.byte	0x2
 3459 0698 60       		.byte	0x60
 3460 0699 D1060000 		.4byte	0x6d1
 3461 069d 1C       		.byte	0x1c
 3462 069e 12       		.uleb128 0x12
 3463 069f BD010000 		.4byte	.LASF149
 3464 06a3 02       		.byte	0x2
 3465 06a4 66       		.byte	0x66
 3466 06a5 D6060000 		.4byte	0x6d6
 3467 06a9 20       		.byte	0x20
 3468 06aa 12       		.uleb128 0x12
 3469 06ab 31000000 		.4byte	.LASF150
 3470 06af 02       		.byte	0x2
 3471 06b0 6B       		.byte	0x6b
 3472 06b1 DB060000 		.4byte	0x6db
ARM GAS  C:\Users\JASON\AppData\Local\Temp\cct5bgFA.s 			page 90


 3473 06b5 24       		.byte	0x24
 3474 06b6 00       		.byte	0
 3475 06b7 13       		.uleb128 0x13
 3476 06b8 D7050000 		.4byte	0x5d7
 3477 06bc 13       		.uleb128 0x13
 3478 06bd 02060000 		.4byte	0x602
 3479 06c1 13       		.uleb128 0x13
 3480 06c2 39010000 		.4byte	0x139
 3481 06c6 13       		.uleb128 0x13
 3482 06c7 D8000000 		.4byte	0xd8
 3483 06cb 0D       		.uleb128 0xd
 3484 06cc 04       		.byte	0x4
 3485 06cd 0B020000 		.4byte	0x20b
 3486 06d1 13       		.uleb128 0x13
 3487 06d2 CB060000 		.4byte	0x6cb
 3488 06d6 13       		.uleb128 0x13
 3489 06d7 4C010000 		.4byte	0x14c
 3490 06db 13       		.uleb128 0x13
 3491 06dc 2D010000 		.4byte	0x12d
 3492 06e0 03       		.uleb128 0x3
 3493 06e1 67040000 		.4byte	.LASF151
 3494 06e5 02       		.byte	0x2
 3495 06e6 6E       		.byte	0x6e
 3496 06e7 EB060000 		.4byte	0x6eb
 3497 06eb 13       		.uleb128 0x13
 3498 06ec 32060000 		.4byte	0x632
 3499 06f0 16       		.uleb128 0x16
 3500 06f1 F2000000 		.4byte	.LASF153
 3501 06f5 44       		.byte	0x44
 3502 06f6 02       		.byte	0x2
 3503 06f7 7A       		.byte	0x7a
 3504 06f8 2D070000 		.4byte	0x72d
 3505 06fc 12       		.uleb128 0x12
 3506 06fd D8040000 		.4byte	.LASF154
 3507 0701 02       		.byte	0x2
 3508 0702 80       		.byte	0x80
 3509 0703 CC050000 		.4byte	0x5cc
 3510 0707 00       		.byte	0
 3511 0708 12       		.uleb128 0x12
 3512 0709 EF0D0000 		.4byte	.LASF155
 3513 070d 02       		.byte	0x2
 3514 070e 85       		.byte	0x85
 3515 070f 51020000 		.4byte	0x251
 3516 0713 38       		.byte	0x38
 3517 0714 17       		.uleb128 0x17
 3518 0715 61676500 		.ascii	"age\000"
 3519 0719 02       		.byte	0x2
 3520 071a 8A       		.byte	0x8a
 3521 071b B8000000 		.4byte	0xb8
 3522 071f 3C       		.byte	0x3c
 3523 0720 12       		.uleb128 0x12
 3524 0721 38070000 		.4byte	.LASF156
 3525 0725 02       		.byte	0x2
 3526 0726 8F       		.byte	0x8f
 3527 0727 33070000 		.4byte	0x733
 3528 072b 40       		.byte	0x40
 3529 072c 00       		.byte	0
ARM GAS  C:\Users\JASON\AppData\Local\Temp\cct5bgFA.s 			page 91


 3530 072d 0D       		.uleb128 0xd
 3531 072e 04       		.byte	0x4
 3532 072f E0060000 		.4byte	0x6e0
 3533 0733 13       		.uleb128 0x13
 3534 0734 2D070000 		.4byte	0x72d
 3535 0738 03       		.uleb128 0x3
 3536 0739 970E0000 		.4byte	.LASF157
 3537 073d 02       		.byte	0x2
 3538 073e 92       		.byte	0x92
 3539 073f F0060000 		.4byte	0x6f0
 3540 0743 11       		.uleb128 0x11
 3541 0744 01       		.byte	0x1
 3542 0745 11       		.byte	0x11
 3543 0746 1F       		.byte	0x1f
 3544 0747 58070000 		.4byte	0x758
 3545 074b 12       		.uleb128 0x12
 3546 074c 310D0000 		.4byte	.LASF158
 3547 0750 11       		.byte	0x11
 3548 0751 21       		.byte	0x21
 3549 0752 78030000 		.4byte	0x378
 3550 0756 00       		.byte	0
 3551 0757 00       		.byte	0
 3552 0758 03       		.uleb128 0x3
 3553 0759 C20E0000 		.4byte	.LASF159
 3554 075d 11       		.byte	0x11
 3555 075e 24       		.byte	0x24
 3556 075f 43070000 		.4byte	0x743
 3557 0763 03       		.uleb128 0x3
 3558 0764 950B0000 		.4byte	.LASF160
 3559 0768 03       		.byte	0x3
 3560 0769 27       		.byte	0x27
 3561 076a 6E070000 		.4byte	0x76e
 3562 076e 0D       		.uleb128 0xd
 3563 076f 04       		.byte	0x4
 3564 0770 74070000 		.4byte	0x774
 3565 0774 14       		.uleb128 0x14
 3566 0775 00020000 		.4byte	0x200
 3567 0779 83070000 		.4byte	0x783
 3568 077d 15       		.uleb128 0x15
 3569 077e 89070000 		.4byte	0x789
 3570 0782 00       		.byte	0
 3571 0783 0D       		.uleb128 0xd
 3572 0784 04       		.byte	0x4
 3573 0785 58070000 		.4byte	0x758
 3574 0789 13       		.uleb128 0x13
 3575 078a 83070000 		.4byte	0x783
 3576 078e 03       		.uleb128 0x3
 3577 078f 820E0000 		.4byte	.LASF161
 3578 0793 03       		.byte	0x3
 3579 0794 2D       		.byte	0x2d
 3580 0795 99070000 		.4byte	0x799
 3581 0799 0D       		.uleb128 0xd
 3582 079a 04       		.byte	0x4
 3583 079b 9F070000 		.4byte	0x79f
 3584 079f 14       		.uleb128 0x14
 3585 07a0 00020000 		.4byte	0x200
 3586 07a4 AE070000 		.4byte	0x7ae
ARM GAS  C:\Users\JASON\AppData\Local\Temp\cct5bgFA.s 			page 92


 3587 07a8 15       		.uleb128 0x15
 3588 07a9 B9070000 		.4byte	0x7b9
 3589 07ad 00       		.byte	0
 3590 07ae 0D       		.uleb128 0xd
 3591 07af 04       		.byte	0x4
 3592 07b0 B4070000 		.4byte	0x7b4
 3593 07b4 13       		.uleb128 0x13
 3594 07b5 58070000 		.4byte	0x758
 3595 07b9 13       		.uleb128 0x13
 3596 07ba AE070000 		.4byte	0x7ae
 3597 07be 16       		.uleb128 0x16
 3598 07bf 93070000 		.4byte	.LASF162
 3599 07c3 28       		.byte	0x28
 3600 07c4 03       		.byte	0x3
 3601 07c5 37       		.byte	0x37
 3602 07c6 43080000 		.4byte	0x843
 3603 07ca 12       		.uleb128 0x12
 3604 07cb 77090000 		.4byte	.LASF141
 3605 07cf 03       		.byte	0x3
 3606 07d0 3C       		.byte	0x3c
 3607 07d1 43080000 		.4byte	0x843
 3608 07d5 00       		.byte	0
 3609 07d6 12       		.uleb128 0x12
 3610 07d7 46050000 		.4byte	.LASF142
 3611 07db 03       		.byte	0x3
 3612 07dc 41       		.byte	0x41
 3613 07dd 48080000 		.4byte	0x848
 3614 07e1 04       		.byte	0x4
 3615 07e2 12       		.uleb128 0x12
 3616 07e3 92020000 		.4byte	.LASF143
 3617 07e7 03       		.byte	0x3
 3618 07e8 46       		.byte	0x46
 3619 07e9 C1060000 		.4byte	0x6c1
 3620 07ed 08       		.byte	0x8
 3621 07ee 12       		.uleb128 0x12
 3622 07ef 500B0000 		.4byte	.LASF144
 3623 07f3 03       		.byte	0x3
 3624 07f4 4C       		.byte	0x4c
 3625 07f5 C1060000 		.4byte	0x6c1
 3626 07f9 0C       		.byte	0xc
 3627 07fa 12       		.uleb128 0x12
 3628 07fb 24040000 		.4byte	.LASF145
 3629 07ff 03       		.byte	0x3
 3630 0800 51       		.byte	0x51
 3631 0801 C6060000 		.4byte	0x6c6
 3632 0805 10       		.byte	0x10
 3633 0806 12       		.uleb128 0x12
 3634 0807 A60A0000 		.4byte	.LASF146
 3635 080b 03       		.byte	0x3
 3636 080c 56       		.byte	0x56
 3637 080d D1060000 		.4byte	0x6d1
 3638 0811 14       		.byte	0x14
 3639 0812 12       		.uleb128 0x12
 3640 0813 060A0000 		.4byte	.LASF147
 3641 0817 03       		.byte	0x3
 3642 0818 5B       		.byte	0x5b
 3643 0819 C6060000 		.4byte	0x6c6
ARM GAS  C:\Users\JASON\AppData\Local\Temp\cct5bgFA.s 			page 93


 3644 081d 18       		.byte	0x18
 3645 081e 12       		.uleb128 0x12
 3646 081f 540F0000 		.4byte	.LASF148
 3647 0823 03       		.byte	0x3
 3648 0824 60       		.byte	0x60
 3649 0825 D1060000 		.4byte	0x6d1
 3650 0829 1C       		.byte	0x1c
 3651 082a 12       		.uleb128 0x12
 3652 082b BD010000 		.4byte	.LASF149
 3653 082f 03       		.byte	0x3
 3654 0830 66       		.byte	0x66
 3655 0831 D6060000 		.4byte	0x6d6
 3656 0835 20       		.byte	0x20
 3657 0836 12       		.uleb128 0x12
 3658 0837 31000000 		.4byte	.LASF150
 3659 083b 03       		.byte	0x3
 3660 083c 6B       		.byte	0x6b
 3661 083d DB060000 		.4byte	0x6db
 3662 0841 24       		.byte	0x24
 3663 0842 00       		.byte	0
 3664 0843 13       		.uleb128 0x13
 3665 0844 63070000 		.4byte	0x763
 3666 0848 13       		.uleb128 0x13
 3667 0849 8E070000 		.4byte	0x78e
 3668 084d 03       		.uleb128 0x3
 3669 084e A2070000 		.4byte	.LASF163
 3670 0852 03       		.byte	0x3
 3671 0853 6E       		.byte	0x6e
 3672 0854 58080000 		.4byte	0x858
 3673 0858 13       		.uleb128 0x13
 3674 0859 BE070000 		.4byte	0x7be
 3675 085d 16       		.uleb128 0x16
 3676 085e EA030000 		.4byte	.LASF164
 3677 0862 0C       		.byte	0xc
 3678 0863 03       		.byte	0x3
 3679 0864 7A       		.byte	0x7a
 3680 0865 9A080000 		.4byte	0x89a
 3681 0869 12       		.uleb128 0x12
 3682 086a D8040000 		.4byte	.LASF154
 3683 086e 03       		.byte	0x3
 3684 086f 80       		.byte	0x80
 3685 0870 58070000 		.4byte	0x758
 3686 0874 00       		.byte	0
 3687 0875 12       		.uleb128 0x12
 3688 0876 EF0D0000 		.4byte	.LASF155
 3689 087a 03       		.byte	0x3
 3690 087b 85       		.byte	0x85
 3691 087c 51020000 		.4byte	0x251
 3692 0880 01       		.byte	0x1
 3693 0881 17       		.uleb128 0x17
 3694 0882 61676500 		.ascii	"age\000"
 3695 0886 03       		.byte	0x3
 3696 0887 8A       		.byte	0x8a
 3697 0888 B8000000 		.4byte	0xb8
 3698 088c 04       		.byte	0x4
 3699 088d 12       		.uleb128 0x12
 3700 088e 38070000 		.4byte	.LASF156
ARM GAS  C:\Users\JASON\AppData\Local\Temp\cct5bgFA.s 			page 94


 3701 0892 03       		.byte	0x3
 3702 0893 8F       		.byte	0x8f
 3703 0894 A0080000 		.4byte	0x8a0
 3704 0898 08       		.byte	0x8
 3705 0899 00       		.byte	0
 3706 089a 0D       		.uleb128 0xd
 3707 089b 04       		.byte	0x4
 3708 089c 4D080000 		.4byte	0x84d
 3709 08a0 13       		.uleb128 0x13
 3710 08a1 9A080000 		.4byte	0x89a
 3711 08a5 03       		.uleb128 0x3
 3712 08a6 F5030000 		.4byte	.LASF165
 3713 08aa 03       		.byte	0x3
 3714 08ab 92       		.byte	0x92
 3715 08ac 5D080000 		.4byte	0x85d
 3716 08b0 18       		.uleb128 0x18
 3717 08b1 62050000 		.4byte	.LASF170
 3718 08b5 02       		.byte	0x2
 3719 08b6 2901     		.2byte	0x129
 3720 08b8 00020000 		.4byte	0x200
 3721 08bc 03       		.byte	0x3
 3722 08bd 0C090000 		.4byte	0x90c
 3723 08c1 19       		.uleb128 0x19
 3724 08c2 EF0B0000 		.4byte	.LASF166
 3725 08c6 02       		.byte	0x2
 3726 08c7 2901     		.2byte	0x129
 3727 08c9 12090000 		.4byte	0x912
 3728 08cd 19       		.uleb128 0x19
 3729 08ce D8040000 		.4byte	.LASF154
 3730 08d2 02       		.byte	0x2
 3731 08d3 2901     		.2byte	0x129
 3732 08d5 28060000 		.4byte	0x628
 3733 08d9 1A       		.uleb128 0x1a
 3734 08da 72657400 		.ascii	"ret\000"
 3735 08de 02       		.byte	0x2
 3736 08df 2C01     		.2byte	0x12c
 3737 08e1 00020000 		.4byte	0x200
 3738 08e5 1B       		.uleb128 0x1b
 3739 08e6 860D0000 		.4byte	.LASF167
 3740 08ea 02       		.byte	0x2
 3741 08eb 2D01     		.2byte	0x12d
 3742 08ed D8000000 		.4byte	0xd8
 3743 08f1 1B       		.uleb128 0x1b
 3744 08f2 74000000 		.4byte	.LASF168
 3745 08f6 02       		.byte	0x2
 3746 08f7 3701     		.2byte	0x137
 3747 08f9 CB060000 		.4byte	0x6cb
 3748 08fd 1C       		.uleb128 0x1c
 3749 08fe 1B       		.uleb128 0x1b
 3750 08ff 0E0D0000 		.4byte	.LASF169
 3751 0903 02       		.byte	0x2
 3752 0904 3C01     		.2byte	0x13c
 3753 0906 21010000 		.4byte	0x121
 3754 090a 00       		.byte	0
 3755 090b 00       		.byte	0
 3756 090c 0D       		.uleb128 0xd
 3757 090d 04       		.byte	0x4
ARM GAS  C:\Users\JASON\AppData\Local\Temp\cct5bgFA.s 			page 95


 3758 090e 38070000 		.4byte	0x738
 3759 0912 13       		.uleb128 0x13
 3760 0913 0C090000 		.4byte	0x90c
 3761 0917 18       		.uleb128 0x18
 3762 0918 A3060000 		.4byte	.LASF171
 3763 091c 02       		.byte	0x2
 3764 091d 0601     		.2byte	0x106
 3765 091f CC050000 		.4byte	0x5cc
 3766 0923 03       		.byte	0x3
 3767 0924 35090000 		.4byte	0x935
 3768 0928 19       		.uleb128 0x19
 3769 0929 EF0B0000 		.4byte	.LASF166
 3770 092d 02       		.byte	0x2
 3771 092e 0601     		.2byte	0x106
 3772 0930 40090000 		.4byte	0x940
 3773 0934 00       		.byte	0
 3774 0935 0D       		.uleb128 0xd
 3775 0936 04       		.byte	0x4
 3776 0937 3B090000 		.4byte	0x93b
 3777 093b 13       		.uleb128 0x13
 3778 093c 38070000 		.4byte	0x738
 3779 0940 13       		.uleb128 0x13
 3780 0941 35090000 		.4byte	0x935
 3781 0945 18       		.uleb128 0x18
 3782 0946 94090000 		.4byte	.LASF172
 3783 094a 03       		.byte	0x3
 3784 094b 2901     		.2byte	0x129
 3785 094d 00020000 		.4byte	0x200
 3786 0951 03       		.byte	0x3
 3787 0952 A1090000 		.4byte	0x9a1
 3788 0956 19       		.uleb128 0x19
 3789 0957 EF0B0000 		.4byte	.LASF166
 3790 095b 03       		.byte	0x3
 3791 095c 2901     		.2byte	0x129
 3792 095e A7090000 		.4byte	0x9a7
 3793 0962 19       		.uleb128 0x19
 3794 0963 D8040000 		.4byte	.LASF154
 3795 0967 03       		.byte	0x3
 3796 0968 2901     		.2byte	0x129
 3797 096a B4070000 		.4byte	0x7b4
 3798 096e 1A       		.uleb128 0x1a
 3799 096f 72657400 		.ascii	"ret\000"
 3800 0973 03       		.byte	0x3
 3801 0974 2C01     		.2byte	0x12c
 3802 0976 00020000 		.4byte	0x200
 3803 097a 1B       		.uleb128 0x1b
 3804 097b 860D0000 		.4byte	.LASF167
 3805 097f 03       		.byte	0x3
 3806 0980 2D01     		.2byte	0x12d
 3807 0982 D8000000 		.4byte	0xd8
 3808 0986 1B       		.uleb128 0x1b
 3809 0987 74000000 		.4byte	.LASF168
 3810 098b 03       		.byte	0x3
 3811 098c 3701     		.2byte	0x137
 3812 098e CB060000 		.4byte	0x6cb
 3813 0992 1C       		.uleb128 0x1c
 3814 0993 1B       		.uleb128 0x1b
ARM GAS  C:\Users\JASON\AppData\Local\Temp\cct5bgFA.s 			page 96


 3815 0994 0E0D0000 		.4byte	.LASF169
 3816 0998 03       		.byte	0x3
 3817 0999 3C01     		.2byte	0x13c
 3818 099b 21010000 		.4byte	0x121
 3819 099f 00       		.byte	0
 3820 09a0 00       		.byte	0
 3821 09a1 0D       		.uleb128 0xd
 3822 09a2 04       		.byte	0x4
 3823 09a3 A5080000 		.4byte	0x8a5
 3824 09a7 13       		.uleb128 0x13
 3825 09a8 A1090000 		.4byte	0x9a1
 3826 09ac 18       		.uleb128 0x18
 3827 09ad 480C0000 		.4byte	.LASF173
 3828 09b1 03       		.byte	0x3
 3829 09b2 0601     		.2byte	0x106
 3830 09b4 58070000 		.4byte	0x758
 3831 09b8 03       		.byte	0x3
 3832 09b9 CA090000 		.4byte	0x9ca
 3833 09bd 19       		.uleb128 0x19
 3834 09be EF0B0000 		.4byte	.LASF166
 3835 09c2 03       		.byte	0x3
 3836 09c3 0601     		.2byte	0x106
 3837 09c5 D5090000 		.4byte	0x9d5
 3838 09c9 00       		.byte	0
 3839 09ca 0D       		.uleb128 0xd
 3840 09cb 04       		.byte	0x4
 3841 09cc D0090000 		.4byte	0x9d0
 3842 09d0 13       		.uleb128 0x13
 3843 09d1 A5080000 		.4byte	0x8a5
 3844 09d5 13       		.uleb128 0x13
 3845 09d6 CA090000 		.4byte	0x9ca
 3846 09da 1D       		.uleb128 0x1d
 3847 09db 6B0E0000 		.4byte	.LASF174
 3848 09df 01       		.byte	0x1
 3849 09e0 FD01     		.2byte	0x1fd
 3850 09e2 00000000 		.4byte	.LFB144
 3851 09e6 0C000000 		.4byte	.LFE144-.LFB144
 3852 09ea 01       		.uleb128 0x1
 3853 09eb 9C       		.byte	0x9c
 3854 09ec 1D       		.uleb128 0x1d
 3855 09ed A5090000 		.4byte	.LASF175
 3856 09f1 01       		.byte	0x1
 3857 09f2 0402     		.2byte	0x204
 3858 09f4 00000000 		.4byte	.LFB145
 3859 09f8 0C000000 		.4byte	.LFE145-.LFB145
 3860 09fc 01       		.uleb128 0x1
 3861 09fd 9C       		.byte	0x9c
 3862 09fe 1D       		.uleb128 0x1d
 3863 09ff 610F0000 		.4byte	.LASF176
 3864 0a03 01       		.byte	0x1
 3865 0a04 6202     		.2byte	0x262
 3866 0a06 00000000 		.4byte	.LFB149
 3867 0a0a 0C000000 		.4byte	.LFE149-.LFB149
 3868 0a0e 01       		.uleb128 0x1
 3869 0a0f 9C       		.byte	0x9c
 3870 0a10 1D       		.uleb128 0x1d
 3871 0a11 EE0E0000 		.4byte	.LASF177
ARM GAS  C:\Users\JASON\AppData\Local\Temp\cct5bgFA.s 			page 97


 3872 0a15 01       		.byte	0x1
 3873 0a16 6902     		.2byte	0x269
 3874 0a18 00000000 		.4byte	.LFB150
 3875 0a1c 0C000000 		.4byte	.LFE150-.LFB150
 3876 0a20 01       		.uleb128 0x1
 3877 0a21 9C       		.byte	0x9c
 3878 0a22 1E       		.uleb128 0x1e
 3879 0a23 FE060000 		.4byte	.LASF239
 3880 0a27 01       		.byte	0x1
 3881 0a28 5F01     		.2byte	0x15f
 3882 0a2a 00000000 		.4byte	.LFB133
 3883 0a2e 80020000 		.4byte	.LFE133-.LFB133
 3884 0a32 01       		.uleb128 0x1
 3885 0a33 9C       		.byte	0x9c
 3886 0a34 DB0C0000 		.4byte	0xcdb
 3887 0a38 1F       		.uleb128 0x1f
 3888 0a39 657600   		.ascii	"ev\000"
 3889 0a3c 01       		.byte	0x1
 3890 0a3d 5F01     		.2byte	0x15f
 3891 0a3f 8E030000 		.4byte	0x38e
 3892 0a43 00000000 		.4byte	.LLST0
 3893 0a47 20       		.uleb128 0x20
 3894 0a48 9F0A0000 		.4byte	.LASF178
 3895 0a4c 01       		.byte	0x1
 3896 0a4d 5F01     		.2byte	0x15f
 3897 0a4f DC040000 		.4byte	0x4dc
 3898 0a53 21000000 		.4byte	.LLST1
 3899 0a57 21       		.uleb128 0x21
 3900 0a58 E80E0000 		.4byte	.LASF179
 3901 0a5c 01       		.byte	0x1
 3902 0a5d 6201     		.2byte	0x162
 3903 0a5f CC050000 		.4byte	0x5cc
 3904 0a63 03       		.uleb128 0x3
 3905 0a64 91       		.byte	0x91
 3906 0a65 B07F     		.sleb128 -80
 3907 0a67 22       		.uleb128 0x22
 3908 0a68 17090000 		.4byte	0x917
 3909 0a6c 08000000 		.4byte	.LBB70
 3910 0a70 1C000000 		.4byte	.LBE70-.LBB70
 3911 0a74 01       		.byte	0x1
 3912 0a75 6201     		.2byte	0x162
 3913 0a77 810A0000 		.4byte	0xa81
 3914 0a7b 23       		.uleb128 0x23
 3915 0a7c 28090000 		.4byte	0x928
 3916 0a80 00       		.byte	0
 3917 0a81 22       		.uleb128 0x22
 3918 0a82 B0080000 		.4byte	0x8b0
 3919 0a86 40000000 		.4byte	.LBB72
 3920 0a8a 74000000 		.4byte	.LBE72-.LBB72
 3921 0a8e 01       		.byte	0x1
 3922 0a8f 6801     		.2byte	0x168
 3923 0a91 F80A0000 		.4byte	0xaf8
 3924 0a95 24       		.uleb128 0x24
 3925 0a96 CD080000 		.4byte	0x8cd
 3926 0a9a 03       		.uleb128 0x3
 3927 0a9b 91       		.byte	0x91
 3928 0a9c 987D     		.sleb128 -360
ARM GAS  C:\Users\JASON\AppData\Local\Temp\cct5bgFA.s 			page 98


 3929 0a9e 23       		.uleb128 0x23
 3930 0a9f C1080000 		.4byte	0x8c1
 3931 0aa3 25       		.uleb128 0x25
 3932 0aa4 40000000 		.4byte	.LBB73
 3933 0aa8 74000000 		.4byte	.LBE73-.LBB73
 3934 0aac 26       		.uleb128 0x26
 3935 0aad D9080000 		.4byte	0x8d9
 3936 0ab1 00       		.byte	0
 3937 0ab2 27       		.uleb128 0x27
 3938 0ab3 E5080000 		.4byte	0x8e5
 3939 0ab7 42000000 		.4byte	.LLST2
 3940 0abb 27       		.uleb128 0x27
 3941 0abc F1080000 		.4byte	0x8f1
 3942 0ac0 78000000 		.4byte	.LLST3
 3943 0ac4 28       		.uleb128 0x28
 3944 0ac5 9A000000 		.4byte	.LBB74
 3945 0ac9 0A000000 		.4byte	.LBE74-.LBB74
 3946 0acd E40A0000 		.4byte	0xae4
 3947 0ad1 27       		.uleb128 0x27
 3948 0ad2 FE080000 		.4byte	0x8fe
 3949 0ad6 8B000000 		.4byte	.LLST4
 3950 0ada 29       		.uleb128 0x29
 3951 0adb A4000000 		.4byte	.LVL10
 3952 0adf 901A0000 		.4byte	0x1a90
 3953 0ae3 00       		.byte	0
 3954 0ae4 29       		.uleb128 0x29
 3955 0ae5 52000000 		.4byte	.LVL6
 3956 0ae9 9C1A0000 		.4byte	0x1a9c
 3957 0aed 29       		.uleb128 0x29
 3958 0aee 8C000000 		.4byte	.LVL7
 3959 0af2 A81A0000 		.4byte	0x1aa8
 3960 0af6 00       		.byte	0
 3961 0af7 00       		.byte	0
 3962 0af8 28       		.uleb128 0x28
 3963 0af9 B8000000 		.4byte	.LBB75
 3964 0afd DE000000 		.4byte	.LBE75-.LBB75
 3965 0b01 EB0B0000 		.4byte	0xbeb
 3966 0b05 21       		.uleb128 0x21
 3967 0b06 B70E0000 		.4byte	.LASF180
 3968 0b0a 01       		.byte	0x1
 3969 0b0b 6F01     		.2byte	0x16f
 3970 0b0d 36030000 		.4byte	0x336
 3971 0b11 03       		.uleb128 0x3
 3972 0b12 91       		.byte	0x91
 3973 0b13 F87E     		.sleb128 -136
 3974 0b15 1B       		.uleb128 0x1b
 3975 0b16 A1030000 		.4byte	.LASF181
 3976 0b1a 01       		.byte	0x1
 3977 0b1b 7201     		.2byte	0x172
 3978 0b1d 00020000 		.4byte	0x200
 3979 0b21 22       		.uleb128 0x22
 3980 0b22 17090000 		.4byte	0x917
 3981 0b26 D4000000 		.4byte	.LBB76
 3982 0b2a 1A000000 		.4byte	.LBE76-.LBB76
 3983 0b2e 01       		.byte	0x1
 3984 0b2f 7701     		.2byte	0x177
 3985 0b31 3B0B0000 		.4byte	0xb3b
ARM GAS  C:\Users\JASON\AppData\Local\Temp\cct5bgFA.s 			page 99


 3986 0b35 23       		.uleb128 0x23
 3987 0b36 28090000 		.4byte	0x928
 3988 0b3a 00       		.byte	0
 3989 0b3b 22       		.uleb128 0x22
 3990 0b3c B0080000 		.4byte	0x8b0
 3991 0b40 26010000 		.4byte	.LBB78
 3992 0b44 70000000 		.4byte	.LBE78-.LBB78
 3993 0b48 01       		.byte	0x1
 3994 0b49 7C01     		.2byte	0x17c
 3995 0b4b B50B0000 		.4byte	0xbb5
 3996 0b4f 24       		.uleb128 0x24
 3997 0b50 CD080000 		.4byte	0x8cd
 3998 0b54 03       		.uleb128 0x3
 3999 0b55 91       		.byte	0x91
 4000 0b56 D07D     		.sleb128 -304
 4001 0b58 23       		.uleb128 0x23
 4002 0b59 C1080000 		.4byte	0x8c1
 4003 0b5d 25       		.uleb128 0x25
 4004 0b5e 26010000 		.4byte	.LBB79
 4005 0b62 70000000 		.4byte	.LBE79-.LBB79
 4006 0b66 27       		.uleb128 0x27
 4007 0b67 D9080000 		.4byte	0x8d9
 4008 0b6b A4000000 		.4byte	.LLST5
 4009 0b6f 27       		.uleb128 0x27
 4010 0b70 E5080000 		.4byte	0x8e5
 4011 0b74 B8000000 		.4byte	.LLST6
 4012 0b78 27       		.uleb128 0x27
 4013 0b79 F1080000 		.4byte	0x8f1
 4014 0b7d EE000000 		.4byte	.LLST7
 4015 0b81 28       		.uleb128 0x28
 4016 0b82 7A010000 		.4byte	.LBB80
 4017 0b86 0A000000 		.4byte	.LBE80-.LBB80
 4018 0b8a A10B0000 		.4byte	0xba1
 4019 0b8e 27       		.uleb128 0x27
 4020 0b8f FE080000 		.4byte	0x8fe
 4021 0b93 01010000 		.4byte	.LLST8
 4022 0b97 29       		.uleb128 0x29
 4023 0b98 84010000 		.4byte	.LVL23
 4024 0b9c 901A0000 		.4byte	0x1a90
 4025 0ba0 00       		.byte	0
 4026 0ba1 29       		.uleb128 0x29
 4027 0ba2 36010000 		.4byte	.LVL19
 4028 0ba6 9C1A0000 		.4byte	0x1a9c
 4029 0baa 29       		.uleb128 0x29
 4030 0bab 6A010000 		.4byte	.LVL20
 4031 0baf A81A0000 		.4byte	0x1aa8
 4032 0bb3 00       		.byte	0
 4033 0bb4 00       		.byte	0
 4034 0bb5 2A       		.uleb128 0x2a
 4035 0bb6 D4000000 		.4byte	.LVL15
 4036 0bba B41A0000 		.4byte	0x1ab4
 4037 0bbe 2B       		.uleb128 0x2b
 4038 0bbf 01       		.uleb128 0x1
 4039 0bc0 50       		.byte	0x50
 4040 0bc1 05       		.uleb128 0x5
 4041 0bc2 03       		.byte	0x3
 4042 0bc3 18000000 		.4byte	.LANCHOR1+24
ARM GAS  C:\Users\JASON\AppData\Local\Temp\cct5bgFA.s 			page 100


 4043 0bc7 2B       		.uleb128 0x2b
 4044 0bc8 01       		.uleb128 0x1
 4045 0bc9 51       		.byte	0x51
 4046 0bca 01       		.uleb128 0x1
 4047 0bcb 33       		.byte	0x33
 4048 0bcc 2B       		.uleb128 0x2b
 4049 0bcd 01       		.uleb128 0x1
 4050 0bce 52       		.byte	0x52
 4051 0bcf 05       		.uleb128 0x5
 4052 0bd0 03       		.byte	0x3
 4053 0bd1 00000000 		.4byte	.LANCHOR1
 4054 0bd5 2B       		.uleb128 0x2b
 4055 0bd6 01       		.uleb128 0x1
 4056 0bd7 53       		.byte	0x53
 4057 0bd8 01       		.uleb128 0x1
 4058 0bd9 32       		.byte	0x32
 4059 0bda 2B       		.uleb128 0x2b
 4060 0bdb 02       		.uleb128 0x2
 4061 0bdc 7D       		.byte	0x7d
 4062 0bdd 00       		.sleb128 0
 4063 0bde 02       		.uleb128 0x2
 4064 0bdf 77       		.byte	0x77
 4065 0be0 00       		.sleb128 0
 4066 0be1 2B       		.uleb128 0x2b
 4067 0be2 02       		.uleb128 0x2
 4068 0be3 7D       		.byte	0x7d
 4069 0be4 04       		.sleb128 4
 4070 0be5 03       		.uleb128 0x3
 4071 0be6 91       		.byte	0x91
 4072 0be7 F87E     		.sleb128 -136
 4073 0be9 00       		.byte	0
 4074 0bea 00       		.byte	0
 4075 0beb 25       		.uleb128 0x25
 4076 0bec 9A010000 		.4byte	.LBB81
 4077 0bf0 DA000000 		.4byte	.LBE81-.LBB81
 4078 0bf4 21       		.uleb128 0x21
 4079 0bf5 B70E0000 		.4byte	.LASF180
 4080 0bf9 01       		.byte	0x1
 4081 0bfa 8001     		.2byte	0x180
 4082 0bfc 36030000 		.4byte	0x336
 4083 0c00 03       		.uleb128 0x3
 4084 0c01 91       		.byte	0x91
 4085 0c02 887E     		.sleb128 -248
 4086 0c04 1B       		.uleb128 0x1b
 4087 0c05 A1030000 		.4byte	.LASF181
 4088 0c09 01       		.byte	0x1
 4089 0c0a 8301     		.2byte	0x183
 4090 0c0c 00020000 		.4byte	0x200
 4091 0c10 22       		.uleb128 0x22
 4092 0c11 17090000 		.4byte	0x917
 4093 0c15 B6010000 		.4byte	.LBB82
 4094 0c19 1A000000 		.4byte	.LBE82-.LBB82
 4095 0c1d 01       		.byte	0x1
 4096 0c1e 8801     		.2byte	0x188
 4097 0c20 2A0C0000 		.4byte	0xc2a
 4098 0c24 23       		.uleb128 0x23
 4099 0c25 28090000 		.4byte	0x928
ARM GAS  C:\Users\JASON\AppData\Local\Temp\cct5bgFA.s 			page 101


 4100 0c29 00       		.byte	0
 4101 0c2a 22       		.uleb128 0x22
 4102 0c2b B0080000 		.4byte	0x8b0
 4103 0c2f 08020000 		.4byte	.LBB84
 4104 0c33 6C000000 		.4byte	.LBE84-.LBB84
 4105 0c37 01       		.byte	0x1
 4106 0c38 8D01     		.2byte	0x18d
 4107 0c3a A40C0000 		.4byte	0xca4
 4108 0c3e 24       		.uleb128 0x24
 4109 0c3f CD080000 		.4byte	0x8cd
 4110 0c43 03       		.uleb128 0x3
 4111 0c44 91       		.byte	0x91
 4112 0c45 C07E     		.sleb128 -192
 4113 0c47 23       		.uleb128 0x23
 4114 0c48 C1080000 		.4byte	0x8c1
 4115 0c4c 25       		.uleb128 0x25
 4116 0c4d 08020000 		.4byte	.LBB85
 4117 0c51 6C000000 		.4byte	.LBE85-.LBB85
 4118 0c55 27       		.uleb128 0x27
 4119 0c56 D9080000 		.4byte	0x8d9
 4120 0c5a 1A010000 		.4byte	.LLST9
 4121 0c5e 27       		.uleb128 0x27
 4122 0c5f E5080000 		.4byte	0x8e5
 4123 0c63 2E010000 		.4byte	.LLST10
 4124 0c67 27       		.uleb128 0x27
 4125 0c68 F1080000 		.4byte	0x8f1
 4126 0c6c 64010000 		.4byte	.LLST11
 4127 0c70 28       		.uleb128 0x28
 4128 0c71 5A020000 		.4byte	.LBB86
 4129 0c75 0A000000 		.4byte	.LBE86-.LBB86
 4130 0c79 900C0000 		.4byte	0xc90
 4131 0c7d 27       		.uleb128 0x27
 4132 0c7e FE080000 		.4byte	0x8fe
 4133 0c82 77010000 		.4byte	.LLST12
 4134 0c86 29       		.uleb128 0x29
 4135 0c87 64020000 		.4byte	.LVL36
 4136 0c8b 901A0000 		.4byte	0x1a90
 4137 0c8f 00       		.byte	0
 4138 0c90 29       		.uleb128 0x29
 4139 0c91 18020000 		.4byte	.LVL32
 4140 0c95 9C1A0000 		.4byte	0x1a9c
 4141 0c99 29       		.uleb128 0x29
 4142 0c9a 4C020000 		.4byte	.LVL33
 4143 0c9e A81A0000 		.4byte	0x1aa8
 4144 0ca2 00       		.byte	0
 4145 0ca3 00       		.byte	0
 4146 0ca4 2A       		.uleb128 0x2a
 4147 0ca5 B6010000 		.4byte	.LVL28
 4148 0ca9 B41A0000 		.4byte	0x1ab4
 4149 0cad 2B       		.uleb128 0x2b
 4150 0cae 01       		.uleb128 0x1
 4151 0caf 50       		.byte	0x50
 4152 0cb0 05       		.uleb128 0x5
 4153 0cb1 03       		.byte	0x3
 4154 0cb2 18000000 		.4byte	.LANCHOR1+24
 4155 0cb6 2B       		.uleb128 0x2b
 4156 0cb7 01       		.uleb128 0x1
ARM GAS  C:\Users\JASON\AppData\Local\Temp\cct5bgFA.s 			page 102


 4157 0cb8 51       		.byte	0x51
 4158 0cb9 01       		.uleb128 0x1
 4159 0cba 33       		.byte	0x33
 4160 0cbb 2B       		.uleb128 0x2b
 4161 0cbc 01       		.uleb128 0x1
 4162 0cbd 52       		.byte	0x52
 4163 0cbe 05       		.uleb128 0x5
 4164 0cbf 03       		.byte	0x3
 4165 0cc0 00000000 		.4byte	.LANCHOR1
 4166 0cc4 2B       		.uleb128 0x2b
 4167 0cc5 01       		.uleb128 0x1
 4168 0cc6 53       		.byte	0x53
 4169 0cc7 01       		.uleb128 0x1
 4170 0cc8 32       		.byte	0x32
 4171 0cc9 2B       		.uleb128 0x2b
 4172 0cca 02       		.uleb128 0x2
 4173 0ccb 7D       		.byte	0x7d
 4174 0ccc 00       		.sleb128 0
 4175 0ccd 02       		.uleb128 0x2
 4176 0cce 77       		.byte	0x77
 4177 0ccf 00       		.sleb128 0
 4178 0cd0 2B       		.uleb128 0x2b
 4179 0cd1 02       		.uleb128 0x2
 4180 0cd2 7D       		.byte	0x7d
 4181 0cd3 04       		.sleb128 4
 4182 0cd4 03       		.uleb128 0x3
 4183 0cd5 91       		.byte	0x91
 4184 0cd6 887E     		.sleb128 -248
 4185 0cd8 00       		.byte	0
 4186 0cd9 00       		.byte	0
 4187 0cda 00       		.byte	0
 4188 0cdb 2C       		.uleb128 0x2c
 4189 0cdc 65020000 		.4byte	.LASF182
 4190 0ce0 01       		.byte	0x1
 4191 0ce1 D601     		.2byte	0x1d6
 4192 0ce3 00000000 		.4byte	.LFB141
 4193 0ce7 18000000 		.4byte	.LFE141-.LFB141
 4194 0ceb 01       		.uleb128 0x1
 4195 0cec 9C       		.byte	0x9c
 4196 0ced 1D0D0000 		.4byte	0xd1d
 4197 0cf1 2D       		.uleb128 0x2d
 4198 0cf2 08000000 		.4byte	.LVL41
 4199 0cf6 BF1A0000 		.4byte	0x1abf
 4200 0cfa 080D0000 		.4byte	0xd08
 4201 0cfe 2B       		.uleb128 0x2b
 4202 0cff 01       		.uleb128 0x1
 4203 0d00 50       		.byte	0x50
 4204 0d01 05       		.uleb128 0x5
 4205 0d02 03       		.byte	0x3
 4206 0d03 00000000 		.4byte	.LC0
 4207 0d07 00       		.byte	0
 4208 0d08 2A       		.uleb128 0x2a
 4209 0d09 10000000 		.4byte	.LVL42
 4210 0d0d 220A0000 		.4byte	0xa22
 4211 0d11 2B       		.uleb128 0x2b
 4212 0d12 01       		.uleb128 0x1
 4213 0d13 50       		.byte	0x50
ARM GAS  C:\Users\JASON\AppData\Local\Temp\cct5bgFA.s 			page 103


 4214 0d14 01       		.uleb128 0x1
 4215 0d15 34       		.byte	0x34
 4216 0d16 2B       		.uleb128 0x2b
 4217 0d17 01       		.uleb128 0x1
 4218 0d18 51       		.byte	0x51
 4219 0d19 01       		.uleb128 0x1
 4220 0d1a 31       		.byte	0x31
 4221 0d1b 00       		.byte	0
 4222 0d1c 00       		.byte	0
 4223 0d1d 2C       		.uleb128 0x2c
 4224 0d1e 80010000 		.4byte	.LASF183
 4225 0d22 01       		.byte	0x1
 4226 0d23 9B01     		.2byte	0x19b
 4227 0d25 00000000 		.4byte	.LFB135
 4228 0d29 18000000 		.4byte	.LFE135-.LFB135
 4229 0d2d 01       		.uleb128 0x1
 4230 0d2e 9C       		.byte	0x9c
 4231 0d2f 5F0D0000 		.4byte	0xd5f
 4232 0d33 2D       		.uleb128 0x2d
 4233 0d34 08000000 		.4byte	.LVL43
 4234 0d38 BF1A0000 		.4byte	0x1abf
 4235 0d3c 4A0D0000 		.4byte	0xd4a
 4236 0d40 2B       		.uleb128 0x2b
 4237 0d41 01       		.uleb128 0x1
 4238 0d42 50       		.byte	0x50
 4239 0d43 05       		.uleb128 0x5
 4240 0d44 03       		.byte	0x3
 4241 0d45 20000000 		.4byte	.LC1
 4242 0d49 00       		.byte	0
 4243 0d4a 2A       		.uleb128 0x2a
 4244 0d4b 10000000 		.4byte	.LVL44
 4245 0d4f 220A0000 		.4byte	0xa22
 4246 0d53 2B       		.uleb128 0x2b
 4247 0d54 01       		.uleb128 0x1
 4248 0d55 50       		.byte	0x50
 4249 0d56 01       		.uleb128 0x1
 4250 0d57 32       		.byte	0x32
 4251 0d58 2B       		.uleb128 0x2b
 4252 0d59 01       		.uleb128 0x1
 4253 0d5a 51       		.byte	0x51
 4254 0d5b 01       		.uleb128 0x1
 4255 0d5c 31       		.byte	0x31
 4256 0d5d 00       		.byte	0
 4257 0d5e 00       		.byte	0
 4258 0d5f 2C       		.uleb128 0x2c
 4259 0d60 9D040000 		.4byte	.LASF184
 4260 0d64 01       		.byte	0x1
 4261 0d65 A301     		.2byte	0x1a3
 4262 0d67 00000000 		.4byte	.LFB136
 4263 0d6b 20000000 		.4byte	.LFE136-.LFB136
 4264 0d6f 01       		.uleb128 0x1
 4265 0d70 9C       		.byte	0x9c
 4266 0d71 B90D0000 		.4byte	0xdb9
 4267 0d75 2D       		.uleb128 0x2d
 4268 0d76 08000000 		.4byte	.LVL45
 4269 0d7a BF1A0000 		.4byte	0x1abf
 4270 0d7e 8C0D0000 		.4byte	0xd8c
ARM GAS  C:\Users\JASON\AppData\Local\Temp\cct5bgFA.s 			page 104


 4271 0d82 2B       		.uleb128 0x2b
 4272 0d83 01       		.uleb128 0x1
 4273 0d84 50       		.byte	0x50
 4274 0d85 05       		.uleb128 0x5
 4275 0d86 03       		.byte	0x3
 4276 0d87 3C000000 		.4byte	.LC2
 4277 0d8b 00       		.byte	0
 4278 0d8c 2D       		.uleb128 0x2d
 4279 0d8d 10000000 		.4byte	.LVL46
 4280 0d91 220A0000 		.4byte	0xa22
 4281 0d95 A40D0000 		.4byte	0xda4
 4282 0d99 2B       		.uleb128 0x2b
 4283 0d9a 01       		.uleb128 0x1
 4284 0d9b 50       		.byte	0x50
 4285 0d9c 01       		.uleb128 0x1
 4286 0d9d 31       		.byte	0x31
 4287 0d9e 2B       		.uleb128 0x2b
 4288 0d9f 01       		.uleb128 0x1
 4289 0da0 51       		.byte	0x51
 4290 0da1 01       		.uleb128 0x1
 4291 0da2 31       		.byte	0x31
 4292 0da3 00       		.byte	0
 4293 0da4 2A       		.uleb128 0x2a
 4294 0da5 18000000 		.4byte	.LVL47
 4295 0da9 220A0000 		.4byte	0xa22
 4296 0dad 2B       		.uleb128 0x2b
 4297 0dae 01       		.uleb128 0x1
 4298 0daf 50       		.byte	0x50
 4299 0db0 01       		.uleb128 0x1
 4300 0db1 31       		.byte	0x31
 4301 0db2 2B       		.uleb128 0x2b
 4302 0db3 01       		.uleb128 0x1
 4303 0db4 51       		.byte	0x51
 4304 0db5 01       		.uleb128 0x1
 4305 0db6 32       		.byte	0x32
 4306 0db7 00       		.byte	0
 4307 0db8 00       		.byte	0
 4308 0db9 2C       		.uleb128 0x2c
 4309 0dba DB070000 		.4byte	.LASF185
 4310 0dbe 01       		.byte	0x1
 4311 0dbf DE01     		.2byte	0x1de
 4312 0dc1 00000000 		.4byte	.LFB142
 4313 0dc5 18000000 		.4byte	.LFE142-.LFB142
 4314 0dc9 01       		.uleb128 0x1
 4315 0dca 9C       		.byte	0x9c
 4316 0dcb FB0D0000 		.4byte	0xdfb
 4317 0dcf 2D       		.uleb128 0x2d
 4318 0dd0 08000000 		.4byte	.LVL48
 4319 0dd4 BF1A0000 		.4byte	0x1abf
 4320 0dd8 E60D0000 		.4byte	0xde6
 4321 0ddc 2B       		.uleb128 0x2b
 4322 0ddd 01       		.uleb128 0x1
 4323 0dde 50       		.byte	0x50
 4324 0ddf 05       		.uleb128 0x5
 4325 0de0 03       		.byte	0x3
 4326 0de1 5C000000 		.4byte	.LC3
 4327 0de5 00       		.byte	0
ARM GAS  C:\Users\JASON\AppData\Local\Temp\cct5bgFA.s 			page 105


 4328 0de6 2A       		.uleb128 0x2a
 4329 0de7 10000000 		.4byte	.LVL49
 4330 0deb 220A0000 		.4byte	0xa22
 4331 0def 2B       		.uleb128 0x2b
 4332 0df0 01       		.uleb128 0x1
 4333 0df1 50       		.byte	0x50
 4334 0df2 01       		.uleb128 0x1
 4335 0df3 34       		.byte	0x34
 4336 0df4 2B       		.uleb128 0x2b
 4337 0df5 01       		.uleb128 0x1
 4338 0df6 51       		.byte	0x51
 4339 0df7 01       		.uleb128 0x1
 4340 0df8 32       		.byte	0x32
 4341 0df9 00       		.byte	0
 4342 0dfa 00       		.byte	0
 4343 0dfb 2C       		.uleb128 0x2c
 4344 0dfc 68080000 		.4byte	.LASF186
 4345 0e00 01       		.byte	0x1
 4346 0e01 B401     		.2byte	0x1b4
 4347 0e03 00000000 		.4byte	.LFB138
 4348 0e07 18000000 		.4byte	.LFE138-.LFB138
 4349 0e0b 01       		.uleb128 0x1
 4350 0e0c 9C       		.byte	0x9c
 4351 0e0d 3D0E0000 		.4byte	0xe3d
 4352 0e11 2D       		.uleb128 0x2d
 4353 0e12 08000000 		.4byte	.LVL50
 4354 0e16 BF1A0000 		.4byte	0x1abf
 4355 0e1a 280E0000 		.4byte	0xe28
 4356 0e1e 2B       		.uleb128 0x2b
 4357 0e1f 01       		.uleb128 0x1
 4358 0e20 50       		.byte	0x50
 4359 0e21 05       		.uleb128 0x5
 4360 0e22 03       		.byte	0x3
 4361 0e23 78000000 		.4byte	.LC4
 4362 0e27 00       		.byte	0
 4363 0e28 2A       		.uleb128 0x2a
 4364 0e29 10000000 		.4byte	.LVL51
 4365 0e2d 220A0000 		.4byte	0xa22
 4366 0e31 2B       		.uleb128 0x2b
 4367 0e32 01       		.uleb128 0x1
 4368 0e33 50       		.byte	0x50
 4369 0e34 01       		.uleb128 0x1
 4370 0e35 32       		.byte	0x32
 4371 0e36 2B       		.uleb128 0x2b
 4372 0e37 01       		.uleb128 0x1
 4373 0e38 51       		.byte	0x51
 4374 0e39 01       		.uleb128 0x1
 4375 0e3a 32       		.byte	0x32
 4376 0e3b 00       		.byte	0
 4377 0e3c 00       		.byte	0
 4378 0e3d 2C       		.uleb128 0x2c
 4379 0e3e 2C0C0000 		.4byte	.LASF187
 4380 0e42 01       		.byte	0x1
 4381 0e43 AC01     		.2byte	0x1ac
 4382 0e45 00000000 		.4byte	.LFB137
 4383 0e49 18000000 		.4byte	.LFE137-.LFB137
 4384 0e4d 01       		.uleb128 0x1
ARM GAS  C:\Users\JASON\AppData\Local\Temp\cct5bgFA.s 			page 106


 4385 0e4e 9C       		.byte	0x9c
 4386 0e4f 7F0E0000 		.4byte	0xe7f
 4387 0e53 2D       		.uleb128 0x2d
 4388 0e54 08000000 		.4byte	.LVL52
 4389 0e58 BF1A0000 		.4byte	0x1abf
 4390 0e5c 6A0E0000 		.4byte	0xe6a
 4391 0e60 2B       		.uleb128 0x2b
 4392 0e61 01       		.uleb128 0x1
 4393 0e62 50       		.byte	0x50
 4394 0e63 05       		.uleb128 0x5
 4395 0e64 03       		.byte	0x3
 4396 0e65 94000000 		.4byte	.LC5
 4397 0e69 00       		.byte	0
 4398 0e6a 2A       		.uleb128 0x2a
 4399 0e6b 10000000 		.4byte	.LVL53
 4400 0e6f 220A0000 		.4byte	0xa22
 4401 0e73 2B       		.uleb128 0x2b
 4402 0e74 01       		.uleb128 0x1
 4403 0e75 50       		.byte	0x50
 4404 0e76 01       		.uleb128 0x1
 4405 0e77 31       		.byte	0x31
 4406 0e78 2B       		.uleb128 0x2b
 4407 0e79 01       		.uleb128 0x1
 4408 0e7a 51       		.byte	0x51
 4409 0e7b 01       		.uleb128 0x1
 4410 0e7c 32       		.byte	0x32
 4411 0e7d 00       		.byte	0
 4412 0e7e 00       		.byte	0
 4413 0e7f 2C       		.uleb128 0x2c
 4414 0e80 5F0B0000 		.4byte	.LASF188
 4415 0e84 01       		.byte	0x1
 4416 0e85 9301     		.2byte	0x193
 4417 0e87 00000000 		.4byte	.LFB134
 4418 0e8b 18000000 		.4byte	.LFE134-.LFB134
 4419 0e8f 01       		.uleb128 0x1
 4420 0e90 9C       		.byte	0x9c
 4421 0e91 C10E0000 		.4byte	0xec1
 4422 0e95 2D       		.uleb128 0x2d
 4423 0e96 08000000 		.4byte	.LVL54
 4424 0e9a BF1A0000 		.4byte	0x1abf
 4425 0e9e AC0E0000 		.4byte	0xeac
 4426 0ea2 2B       		.uleb128 0x2b
 4427 0ea3 01       		.uleb128 0x1
 4428 0ea4 50       		.byte	0x50
 4429 0ea5 05       		.uleb128 0x5
 4430 0ea6 03       		.byte	0x3
 4431 0ea7 B0000000 		.4byte	.LC6
 4432 0eab 00       		.byte	0
 4433 0eac 2A       		.uleb128 0x2a
 4434 0ead 10000000 		.4byte	.LVL55
 4435 0eb1 220A0000 		.4byte	0xa22
 4436 0eb5 2B       		.uleb128 0x2b
 4437 0eb6 01       		.uleb128 0x1
 4438 0eb7 50       		.byte	0x50
 4439 0eb8 01       		.uleb128 0x1
 4440 0eb9 31       		.byte	0x31
 4441 0eba 2B       		.uleb128 0x2b
ARM GAS  C:\Users\JASON\AppData\Local\Temp\cct5bgFA.s 			page 107


 4442 0ebb 01       		.uleb128 0x1
 4443 0ebc 51       		.byte	0x51
 4444 0ebd 01       		.uleb128 0x1
 4445 0ebe 31       		.byte	0x31
 4446 0ebf 00       		.byte	0
 4447 0ec0 00       		.byte	0
 4448 0ec1 2C       		.uleb128 0x2c
 4449 0ec2 60000000 		.4byte	.LASF189
 4450 0ec6 01       		.byte	0x1
 4451 0ec7 7002     		.2byte	0x270
 4452 0ec9 00000000 		.4byte	.LFB151
 4453 0ecd 6C000000 		.4byte	.LFE151-.LFB151
 4454 0ed1 01       		.uleb128 0x1
 4455 0ed2 9C       		.byte	0x9c
 4456 0ed3 690F0000 		.4byte	0xf69
 4457 0ed7 1A       		.uleb128 0x1a
 4458 0ed8 657600   		.ascii	"ev\000"
 4459 0edb 01       		.byte	0x1
 4460 0edc 7502     		.2byte	0x275
 4461 0ede 58070000 		.4byte	0x758
 4462 0ee2 22       		.uleb128 0x22
 4463 0ee3 45090000 		.4byte	0x945
 4464 0ee7 08000000 		.4byte	.LBB87
 4465 0eeb 64000000 		.4byte	.LBE87-.LBB87
 4466 0eef 01       		.byte	0x1
 4467 0ef0 7602     		.2byte	0x276
 4468 0ef2 550F0000 		.4byte	0xf55
 4469 0ef6 23       		.uleb128 0x23
 4470 0ef7 62090000 		.4byte	0x962
 4471 0efb 23       		.uleb128 0x23
 4472 0efc 56090000 		.4byte	0x956
 4473 0f00 25       		.uleb128 0x25
 4474 0f01 08000000 		.4byte	.LBB88
 4475 0f05 64000000 		.4byte	.LBE88-.LBB88
 4476 0f09 26       		.uleb128 0x26
 4477 0f0a 6E090000 		.4byte	0x96e
 4478 0f0e 00       		.byte	0
 4479 0f0f 27       		.uleb128 0x27
 4480 0f10 7A090000 		.4byte	0x97a
 4481 0f14 90010000 		.4byte	.LLST13
 4482 0f18 27       		.uleb128 0x27
 4483 0f19 86090000 		.4byte	0x986
 4484 0f1d C6010000 		.4byte	.LLST14
 4485 0f21 28       		.uleb128 0x28
 4486 0f22 46000000 		.4byte	.LBB89
 4487 0f26 0A000000 		.4byte	.LBE89-.LBB89
 4488 0f2a 410F0000 		.4byte	0xf41
 4489 0f2e 27       		.uleb128 0x27
 4490 0f2f 93090000 		.4byte	0x993
 4491 0f33 D9010000 		.4byte	.LLST15
 4492 0f37 29       		.uleb128 0x29
 4493 0f38 50000000 		.4byte	.LVL61
 4494 0f3c 901A0000 		.4byte	0x1a90
 4495 0f40 00       		.byte	0
 4496 0f41 29       		.uleb128 0x29
 4497 0f42 1A000000 		.4byte	.LVL57
 4498 0f46 9C1A0000 		.4byte	0x1a9c
ARM GAS  C:\Users\JASON\AppData\Local\Temp\cct5bgFA.s 			page 108


 4499 0f4a 29       		.uleb128 0x29
 4500 0f4b 38000000 		.4byte	.LVL58
 4501 0f4f A81A0000 		.4byte	0x1aa8
 4502 0f53 00       		.byte	0
 4503 0f54 00       		.byte	0
 4504 0f55 2A       		.uleb128 0x2a
 4505 0f56 08000000 		.4byte	.LVL56
 4506 0f5a BF1A0000 		.4byte	0x1abf
 4507 0f5e 2B       		.uleb128 0x2b
 4508 0f5f 01       		.uleb128 0x1
 4509 0f60 50       		.byte	0x50
 4510 0f61 05       		.uleb128 0x5
 4511 0f62 03       		.byte	0x3
 4512 0f63 CC000000 		.4byte	.LC7
 4513 0f67 00       		.byte	0
 4514 0f68 00       		.byte	0
 4515 0f69 2C       		.uleb128 0x2c
 4516 0f6a 34020000 		.4byte	.LASF190
 4517 0f6e 01       		.byte	0x1
 4518 0f6f 4502     		.2byte	0x245
 4519 0f71 00000000 		.4byte	.LFB148
 4520 0f75 14010000 		.4byte	.LFE148-.LFB148
 4521 0f79 01       		.uleb128 0x1
 4522 0f7a 9C       		.byte	0x9c
 4523 0f7b 44100000 		.4byte	0x1044
 4524 0f7f 21       		.uleb128 0x21
 4525 0f80 E80E0000 		.4byte	.LASF179
 4526 0f84 01       		.byte	0x1
 4527 0f85 4A02     		.2byte	0x24a
 4528 0f87 CC050000 		.4byte	0x5cc
 4529 0f8b 03       		.uleb128 0x3
 4530 0f8c 91       		.byte	0x91
 4531 0f8d B87F     		.sleb128 -72
 4532 0f8f 2E       		.uleb128 0x2e
 4533 0f90 B70E0000 		.4byte	.LASF180
 4534 0f94 01       		.byte	0x1
 4535 0f95 4C02     		.2byte	0x24c
 4536 0f97 36030000 		.4byte	0x336
 4537 0f9b F2010000 		.4byte	.LLST16
 4538 0f9f 22       		.uleb128 0x22
 4539 0fa0 17090000 		.4byte	0x917
 4540 0fa4 0A000000 		.4byte	.LBB90
 4541 0fa8 18000000 		.4byte	.LBE90-.LBB90
 4542 0fac 01       		.byte	0x1
 4543 0fad 4A02     		.2byte	0x24a
 4544 0faf B90F0000 		.4byte	0xfb9
 4545 0fb3 23       		.uleb128 0x23
 4546 0fb4 28090000 		.4byte	0x928
 4547 0fb8 00       		.byte	0
 4548 0fb9 22       		.uleb128 0x22
 4549 0fba B0080000 		.4byte	0x8b0
 4550 0fbe 90000000 		.4byte	.LBB92
 4551 0fc2 6E000000 		.4byte	.LBE92-.LBB92
 4552 0fc6 01       		.byte	0x1
 4553 0fc7 5D02     		.2byte	0x25d
 4554 0fc9 30100000 		.4byte	0x1030
 4555 0fcd 24       		.uleb128 0x24
ARM GAS  C:\Users\JASON\AppData\Local\Temp\cct5bgFA.s 			page 109


 4556 0fce CD080000 		.4byte	0x8cd
 4557 0fd2 03       		.uleb128 0x3
 4558 0fd3 91       		.byte	0x91
 4559 0fd4 807F     		.sleb128 -128
 4560 0fd6 23       		.uleb128 0x23
 4561 0fd7 C1080000 		.4byte	0x8c1
 4562 0fdb 25       		.uleb128 0x25
 4563 0fdc 90000000 		.4byte	.LBB93
 4564 0fe0 6E000000 		.4byte	.LBE93-.LBB93
 4565 0fe4 26       		.uleb128 0x26
 4566 0fe5 D9080000 		.4byte	0x8d9
 4567 0fe9 00       		.byte	0
 4568 0fea 27       		.uleb128 0x27
 4569 0feb E5080000 		.4byte	0x8e5
 4570 0fef 4E020000 		.4byte	.LLST17
 4571 0ff3 27       		.uleb128 0x27
 4572 0ff4 F1080000 		.4byte	0x8f1
 4573 0ff8 84020000 		.4byte	.LLST18
 4574 0ffc 28       		.uleb128 0x28
 4575 0ffd E4000000 		.4byte	.LBB94
 4576 1001 0A000000 		.4byte	.LBE94-.LBB94
 4577 1005 1C100000 		.4byte	0x101c
 4578 1009 27       		.uleb128 0x27
 4579 100a FE080000 		.4byte	0x8fe
 4580 100e 97020000 		.4byte	.LLST19
 4581 1012 29       		.uleb128 0x29
 4582 1013 EE000000 		.4byte	.LVL81
 4583 1017 901A0000 		.4byte	0x1a90
 4584 101b 00       		.byte	0
 4585 101c 29       		.uleb128 0x29
 4586 101d A2000000 		.4byte	.LVL77
 4587 1021 9C1A0000 		.4byte	0x1a9c
 4588 1025 29       		.uleb128 0x29
 4589 1026 D6000000 		.4byte	.LVL78
 4590 102a A81A0000 		.4byte	0x1aa8
 4591 102e 00       		.byte	0
 4592 102f 00       		.byte	0
 4593 1030 2A       		.uleb128 0x2a
 4594 1031 0A000000 		.4byte	.LVL67
 4595 1035 BF1A0000 		.4byte	0x1abf
 4596 1039 2B       		.uleb128 0x2b
 4597 103a 01       		.uleb128 0x1
 4598 103b 50       		.byte	0x50
 4599 103c 05       		.uleb128 0x5
 4600 103d 03       		.byte	0x3
 4601 103e E4000000 		.4byte	.LC8
 4602 1042 00       		.byte	0
 4603 1043 00       		.byte	0
 4604 1044 2C       		.uleb128 0x2c
 4605 1045 F8020000 		.4byte	.LASF191
 4606 1049 01       		.byte	0x1
 4607 104a 2F02     		.2byte	0x22f
 4608 104c 00000000 		.4byte	.LFB147
 4609 1050 CC000000 		.4byte	.LFE147-.LFB147
 4610 1054 01       		.uleb128 0x1
 4611 1055 9C       		.byte	0x9c
 4612 1056 1F110000 		.4byte	0x111f
ARM GAS  C:\Users\JASON\AppData\Local\Temp\cct5bgFA.s 			page 110


 4613 105a 21       		.uleb128 0x21
 4614 105b E80E0000 		.4byte	.LASF179
 4615 105f 01       		.byte	0x1
 4616 1060 3402     		.2byte	0x234
 4617 1062 CC050000 		.4byte	0x5cc
 4618 1066 03       		.uleb128 0x3
 4619 1067 91       		.byte	0x91
 4620 1068 B87F     		.sleb128 -72
 4621 106a 21       		.uleb128 0x21
 4622 106b C6030000 		.4byte	.LASF192
 4623 106f 01       		.byte	0x1
 4624 1070 3602     		.2byte	0x236
 4625 1072 08050000 		.4byte	0x508
 4626 1076 03       		.uleb128 0x3
 4627 1077 91       		.byte	0x91
 4628 1078 B47F     		.sleb128 -76
 4629 107a 22       		.uleb128 0x22
 4630 107b 17090000 		.4byte	0x917
 4631 107f 0A000000 		.4byte	.LBB95
 4632 1083 1A000000 		.4byte	.LBE95-.LBB95
 4633 1087 01       		.byte	0x1
 4634 1088 3402     		.2byte	0x234
 4635 108a 94100000 		.4byte	0x1094
 4636 108e 23       		.uleb128 0x23
 4637 108f 28090000 		.4byte	0x928
 4638 1093 00       		.byte	0
 4639 1094 22       		.uleb128 0x22
 4640 1095 B0080000 		.4byte	0x8b0
 4641 1099 54000000 		.4byte	.LBB97
 4642 109d 6C000000 		.4byte	.LBE97-.LBB97
 4643 10a1 01       		.byte	0x1
 4644 10a2 3F02     		.2byte	0x23f
 4645 10a4 0B110000 		.4byte	0x110b
 4646 10a8 24       		.uleb128 0x24
 4647 10a9 CD080000 		.4byte	0x8cd
 4648 10ad 03       		.uleb128 0x3
 4649 10ae 91       		.byte	0x91
 4650 10af FC7E     		.sleb128 -132
 4651 10b1 23       		.uleb128 0x23
 4652 10b2 C1080000 		.4byte	0x8c1
 4653 10b6 25       		.uleb128 0x25
 4654 10b7 54000000 		.4byte	.LBB98
 4655 10bb 6C000000 		.4byte	.LBE98-.LBB98
 4656 10bf 26       		.uleb128 0x26
 4657 10c0 D9080000 		.4byte	0x8d9
 4658 10c4 00       		.byte	0
 4659 10c5 27       		.uleb128 0x27
 4660 10c6 E5080000 		.4byte	0x8e5
 4661 10ca B0020000 		.4byte	.LLST20
 4662 10ce 27       		.uleb128 0x27
 4663 10cf F1080000 		.4byte	0x8f1
 4664 10d3 E6020000 		.4byte	.LLST21
 4665 10d7 28       		.uleb128 0x28
 4666 10d8 A6000000 		.4byte	.LBB99
 4667 10dc 0A000000 		.4byte	.LBE99-.LBB99
 4668 10e0 F7100000 		.4byte	0x10f7
 4669 10e4 27       		.uleb128 0x27
ARM GAS  C:\Users\JASON\AppData\Local\Temp\cct5bgFA.s 			page 111


 4670 10e5 FE080000 		.4byte	0x8fe
 4671 10e9 F9020000 		.4byte	.LLST22
 4672 10ed 29       		.uleb128 0x29
 4673 10ee B0000000 		.4byte	.LVL95
 4674 10f2 901A0000 		.4byte	0x1a90
 4675 10f6 00       		.byte	0
 4676 10f7 29       		.uleb128 0x29
 4677 10f8 64000000 		.4byte	.LVL91
 4678 10fc 9C1A0000 		.4byte	0x1a9c
 4679 1100 29       		.uleb128 0x29
 4680 1101 98000000 		.4byte	.LVL92
 4681 1105 A81A0000 		.4byte	0x1aa8
 4682 1109 00       		.byte	0
 4683 110a 00       		.byte	0
 4684 110b 2A       		.uleb128 0x2a
 4685 110c 0A000000 		.4byte	.LVL87
 4686 1110 BF1A0000 		.4byte	0x1abf
 4687 1114 2B       		.uleb128 0x2b
 4688 1115 01       		.uleb128 0x1
 4689 1116 50       		.byte	0x50
 4690 1117 05       		.uleb128 0x5
 4691 1118 03       		.byte	0x3
 4692 1119 FC000000 		.4byte	.LC9
 4693 111d 00       		.byte	0
 4694 111e 00       		.byte	0
 4695 111f 2C       		.uleb128 0x2c
 4696 1120 AC0D0000 		.4byte	.LASF193
 4697 1124 01       		.byte	0x1
 4698 1125 0C02     		.2byte	0x20c
 4699 1127 00000000 		.4byte	.LFB146
 4700 112b F0000000 		.4byte	.LFE146-.LFB146
 4701 112f 01       		.uleb128 0x1
 4702 1130 9C       		.byte	0x9c
 4703 1131 0A120000 		.4byte	0x120a
 4704 1135 21       		.uleb128 0x21
 4705 1136 E80E0000 		.4byte	.LASF179
 4706 113a 01       		.byte	0x1
 4707 113b 1102     		.2byte	0x211
 4708 113d CC050000 		.4byte	0x5cc
 4709 1141 03       		.uleb128 0x3
 4710 1142 91       		.byte	0x91
 4711 1143 B87F     		.sleb128 -72
 4712 1145 21       		.uleb128 0x21
 4713 1146 CD060000 		.4byte	.LASF194
 4714 114a 01       		.byte	0x1
 4715 114b 1302     		.2byte	0x213
 4716 114d 08050000 		.4byte	0x508
 4717 1151 03       		.uleb128 0x3
 4718 1152 91       		.byte	0x91
 4719 1153 B47F     		.sleb128 -76
 4720 1155 21       		.uleb128 0x21
 4721 1156 360D0000 		.4byte	.LASF195
 4722 115a 01       		.byte	0x1
 4723 115b 1402     		.2byte	0x214
 4724 115d 08050000 		.4byte	0x508
 4725 1161 03       		.uleb128 0x3
 4726 1162 91       		.byte	0x91
ARM GAS  C:\Users\JASON\AppData\Local\Temp\cct5bgFA.s 			page 112


 4727 1163 B07F     		.sleb128 -80
 4728 1165 22       		.uleb128 0x22
 4729 1166 17090000 		.4byte	0x917
 4730 116a 0A000000 		.4byte	.LBB100
 4731 116e 18000000 		.4byte	.LBE100-.LBB100
 4732 1172 01       		.byte	0x1
 4733 1173 1102     		.2byte	0x211
 4734 1175 7F110000 		.4byte	0x117f
 4735 1179 23       		.uleb128 0x23
 4736 117a 28090000 		.4byte	0x928
 4737 117e 00       		.byte	0
 4738 117f 22       		.uleb128 0x22
 4739 1180 B0080000 		.4byte	0x8b0
 4740 1184 74000000 		.4byte	.LBB102
 4741 1188 6E000000 		.4byte	.LBE102-.LBB102
 4742 118c 01       		.byte	0x1
 4743 118d 2902     		.2byte	0x229
 4744 118f F6110000 		.4byte	0x11f6
 4745 1193 24       		.uleb128 0x24
 4746 1194 CD080000 		.4byte	0x8cd
 4747 1198 03       		.uleb128 0x3
 4748 1199 91       		.byte	0x91
 4749 119a F87E     		.sleb128 -136
 4750 119c 23       		.uleb128 0x23
 4751 119d C1080000 		.4byte	0x8c1
 4752 11a1 25       		.uleb128 0x25
 4753 11a2 74000000 		.4byte	.LBB103
 4754 11a6 6E000000 		.4byte	.LBE103-.LBB103
 4755 11aa 26       		.uleb128 0x26
 4756 11ab D9080000 		.4byte	0x8d9
 4757 11af 00       		.byte	0
 4758 11b0 27       		.uleb128 0x27
 4759 11b1 E5080000 		.4byte	0x8e5
 4760 11b5 12030000 		.4byte	.LLST23
 4761 11b9 27       		.uleb128 0x27
 4762 11ba F1080000 		.4byte	0x8f1
 4763 11be 48030000 		.4byte	.LLST24
 4764 11c2 28       		.uleb128 0x28
 4765 11c3 C8000000 		.4byte	.LBB104
 4766 11c7 0A000000 		.4byte	.LBE104-.LBB104
 4767 11cb E2110000 		.4byte	0x11e2
 4768 11cf 27       		.uleb128 0x27
 4769 11d0 FE080000 		.4byte	0x8fe
 4770 11d4 5B030000 		.4byte	.LLST25
 4771 11d8 29       		.uleb128 0x29
 4772 11d9 D2000000 		.4byte	.LVL109
 4773 11dd 901A0000 		.4byte	0x1a90
 4774 11e1 00       		.byte	0
 4775 11e2 29       		.uleb128 0x29
 4776 11e3 86000000 		.4byte	.LVL105
 4777 11e7 9C1A0000 		.4byte	0x1a9c
 4778 11eb 29       		.uleb128 0x29
 4779 11ec BA000000 		.4byte	.LVL106
 4780 11f0 A81A0000 		.4byte	0x1aa8
 4781 11f4 00       		.byte	0
 4782 11f5 00       		.byte	0
 4783 11f6 2A       		.uleb128 0x2a
ARM GAS  C:\Users\JASON\AppData\Local\Temp\cct5bgFA.s 			page 113


 4784 11f7 0A000000 		.4byte	.LVL101
 4785 11fb BF1A0000 		.4byte	0x1abf
 4786 11ff 2B       		.uleb128 0x2b
 4787 1200 01       		.uleb128 0x1
 4788 1201 50       		.byte	0x50
 4789 1202 05       		.uleb128 0x5
 4790 1203 03       		.byte	0x3
 4791 1204 14010000 		.4byte	.LC10
 4792 1208 00       		.byte	0
 4793 1209 00       		.byte	0
 4794 120a 2C       		.uleb128 0x2c
 4795 120b 390F0000 		.4byte	.LASF196
 4796 120f 01       		.byte	0x1
 4797 1210 BC01     		.2byte	0x1bc
 4798 1212 00000000 		.4byte	.LFB139
 4799 1216 74000000 		.4byte	.LFE139-.LFB139
 4800 121a 01       		.uleb128 0x1
 4801 121b 9C       		.byte	0x9c
 4802 121c CA120000 		.4byte	0x12ca
 4803 1220 1A       		.uleb128 0x1a
 4804 1221 657600   		.ascii	"ev\000"
 4805 1224 01       		.byte	0x1
 4806 1225 C201     		.2byte	0x1c2
 4807 1227 58070000 		.4byte	0x758
 4808 122b 22       		.uleb128 0x22
 4809 122c 45090000 		.4byte	0x945
 4810 1230 10000000 		.4byte	.LBB105
 4811 1234 64000000 		.4byte	.LBE105-.LBB105
 4812 1238 01       		.byte	0x1
 4813 1239 C401     		.2byte	0x1c4
 4814 123b 9E120000 		.4byte	0x129e
 4815 123f 23       		.uleb128 0x23
 4816 1240 62090000 		.4byte	0x962
 4817 1244 23       		.uleb128 0x23
 4818 1245 56090000 		.4byte	0x956
 4819 1249 25       		.uleb128 0x25
 4820 124a 10000000 		.4byte	.LBB106
 4821 124e 64000000 		.4byte	.LBE106-.LBB106
 4822 1252 26       		.uleb128 0x26
 4823 1253 6E090000 		.4byte	0x96e
 4824 1257 00       		.byte	0
 4825 1258 27       		.uleb128 0x27
 4826 1259 7A090000 		.4byte	0x97a
 4827 125d 74030000 		.4byte	.LLST26
 4828 1261 27       		.uleb128 0x27
 4829 1262 86090000 		.4byte	0x986
 4830 1266 AA030000 		.4byte	.LLST27
 4831 126a 28       		.uleb128 0x28
 4832 126b 4E000000 		.4byte	.LBB107
 4833 126f 0A000000 		.4byte	.LBE107-.LBB107
 4834 1273 8A120000 		.4byte	0x128a
 4835 1277 27       		.uleb128 0x27
 4836 1278 93090000 		.4byte	0x993
 4837 127c BD030000 		.4byte	.LLST28
 4838 1280 29       		.uleb128 0x29
 4839 1281 58000000 		.4byte	.LVL121
 4840 1285 901A0000 		.4byte	0x1a90
ARM GAS  C:\Users\JASON\AppData\Local\Temp\cct5bgFA.s 			page 114


 4841 1289 00       		.byte	0
 4842 128a 29       		.uleb128 0x29
 4843 128b 22000000 		.4byte	.LVL117
 4844 128f 9C1A0000 		.4byte	0x1a9c
 4845 1293 29       		.uleb128 0x29
 4846 1294 40000000 		.4byte	.LVL118
 4847 1298 A81A0000 		.4byte	0x1aa8
 4848 129c 00       		.byte	0
 4849 129d 00       		.byte	0
 4850 129e 2D       		.uleb128 0x2d
 4851 129f 08000000 		.4byte	.LVL115
 4852 12a3 BF1A0000 		.4byte	0x1abf
 4853 12a7 B5120000 		.4byte	0x12b5
 4854 12ab 2B       		.uleb128 0x2b
 4855 12ac 01       		.uleb128 0x1
 4856 12ad 50       		.byte	0x50
 4857 12ae 05       		.uleb128 0x5
 4858 12af 03       		.byte	0x3
 4859 12b0 2C010000 		.4byte	.LC11
 4860 12b4 00       		.byte	0
 4861 12b5 2A       		.uleb128 0x2a
 4862 12b6 10000000 		.4byte	.LVL116
 4863 12ba 220A0000 		.4byte	0xa22
 4864 12be 2B       		.uleb128 0x2b
 4865 12bf 01       		.uleb128 0x1
 4866 12c0 50       		.byte	0x50
 4867 12c1 01       		.uleb128 0x1
 4868 12c2 33       		.byte	0x33
 4869 12c3 2B       		.uleb128 0x2b
 4870 12c4 01       		.uleb128 0x1
 4871 12c5 51       		.byte	0x51
 4872 12c6 01       		.uleb128 0x1
 4873 12c7 31       		.byte	0x31
 4874 12c8 00       		.byte	0
 4875 12c9 00       		.byte	0
 4876 12ca 2C       		.uleb128 0x2c
 4877 12cb BE0C0000 		.4byte	.LASF197
 4878 12cf 01       		.byte	0x1
 4879 12d0 C901     		.2byte	0x1c9
 4880 12d2 00000000 		.4byte	.LFB140
 4881 12d6 74000000 		.4byte	.LFE140-.LFB140
 4882 12da 01       		.uleb128 0x1
 4883 12db 9C       		.byte	0x9c
 4884 12dc 8A130000 		.4byte	0x138a
 4885 12e0 1A       		.uleb128 0x1a
 4886 12e1 657600   		.ascii	"ev\000"
 4887 12e4 01       		.byte	0x1
 4888 12e5 CF01     		.2byte	0x1cf
 4889 12e7 58070000 		.4byte	0x758
 4890 12eb 22       		.uleb128 0x22
 4891 12ec 45090000 		.4byte	0x945
 4892 12f0 10000000 		.4byte	.LBB108
 4893 12f4 64000000 		.4byte	.LBE108-.LBB108
 4894 12f8 01       		.byte	0x1
 4895 12f9 D101     		.2byte	0x1d1
 4896 12fb 5E130000 		.4byte	0x135e
 4897 12ff 23       		.uleb128 0x23
ARM GAS  C:\Users\JASON\AppData\Local\Temp\cct5bgFA.s 			page 115


 4898 1300 62090000 		.4byte	0x962
 4899 1304 23       		.uleb128 0x23
 4900 1305 56090000 		.4byte	0x956
 4901 1309 25       		.uleb128 0x25
 4902 130a 10000000 		.4byte	.LBB109
 4903 130e 64000000 		.4byte	.LBE109-.LBB109
 4904 1312 26       		.uleb128 0x26
 4905 1313 6E090000 		.4byte	0x96e
 4906 1317 00       		.byte	0
 4907 1318 27       		.uleb128 0x27
 4908 1319 7A090000 		.4byte	0x97a
 4909 131d D6030000 		.4byte	.LLST29
 4910 1321 27       		.uleb128 0x27
 4911 1322 86090000 		.4byte	0x986
 4912 1326 0C040000 		.4byte	.LLST30
 4913 132a 28       		.uleb128 0x28
 4914 132b 4E000000 		.4byte	.LBB110
 4915 132f 0A000000 		.4byte	.LBE110-.LBB110
 4916 1333 4A130000 		.4byte	0x134a
 4917 1337 27       		.uleb128 0x27
 4918 1338 93090000 		.4byte	0x993
 4919 133c 1F040000 		.4byte	.LLST31
 4920 1340 29       		.uleb128 0x29
 4921 1341 58000000 		.4byte	.LVL133
 4922 1345 901A0000 		.4byte	0x1a90
 4923 1349 00       		.byte	0
 4924 134a 29       		.uleb128 0x29
 4925 134b 22000000 		.4byte	.LVL129
 4926 134f 9C1A0000 		.4byte	0x1a9c
 4927 1353 29       		.uleb128 0x29
 4928 1354 40000000 		.4byte	.LVL130
 4929 1358 A81A0000 		.4byte	0x1aa8
 4930 135c 00       		.byte	0
 4931 135d 00       		.byte	0
 4932 135e 2D       		.uleb128 0x2d
 4933 135f 08000000 		.4byte	.LVL127
 4934 1363 BF1A0000 		.4byte	0x1abf
 4935 1367 75130000 		.4byte	0x1375
 4936 136b 2B       		.uleb128 0x2b
 4937 136c 01       		.uleb128 0x1
 4938 136d 50       		.byte	0x50
 4939 136e 05       		.uleb128 0x5
 4940 136f 03       		.byte	0x3
 4941 1370 48010000 		.4byte	.LC12
 4942 1374 00       		.byte	0
 4943 1375 2A       		.uleb128 0x2a
 4944 1376 10000000 		.4byte	.LVL128
 4945 137a 220A0000 		.4byte	0xa22
 4946 137e 2B       		.uleb128 0x2b
 4947 137f 01       		.uleb128 0x1
 4948 1380 50       		.byte	0x50
 4949 1381 01       		.uleb128 0x1
 4950 1382 33       		.byte	0x33
 4951 1383 2B       		.uleb128 0x2b
 4952 1384 01       		.uleb128 0x1
 4953 1385 51       		.byte	0x51
 4954 1386 01       		.uleb128 0x1
ARM GAS  C:\Users\JASON\AppData\Local\Temp\cct5bgFA.s 			page 116


 4955 1387 32       		.byte	0x32
 4956 1388 00       		.byte	0
 4957 1389 00       		.byte	0
 4958 138a 2C       		.uleb128 0x2c
 4959 138b 16070000 		.4byte	.LASF198
 4960 138f 01       		.byte	0x1
 4961 1390 E701     		.2byte	0x1e7
 4962 1392 00000000 		.4byte	.LFB143
 4963 1396 00010000 		.4byte	.LFE143-.LFB143
 4964 139a 01       		.uleb128 0x1
 4965 139b 9C       		.byte	0x9c
 4966 139c 73140000 		.4byte	0x1473
 4967 13a0 21       		.uleb128 0x21
 4968 13a1 E80E0000 		.4byte	.LASF179
 4969 13a5 01       		.byte	0x1
 4970 13a6 EC01     		.2byte	0x1ec
 4971 13a8 CC050000 		.4byte	0x5cc
 4972 13ac 03       		.uleb128 0x3
 4973 13ad 91       		.byte	0x91
 4974 13ae B87F     		.sleb128 -72
 4975 13b0 2F       		.uleb128 0x2f
 4976 13b1 686800   		.ascii	"hh\000"
 4977 13b4 01       		.byte	0x1
 4978 13b5 EE01     		.2byte	0x1ee
 4979 13b7 A2000000 		.4byte	0xa2
 4980 13bb 38040000 		.4byte	.LLST32
 4981 13bf 2F       		.uleb128 0x2f
 4982 13c0 6D6D00   		.ascii	"mm\000"
 4983 13c3 01       		.byte	0x1
 4984 13c4 EF01     		.2byte	0x1ef
 4985 13c6 A2000000 		.4byte	0xa2
 4986 13ca 7B040000 		.4byte	.LLST33
 4987 13ce 22       		.uleb128 0x22
 4988 13cf 17090000 		.4byte	0x917
 4989 13d3 0A000000 		.4byte	.LBB111
 4990 13d7 18000000 		.4byte	.LBE111-.LBB111
 4991 13db 01       		.byte	0x1
 4992 13dc EC01     		.2byte	0x1ec
 4993 13de E8130000 		.4byte	0x13e8
 4994 13e2 23       		.uleb128 0x23
 4995 13e3 28090000 		.4byte	0x928
 4996 13e7 00       		.byte	0
 4997 13e8 22       		.uleb128 0x22
 4998 13e9 B0080000 		.4byte	0x8b0
 4999 13ed 7E000000 		.4byte	.LBB113
 5000 13f1 6E000000 		.4byte	.LBE113-.LBB113
 5001 13f5 01       		.byte	0x1
 5002 13f6 F801     		.2byte	0x1f8
 5003 13f8 5F140000 		.4byte	0x145f
 5004 13fc 24       		.uleb128 0x24
 5005 13fd CD080000 		.4byte	0x8cd
 5006 1401 03       		.uleb128 0x3
 5007 1402 91       		.byte	0x91
 5008 1403 807F     		.sleb128 -128
 5009 1405 23       		.uleb128 0x23
 5010 1406 C1080000 		.4byte	0x8c1
 5011 140a 25       		.uleb128 0x25
ARM GAS  C:\Users\JASON\AppData\Local\Temp\cct5bgFA.s 			page 117


 5012 140b 7E000000 		.4byte	.LBB114
 5013 140f 6E000000 		.4byte	.LBE114-.LBB114
 5014 1413 26       		.uleb128 0x26
 5015 1414 D9080000 		.4byte	0x8d9
 5016 1418 00       		.byte	0
 5017 1419 27       		.uleb128 0x27
 5018 141a E5080000 		.4byte	0x8e5
 5019 141e BE040000 		.4byte	.LLST34
 5020 1422 27       		.uleb128 0x27
 5021 1423 F1080000 		.4byte	0x8f1
 5022 1427 F4040000 		.4byte	.LLST35
 5023 142b 28       		.uleb128 0x28
 5024 142c D2000000 		.4byte	.LBB115
 5025 1430 0A000000 		.4byte	.LBE115-.LBB115
 5026 1434 4B140000 		.4byte	0x144b
 5027 1438 27       		.uleb128 0x27
 5028 1439 FE080000 		.4byte	0x8fe
 5029 143d 07050000 		.4byte	.LLST36
 5030 1441 29       		.uleb128 0x29
 5031 1442 DC000000 		.4byte	.LVL154
 5032 1446 901A0000 		.4byte	0x1a90
 5033 144a 00       		.byte	0
 5034 144b 29       		.uleb128 0x29
 5035 144c 90000000 		.4byte	.LVL150
 5036 1450 9C1A0000 		.4byte	0x1a9c
 5037 1454 29       		.uleb128 0x29
 5038 1455 C4000000 		.4byte	.LVL151
 5039 1459 A81A0000 		.4byte	0x1aa8
 5040 145d 00       		.byte	0
 5041 145e 00       		.byte	0
 5042 145f 2A       		.uleb128 0x2a
 5043 1460 0A000000 		.4byte	.LVL139
 5044 1464 BF1A0000 		.4byte	0x1abf
 5045 1468 2B       		.uleb128 0x2b
 5046 1469 01       		.uleb128 0x1
 5047 146a 50       		.byte	0x50
 5048 146b 05       		.uleb128 0x5
 5049 146c 03       		.byte	0x3
 5050 146d 64010000 		.4byte	.LC13
 5051 1471 00       		.byte	0
 5052 1472 00       		.byte	0
 5053 1473 2C       		.uleb128 0x2c
 5054 1474 830C0000 		.4byte	.LASF199
 5055 1478 01       		.byte	0x1
 5056 1479 7B02     		.2byte	0x27b
 5057 147b 00000000 		.4byte	.LFB152
 5058 147f 00010000 		.4byte	.LFE152-.LFB152
 5059 1483 01       		.uleb128 0x1
 5060 1484 9C       		.byte	0x9c
 5061 1485 5E150000 		.4byte	0x155e
 5062 1489 21       		.uleb128 0x21
 5063 148a E80E0000 		.4byte	.LASF179
 5064 148e 01       		.byte	0x1
 5065 148f 8002     		.2byte	0x280
 5066 1491 CC050000 		.4byte	0x5cc
 5067 1495 03       		.uleb128 0x3
 5068 1496 91       		.byte	0x91
ARM GAS  C:\Users\JASON\AppData\Local\Temp\cct5bgFA.s 			page 118


 5069 1497 B87F     		.sleb128 -72
 5070 1499 21       		.uleb128 0x21
 5071 149a 9F0A0000 		.4byte	.LASF178
 5072 149e 01       		.byte	0x1
 5073 149f 8502     		.2byte	0x285
 5074 14a1 64050000 		.4byte	0x564
 5075 14a5 03       		.uleb128 0x3
 5076 14a6 91       		.byte	0x91
 5077 14a7 A47F     		.sleb128 -92
 5078 14a9 21       		.uleb128 0x21
 5079 14aa C6030000 		.4byte	.LASF192
 5080 14ae 01       		.byte	0x1
 5081 14af 8802     		.2byte	0x288
 5082 14b1 08050000 		.4byte	0x508
 5083 14b5 03       		.uleb128 0x3
 5084 14b6 91       		.byte	0x91
 5085 14b7 A07F     		.sleb128 -96
 5086 14b9 22       		.uleb128 0x22
 5087 14ba 17090000 		.4byte	0x917
 5088 14be 0A000000 		.4byte	.LBB116
 5089 14c2 1A000000 		.4byte	.LBE116-.LBB116
 5090 14c6 01       		.byte	0x1
 5091 14c7 8002     		.2byte	0x280
 5092 14c9 D3140000 		.4byte	0x14d3
 5093 14cd 23       		.uleb128 0x23
 5094 14ce 28090000 		.4byte	0x928
 5095 14d2 00       		.byte	0
 5096 14d3 22       		.uleb128 0x22
 5097 14d4 B0080000 		.4byte	0x8b0
 5098 14d8 86000000 		.4byte	.LBB118
 5099 14dc 6C000000 		.4byte	.LBE118-.LBB118
 5100 14e0 01       		.byte	0x1
 5101 14e1 9402     		.2byte	0x294
 5102 14e3 4A150000 		.4byte	0x154a
 5103 14e7 24       		.uleb128 0x24
 5104 14e8 CD080000 		.4byte	0x8cd
 5105 14ec 03       		.uleb128 0x3
 5106 14ed 91       		.byte	0x91
 5107 14ee E87E     		.sleb128 -152
 5108 14f0 23       		.uleb128 0x23
 5109 14f1 C1080000 		.4byte	0x8c1
 5110 14f5 25       		.uleb128 0x25
 5111 14f6 86000000 		.4byte	.LBB119
 5112 14fa 6C000000 		.4byte	.LBE119-.LBB119
 5113 14fe 26       		.uleb128 0x26
 5114 14ff D9080000 		.4byte	0x8d9
 5115 1503 00       		.byte	0
 5116 1504 27       		.uleb128 0x27
 5117 1505 E5080000 		.4byte	0x8e5
 5118 1509 20050000 		.4byte	.LLST37
 5119 150d 27       		.uleb128 0x27
 5120 150e F1080000 		.4byte	0x8f1
 5121 1512 56050000 		.4byte	.LLST38
 5122 1516 28       		.uleb128 0x28
 5123 1517 D8000000 		.4byte	.LBB120
 5124 151b 0A000000 		.4byte	.LBE120-.LBB120
 5125 151f 36150000 		.4byte	0x1536
ARM GAS  C:\Users\JASON\AppData\Local\Temp\cct5bgFA.s 			page 119


 5126 1523 27       		.uleb128 0x27
 5127 1524 FE080000 		.4byte	0x8fe
 5128 1528 69050000 		.4byte	.LLST39
 5129 152c 29       		.uleb128 0x29
 5130 152d E2000000 		.4byte	.LVL168
 5131 1531 901A0000 		.4byte	0x1a90
 5132 1535 00       		.byte	0
 5133 1536 29       		.uleb128 0x29
 5134 1537 96000000 		.4byte	.LVL164
 5135 153b 9C1A0000 		.4byte	0x1a9c
 5136 153f 29       		.uleb128 0x29
 5137 1540 CA000000 		.4byte	.LVL165
 5138 1544 A81A0000 		.4byte	0x1aa8
 5139 1548 00       		.byte	0
 5140 1549 00       		.byte	0
 5141 154a 2A       		.uleb128 0x2a
 5142 154b 0A000000 		.4byte	.LVL160
 5143 154f BF1A0000 		.4byte	0x1abf
 5144 1553 2B       		.uleb128 0x2b
 5145 1554 01       		.uleb128 0x1
 5146 1555 50       		.byte	0x50
 5147 1556 05       		.uleb128 0x5
 5148 1557 03       		.byte	0x3
 5149 1558 80010000 		.4byte	.LC14
 5150 155c 00       		.byte	0
 5151 155d 00       		.byte	0
 5152 155e 30       		.uleb128 0x30
 5153 155f 1B0F0000 		.4byte	.LASF201
 5154 1563 01       		.byte	0x1
 5155 1564 ED       		.byte	0xed
 5156 1565 00000000 		.4byte	.LFB131
 5157 1569 58010000 		.4byte	.LFE131-.LFB131
 5158 156d 01       		.uleb128 0x1
 5159 156e 9C       		.byte	0x9c
 5160 156f 6A170000 		.4byte	0x176a
 5161 1573 31       		.uleb128 0x31
 5162 1574 657600   		.ascii	"ev\000"
 5163 1577 01       		.byte	0x1
 5164 1578 ED       		.byte	0xed
 5165 1579 21020000 		.4byte	0x221
 5166 157d 82050000 		.4byte	.LLST40
 5167 1581 32       		.uleb128 0x32
 5168 1582 E80E0000 		.4byte	.LASF179
 5169 1586 01       		.byte	0x1
 5170 1587 F1       		.byte	0xf1
 5171 1588 CC050000 		.4byte	0x5cc
 5172 158c 03       		.uleb128 0x3
 5173 158d 91       		.byte	0x91
 5174 158e B87F     		.sleb128 -72
 5175 1590 33       		.uleb128 0x33
 5176 1591 02060000 		.4byte	.LASF106
 5177 1595 01       		.byte	0x1
 5178 1596 F3       		.byte	0xf3
 5179 1597 58070000 		.4byte	0x758
 5180 159b 21       		.uleb128 0x21
 5181 159c EB020000 		.4byte	.LASF200
 5182 15a0 01       		.byte	0x1
ARM GAS  C:\Users\JASON\AppData\Local\Temp\cct5bgFA.s 			page 120


 5183 15a1 0A01     		.2byte	0x10a
 5184 15a3 6A170000 		.4byte	0x176a
 5185 15a7 05       		.uleb128 0x5
 5186 15a8 03       		.byte	0x3
 5187 15a9 04000000 		.4byte	asciiConvert.7702
 5188 15ad 34       		.uleb128 0x34
 5189 15ae 17090000 		.4byte	0x917
 5190 15b2 04000000 		.4byte	.LBB121
 5191 15b6 18000000 		.4byte	.LBE121-.LBB121
 5192 15ba 01       		.byte	0x1
 5193 15bb F1       		.byte	0xf1
 5194 15bc C6150000 		.4byte	0x15c6
 5195 15c0 23       		.uleb128 0x23
 5196 15c1 28090000 		.4byte	0x928
 5197 15c5 00       		.byte	0
 5198 15c6 28       		.uleb128 0x28
 5199 15c7 2A000000 		.4byte	.LBB123
 5200 15cb DA000000 		.4byte	.LBE123-.LBB123
 5201 15cf B0160000 		.4byte	0x16b0
 5202 15d3 32       		.uleb128 0x32
 5203 15d4 25030000 		.4byte	.LASF117
 5204 15d8 01       		.byte	0x1
 5205 15d9 FD       		.byte	0xfd
 5206 15da 83030000 		.4byte	0x383
 5207 15de 03       		.uleb128 0x3
 5208 15df 91       		.byte	0x91
 5209 15e0 C77E     		.sleb128 -185
 5210 15e2 33       		.uleb128 0x33
 5211 15e3 A1030000 		.4byte	.LASF181
 5212 15e7 01       		.byte	0x1
 5213 15e8 FF       		.byte	0xff
 5214 15e9 00020000 		.4byte	0x200
 5215 15ed 22       		.uleb128 0x22
 5216 15ee 17090000 		.4byte	0x917
 5217 15f2 46000000 		.4byte	.LBB124
 5218 15f6 1A000000 		.4byte	.LBE124-.LBB124
 5219 15fa 01       		.byte	0x1
 5220 15fb 0301     		.2byte	0x103
 5221 15fd 07160000 		.4byte	0x1607
 5222 1601 23       		.uleb128 0x23
 5223 1602 28090000 		.4byte	0x928
 5224 1606 00       		.byte	0
 5225 1607 22       		.uleb128 0x22
 5226 1608 B0080000 		.4byte	0x8b0
 5227 160c 98000000 		.4byte	.LBB126
 5228 1610 6C000000 		.4byte	.LBE126-.LBB126
 5229 1614 01       		.byte	0x1
 5230 1615 0501     		.2byte	0x105
 5231 1617 81160000 		.4byte	0x1681
 5232 161b 24       		.uleb128 0x24
 5233 161c CD080000 		.4byte	0x8cd
 5234 1620 03       		.uleb128 0x3
 5235 1621 91       		.byte	0x91
 5236 1622 C87E     		.sleb128 -184
 5237 1624 23       		.uleb128 0x23
 5238 1625 C1080000 		.4byte	0x8c1
 5239 1629 25       		.uleb128 0x25
ARM GAS  C:\Users\JASON\AppData\Local\Temp\cct5bgFA.s 			page 121


 5240 162a 98000000 		.4byte	.LBB127
 5241 162e 6C000000 		.4byte	.LBE127-.LBB127
 5242 1632 27       		.uleb128 0x27
 5243 1633 D9080000 		.4byte	0x8d9
 5244 1637 A3050000 		.4byte	.LLST41
 5245 163b 27       		.uleb128 0x27
 5246 163c E5080000 		.4byte	0x8e5
 5247 1640 B7050000 		.4byte	.LLST42
 5248 1644 27       		.uleb128 0x27
 5249 1645 F1080000 		.4byte	0x8f1
 5250 1649 ED050000 		.4byte	.LLST43
 5251 164d 28       		.uleb128 0x28
 5252 164e EA000000 		.4byte	.LBB128
 5253 1652 0A000000 		.4byte	.LBE128-.LBB128
 5254 1656 6D160000 		.4byte	0x166d
 5255 165a 27       		.uleb128 0x27
 5256 165b FE080000 		.4byte	0x8fe
 5257 165f 00060000 		.4byte	.LLST44
 5258 1663 29       		.uleb128 0x29
 5259 1664 F4000000 		.4byte	.LVL187
 5260 1668 901A0000 		.4byte	0x1a90
 5261 166c 00       		.byte	0
 5262 166d 29       		.uleb128 0x29
 5263 166e A8000000 		.4byte	.LVL183
 5264 1672 9C1A0000 		.4byte	0x1a9c
 5265 1676 29       		.uleb128 0x29
 5266 1677 DC000000 		.4byte	.LVL184
 5267 167b A81A0000 		.4byte	0x1aa8
 5268 167f 00       		.byte	0
 5269 1680 00       		.byte	0
 5270 1681 2A       		.uleb128 0x2a
 5271 1682 46000000 		.4byte	.LVL179
 5272 1686 B41A0000 		.4byte	0x1ab4
 5273 168a 2B       		.uleb128 0x2b
 5274 168b 01       		.uleb128 0x1
 5275 168c 50       		.byte	0x50
 5276 168d 05       		.uleb128 0x5
 5277 168e 03       		.byte	0x3
 5278 168f 3C000000 		.4byte	.LANCHOR1+60
 5279 1693 2B       		.uleb128 0x2b
 5280 1694 01       		.uleb128 0x1
 5281 1695 51       		.byte	0x51
 5282 1696 01       		.uleb128 0x1
 5283 1697 33       		.byte	0x33
 5284 1698 2B       		.uleb128 0x2b
 5285 1699 01       		.uleb128 0x1
 5286 169a 52       		.byte	0x52
 5287 169b 05       		.uleb128 0x5
 5288 169c 03       		.byte	0x3
 5289 169d 00000000 		.4byte	.LANCHOR1
 5290 16a1 2B       		.uleb128 0x2b
 5291 16a2 01       		.uleb128 0x1
 5292 16a3 53       		.byte	0x53
 5293 16a4 01       		.uleb128 0x1
 5294 16a5 32       		.byte	0x32
 5295 16a6 2B       		.uleb128 0x2b
 5296 16a7 02       		.uleb128 0x2
ARM GAS  C:\Users\JASON\AppData\Local\Temp\cct5bgFA.s 			page 122


 5297 16a8 7D       		.byte	0x7d
 5298 16a9 04       		.sleb128 4
 5299 16aa 03       		.uleb128 0x3
 5300 16ab 91       		.byte	0x91
 5301 16ac C77E     		.sleb128 -185
 5302 16ae 00       		.byte	0
 5303 16af 00       		.byte	0
 5304 16b0 29       		.uleb128 0x29
 5305 16b1 28000000 		.4byte	.LVL178
 5306 16b5 73140000 		.4byte	0x1473
 5307 16b9 2D       		.uleb128 0x2d
 5308 16ba 0A010000 		.4byte	.LVL192
 5309 16be BF1A0000 		.4byte	0x1abf
 5310 16c2 D0160000 		.4byte	0x16d0
 5311 16c6 2B       		.uleb128 0x2b
 5312 16c7 01       		.uleb128 0x1
 5313 16c8 50       		.byte	0x50
 5314 16c9 05       		.uleb128 0x5
 5315 16ca 03       		.byte	0x3
 5316 16cb 9C010000 		.4byte	.LC15
 5317 16cf 00       		.byte	0
 5318 16d0 2D       		.uleb128 0x2d
 5319 16d1 18010000 		.4byte	.LVL193
 5320 16d5 CA1A0000 		.4byte	0x1aca
 5321 16d9 F5160000 		.4byte	0x16f5
 5322 16dd 2B       		.uleb128 0x2b
 5323 16de 01       		.uleb128 0x1
 5324 16df 50       		.byte	0x50
 5325 16e0 08       		.uleb128 0x8
 5326 16e1 91       		.byte	0x91
 5327 16e2 54       		.sleb128 -44
 5328 16e3 94       		.byte	0x94
 5329 16e4 02       		.byte	0x2
 5330 16e5 0A       		.byte	0xa
 5331 16e6 FFFF     		.2byte	0xffff
 5332 16e8 1A       		.byte	0x1a
 5333 16e9 2B       		.uleb128 0x2b
 5334 16ea 01       		.uleb128 0x1
 5335 16eb 51       		.byte	0x51
 5336 16ec 02       		.uleb128 0x2
 5337 16ed 74       		.byte	0x74
 5338 16ee 00       		.sleb128 0
 5339 16ef 2B       		.uleb128 0x2b
 5340 16f0 01       		.uleb128 0x1
 5341 16f1 52       		.byte	0x52
 5342 16f2 01       		.uleb128 0x1
 5343 16f3 32       		.byte	0x32
 5344 16f4 00       		.byte	0
 5345 16f5 2D       		.uleb128 0x2d
 5346 16f6 1E010000 		.4byte	.LVL194
 5347 16fa BF1A0000 		.4byte	0x1abf
 5348 16fe 09170000 		.4byte	0x1709
 5349 1702 2B       		.uleb128 0x2b
 5350 1703 01       		.uleb128 0x1
 5351 1704 50       		.byte	0x50
 5352 1705 02       		.uleb128 0x2
 5353 1706 74       		.byte	0x74
ARM GAS  C:\Users\JASON\AppData\Local\Temp\cct5bgFA.s 			page 123


 5354 1707 00       		.sleb128 0
 5355 1708 00       		.byte	0
 5356 1709 2D       		.uleb128 0x2d
 5357 170a 24010000 		.4byte	.LVL195
 5358 170e D51A0000 		.4byte	0x1ad5
 5359 1712 1D170000 		.4byte	0x171d
 5360 1716 2B       		.uleb128 0x2b
 5361 1717 01       		.uleb128 0x1
 5362 1718 50       		.byte	0x50
 5363 1719 02       		.uleb128 0x2
 5364 171a 08       		.byte	0x8
 5365 171b 3A       		.byte	0x3a
 5366 171c 00       		.byte	0
 5367 171d 2D       		.uleb128 0x2d
 5368 171e 30010000 		.4byte	.LVL196
 5369 1722 CA1A0000 		.4byte	0x1aca
 5370 1726 42170000 		.4byte	0x1742
 5371 172a 2B       		.uleb128 0x2b
 5372 172b 01       		.uleb128 0x1
 5373 172c 50       		.byte	0x50
 5374 172d 08       		.uleb128 0x8
 5375 172e 91       		.byte	0x91
 5376 172f 68       		.sleb128 -24
 5377 1730 94       		.byte	0x94
 5378 1731 02       		.byte	0x2
 5379 1732 0A       		.byte	0xa
 5380 1733 FFFF     		.2byte	0xffff
 5381 1735 1A       		.byte	0x1a
 5382 1736 2B       		.uleb128 0x2b
 5383 1737 01       		.uleb128 0x1
 5384 1738 51       		.byte	0x51
 5385 1739 02       		.uleb128 0x2
 5386 173a 74       		.byte	0x74
 5387 173b 00       		.sleb128 0
 5388 173c 2B       		.uleb128 0x2b
 5389 173d 01       		.uleb128 0x1
 5390 173e 52       		.byte	0x52
 5391 173f 01       		.uleb128 0x1
 5392 1740 32       		.byte	0x32
 5393 1741 00       		.byte	0
 5394 1742 2D       		.uleb128 0x2d
 5395 1743 36010000 		.4byte	.LVL197
 5396 1747 BF1A0000 		.4byte	0x1abf
 5397 174b 56170000 		.4byte	0x1756
 5398 174f 2B       		.uleb128 0x2b
 5399 1750 01       		.uleb128 0x1
 5400 1751 50       		.byte	0x50
 5401 1752 02       		.uleb128 0x2
 5402 1753 74       		.byte	0x74
 5403 1754 00       		.sleb128 0
 5404 1755 00       		.byte	0
 5405 1756 2A       		.uleb128 0x2a
 5406 1757 3C010000 		.4byte	.LVL198
 5407 175b BF1A0000 		.4byte	0x1abf
 5408 175f 2B       		.uleb128 0x2b
 5409 1760 01       		.uleb128 0x1
 5410 1761 50       		.byte	0x50
ARM GAS  C:\Users\JASON\AppData\Local\Temp\cct5bgFA.s 			page 124


 5411 1762 05       		.uleb128 0x5
 5412 1763 03       		.byte	0x3
 5413 1764 A0010000 		.4byte	.LC16
 5414 1768 00       		.byte	0
 5415 1769 00       		.byte	0
 5416 176a 09       		.uleb128 0x9
 5417 176b D1000000 		.4byte	0xd1
 5418 176f 7A170000 		.4byte	0x177a
 5419 1773 35       		.uleb128 0x35
 5420 1774 45010000 		.4byte	0x145
 5421 1778 1D       		.byte	0x1d
 5422 1779 00       		.byte	0
 5423 177a 36       		.uleb128 0x36
 5424 177b 96050000 		.4byte	.LASF202
 5425 177f 01       		.byte	0x1
 5426 1780 2201     		.2byte	0x122
 5427 1782 00000000 		.4byte	.LFB132
 5428 1786 18010000 		.4byte	.LFE132-.LFB132
 5429 178a 01       		.uleb128 0x1
 5430 178b 9C       		.byte	0x9c
 5431 178c B7180000 		.4byte	0x18b7
 5432 1790 1F       		.uleb128 0x1f
 5433 1791 657600   		.ascii	"ev\000"
 5434 1794 01       		.byte	0x1
 5435 1795 2201     		.2byte	0x122
 5436 1797 21020000 		.4byte	0x221
 5437 179b 19060000 		.4byte	.LLST45
 5438 179f 21       		.uleb128 0x21
 5439 17a0 E80E0000 		.4byte	.LASF179
 5440 17a4 01       		.byte	0x1
 5441 17a5 2501     		.2byte	0x125
 5442 17a7 CC050000 		.4byte	0x5cc
 5443 17ab 03       		.uleb128 0x3
 5444 17ac 91       		.byte	0x91
 5445 17ad B07F     		.sleb128 -80
 5446 17af 21       		.uleb128 0x21
 5447 17b0 9F0A0000 		.4byte	.LASF178
 5448 17b4 01       		.byte	0x1
 5449 17b5 2B01     		.2byte	0x12b
 5450 17b7 64050000 		.4byte	0x564
 5451 17bb 03       		.uleb128 0x3
 5452 17bc 91       		.byte	0x91
 5453 17bd 9C7F     		.sleb128 -100
 5454 17bf 21       		.uleb128 0x21
 5455 17c0 C6030000 		.4byte	.LASF192
 5456 17c4 01       		.byte	0x1
 5457 17c5 3201     		.2byte	0x132
 5458 17c7 08050000 		.4byte	0x508
 5459 17cb 03       		.uleb128 0x3
 5460 17cc 91       		.byte	0x91
 5461 17cd 987F     		.sleb128 -104
 5462 17cf 21       		.uleb128 0x21
 5463 17d0 25030000 		.4byte	.LASF117
 5464 17d4 01       		.byte	0x1
 5465 17d5 4701     		.2byte	0x147
 5466 17d7 83030000 		.4byte	0x383
 5467 17db 03       		.uleb128 0x3
ARM GAS  C:\Users\JASON\AppData\Local\Temp\cct5bgFA.s 			page 125


 5468 17dc 91       		.byte	0x91
 5469 17dd 977F     		.sleb128 -105
 5470 17df 22       		.uleb128 0x22
 5471 17e0 B0080000 		.4byte	0x8b0
 5472 17e4 86000000 		.4byte	.LBB129
 5473 17e8 6E000000 		.4byte	.LBE129-.LBB129
 5474 17ec 01       		.byte	0x1
 5475 17ed 4D01     		.2byte	0x14d
 5476 17ef 56180000 		.4byte	0x1856
 5477 17f3 24       		.uleb128 0x24
 5478 17f4 CD080000 		.4byte	0x8cd
 5479 17f8 03       		.uleb128 0x3
 5480 17f9 91       		.byte	0x91
 5481 17fa DC7E     		.sleb128 -164
 5482 17fc 23       		.uleb128 0x23
 5483 17fd C1080000 		.4byte	0x8c1
 5484 1801 25       		.uleb128 0x25
 5485 1802 86000000 		.4byte	.LBB130
 5486 1806 6E000000 		.4byte	.LBE130-.LBB130
 5487 180a 26       		.uleb128 0x26
 5488 180b D9080000 		.4byte	0x8d9
 5489 180f 00       		.byte	0
 5490 1810 27       		.uleb128 0x27
 5491 1811 E5080000 		.4byte	0x8e5
 5492 1815 3A060000 		.4byte	.LLST46
 5493 1819 27       		.uleb128 0x27
 5494 181a F1080000 		.4byte	0x8f1
 5495 181e 70060000 		.4byte	.LLST47
 5496 1822 28       		.uleb128 0x28
 5497 1823 DA000000 		.4byte	.LBB131
 5498 1827 0A000000 		.4byte	.LBE131-.LBB131
 5499 182b 42180000 		.4byte	0x1842
 5500 182f 27       		.uleb128 0x27
 5501 1830 FE080000 		.4byte	0x8fe
 5502 1834 83060000 		.4byte	.LLST48
 5503 1838 29       		.uleb128 0x29
 5504 1839 E4000000 		.4byte	.LVL208
 5505 183d 901A0000 		.4byte	0x1a90
 5506 1841 00       		.byte	0
 5507 1842 29       		.uleb128 0x29
 5508 1843 98000000 		.4byte	.LVL204
 5509 1847 9C1A0000 		.4byte	0x1a9c
 5510 184b 29       		.uleb128 0x29
 5511 184c CC000000 		.4byte	.LVL205
 5512 1850 A81A0000 		.4byte	0x1aa8
 5513 1854 00       		.byte	0
 5514 1855 00       		.byte	0
 5515 1856 2D       		.uleb128 0x2d
 5516 1857 66000000 		.4byte	.LVL201
 5517 185b E01A0000 		.4byte	0x1ae0
 5518 185f 76180000 		.4byte	0x1876
 5519 1863 2B       		.uleb128 0x2b
 5520 1864 01       		.uleb128 0x1
 5521 1865 50       		.byte	0x50
 5522 1866 02       		.uleb128 0x2
 5523 1867 76       		.byte	0x76
 5524 1868 00       		.sleb128 0
ARM GAS  C:\Users\JASON\AppData\Local\Temp\cct5bgFA.s 			page 126


 5525 1869 2B       		.uleb128 0x2b
 5526 186a 01       		.uleb128 0x1
 5527 186b 51       		.byte	0x51
 5528 186c 01       		.uleb128 0x1
 5529 186d 32       		.byte	0x32
 5530 186e 2B       		.uleb128 0x2b
 5531 186f 01       		.uleb128 0x1
 5532 1870 52       		.byte	0x52
 5533 1871 03       		.uleb128 0x3
 5534 1872 91       		.byte	0x91
 5535 1873 977F     		.sleb128 -105
 5536 1875 00       		.byte	0
 5537 1876 2D       		.uleb128 0x2d
 5538 1877 FA000000 		.4byte	.LVL213
 5539 187b EB1A0000 		.4byte	0x1aeb
 5540 187f 8A180000 		.4byte	0x188a
 5541 1883 2B       		.uleb128 0x2b
 5542 1884 01       		.uleb128 0x1
 5543 1885 50       		.byte	0x50
 5544 1886 02       		.uleb128 0x2
 5545 1887 08       		.byte	0x8
 5546 1888 64       		.byte	0x64
 5547 1889 00       		.byte	0
 5548 188a 2D       		.uleb128 0x2d
 5549 188b 04010000 		.4byte	.LVL214
 5550 188f F61A0000 		.4byte	0x1af6
 5551 1893 A7180000 		.4byte	0x18a7
 5552 1897 2B       		.uleb128 0x2b
 5553 1898 01       		.uleb128 0x1
 5554 1899 50       		.byte	0x50
 5555 189a 02       		.uleb128 0x2
 5556 189b 09       		.byte	0x9
 5557 189c FF       		.byte	0xff
 5558 189d 2B       		.uleb128 0x2b
 5559 189e 01       		.uleb128 0x1
 5560 189f 51       		.byte	0x51
 5561 18a0 05       		.uleb128 0x5
 5562 18a1 91       		.byte	0x91
 5563 18a2 B87F     		.sleb128 -72
 5564 18a4 94       		.byte	0x94
 5565 18a5 02       		.byte	0x2
 5566 18a6 00       		.byte	0
 5567 18a7 2A       		.uleb128 0x2a
 5568 18a8 0A010000 		.4byte	.LVL215
 5569 18ac 011B0000 		.4byte	0x1b01
 5570 18b0 2B       		.uleb128 0x2b
 5571 18b1 01       		.uleb128 0x1
 5572 18b2 50       		.byte	0x50
 5573 18b3 01       		.uleb128 0x1
 5574 18b4 33       		.byte	0x33
 5575 18b5 00       		.byte	0
 5576 18b6 00       		.byte	0
 5577 18b7 09       		.uleb128 0x9
 5578 18b8 C7180000 		.4byte	0x18c7
 5579 18bc C7180000 		.4byte	0x18c7
 5580 18c0 35       		.uleb128 0x35
 5581 18c1 45010000 		.4byte	0x145
ARM GAS  C:\Users\JASON\AppData\Local\Temp\cct5bgFA.s 			page 127


 5582 18c5 01       		.byte	0x1
 5583 18c6 00       		.byte	0
 5584 18c7 13       		.uleb128 0x13
 5585 18c8 06040000 		.4byte	0x406
 5586 18cc 32       		.uleb128 0x32
 5587 18cd 84000000 		.4byte	.LASF203
 5588 18d1 01       		.byte	0x1
 5589 18d2 83       		.byte	0x83
 5590 18d3 DD180000 		.4byte	0x18dd
 5591 18d7 05       		.uleb128 0x5
 5592 18d8 03       		.byte	0x3
 5593 18d9 14010000 		.4byte	STATE_CLOCK_C_ISDISPLAYING_Transitions
 5594 18dd 13       		.uleb128 0x13
 5595 18de B7180000 		.4byte	0x18b7
 5596 18e2 09       		.uleb128 0x9
 5597 18e3 C7180000 		.4byte	0x18c7
 5598 18e7 F2180000 		.4byte	0x18f2
 5599 18eb 35       		.uleb128 0x35
 5600 18ec 45010000 		.4byte	0x145
 5601 18f0 03       		.byte	0x3
 5602 18f1 00       		.byte	0
 5603 18f2 32       		.uleb128 0x32
 5604 18f3 3E090000 		.4byte	.LASF204
 5605 18f7 01       		.byte	0x1
 5606 18f8 8B       		.byte	0x8b
 5607 18f9 03190000 		.4byte	0x1903
 5608 18fd 05       		.uleb128 0x5
 5609 18fe 03       		.byte	0x3
 5610 18ff E4000000 		.4byte	STATE_CLOCK_C_ISEDITINGHOURS_Transitions
 5611 1903 13       		.uleb128 0x13
 5612 1904 E2180000 		.4byte	0x18e2
 5613 1908 32       		.uleb128 0x32
 5614 1909 45030000 		.4byte	.LASF205
 5615 190d 01       		.byte	0x1
 5616 190e 95       		.byte	0x95
 5617 190f 19190000 		.4byte	0x1919
 5618 1913 05       		.uleb128 0x5
 5619 1914 03       		.byte	0x3
 5620 1915 B4000000 		.4byte	STATE_CLOCK_C_ISEDITINGMINUTES_Transitions
 5621 1919 13       		.uleb128 0x13
 5622 191a E2180000 		.4byte	0x18e2
 5623 191e 09       		.uleb128 0x9
 5624 191f 2E190000 		.4byte	0x192e
 5625 1923 2E190000 		.4byte	0x192e
 5626 1927 35       		.uleb128 0x35
 5627 1928 45010000 		.4byte	0x145
 5628 192c 02       		.byte	0x2
 5629 192d 00       		.byte	0
 5630 192e 13       		.uleb128 0x13
 5631 192f 64040000 		.4byte	0x464
 5632 1933 32       		.uleb128 0x32
 5633 1934 05010000 		.4byte	.LASF206
 5634 1938 01       		.byte	0x1
 5635 1939 9F       		.byte	0x9f
 5636 193a 44190000 		.4byte	0x1944
 5637 193e 05       		.uleb128 0x5
 5638 193f 03       		.byte	0x3
ARM GAS  C:\Users\JASON\AppData\Local\Temp\cct5bgFA.s 			page 128


 5639 1940 3C000000 		.4byte	CLOCK_Container_Transitions
 5640 1944 13       		.uleb128 0x13
 5641 1945 1E190000 		.4byte	0x191e
 5642 1949 37       		.uleb128 0x37
 5643 194a DF010000 		.4byte	.LASF207
 5644 194e 01       		.byte	0x1
 5645 194f A8       		.byte	0xa8
 5646 1950 5F040000 		.4byte	0x45f
 5647 1954 03       		.byte	0x3
 5648 1955 09       		.uleb128 0x9
 5649 1956 C7180000 		.4byte	0x18c7
 5650 195a 65190000 		.4byte	0x1965
 5651 195e 35       		.uleb128 0x35
 5652 195f 45010000 		.4byte	0x145
 5653 1963 00       		.byte	0
 5654 1964 00       		.byte	0
 5655 1965 32       		.uleb128 0x32
 5656 1966 C4020000 		.4byte	.LASF208
 5657 196a 01       		.byte	0x1
 5658 196b AC       		.byte	0xac
 5659 196c 76190000 		.4byte	0x1976
 5660 1970 05       		.uleb128 0x5
 5661 1971 03       		.byte	0x3
 5662 1972 A8000000 		.4byte	STATE_CLOCK_W_ISDISPLAYING_Transitions
 5663 1976 13       		.uleb128 0x13
 5664 1977 55190000 		.4byte	0x1955
 5665 197b 09       		.uleb128 0x9
 5666 197c C7180000 		.4byte	0x18c7
 5667 1980 8B190000 		.4byte	0x198b
 5668 1984 35       		.uleb128 0x35
 5669 1985 45010000 		.4byte	0x145
 5670 1989 02       		.byte	0x2
 5671 198a 00       		.byte	0
 5672 198b 32       		.uleb128 0x32
 5673 198c 710A0000 		.4byte	.LASF209
 5674 1990 01       		.byte	0x1
 5675 1991 B3       		.byte	0xb3
 5676 1992 9C190000 		.4byte	0x199c
 5677 1996 05       		.uleb128 0x5
 5678 1997 03       		.byte	0x3
 5679 1998 84000000 		.4byte	STATE_CLOCK_W_ISEDITING_Transitions
 5680 199c 13       		.uleb128 0x13
 5681 199d 7B190000 		.4byte	0x197b
 5682 19a1 32       		.uleb128 0x32
 5683 19a2 BE090000 		.4byte	.LASF210
 5684 19a6 01       		.byte	0x1
 5685 19a7 BC       		.byte	0xbc
 5686 19a8 B2190000 		.4byte	0x19b2
 5687 19ac 05       		.uleb128 0x5
 5688 19ad 03       		.byte	0x3
 5689 19ae 60000000 		.4byte	STATE_CLOCK_W_ISAUTOINCREMENT_Transitions
 5690 19b2 13       		.uleb128 0x13
 5691 19b3 7B190000 		.4byte	0x197b
 5692 19b7 32       		.uleb128 0x32
 5693 19b8 43060000 		.4byte	.LASF211
 5694 19bc 01       		.byte	0x1
 5695 19bd CA       		.byte	0xca
ARM GAS  C:\Users\JASON\AppData\Local\Temp\cct5bgFA.s 			page 129


 5696 19be C8190000 		.4byte	0x19c8
 5697 19c2 05       		.uleb128 0x5
 5698 19c3 03       		.byte	0x3
 5699 19c4 18000000 		.4byte	CLOCK_Widget_Transitions
 5700 19c8 13       		.uleb128 0x13
 5701 19c9 1E190000 		.4byte	0x191e
 5702 19cd 37       		.uleb128 0x37
 5703 19ce 50010000 		.4byte	.LASF212
 5704 19d2 01       		.byte	0x1
 5705 19d3 D3       		.byte	0xd3
 5706 19d4 5F040000 		.4byte	0x45f
 5707 19d8 03       		.byte	0x3
 5708 19d9 09       		.uleb128 0x9
 5709 19da E9190000 		.4byte	0x19e9
 5710 19de E9190000 		.4byte	0x19e9
 5711 19e2 35       		.uleb128 0x35
 5712 19e3 45010000 		.4byte	0x145
 5713 19e7 01       		.byte	0x1
 5714 19e8 00       		.byte	0
 5715 19e9 13       		.uleb128 0x13
 5716 19ea B2040000 		.4byte	0x4b2
 5717 19ee 32       		.uleb128 0x32
 5718 19ef 3C0A0000 		.4byte	.LASF213
 5719 19f3 01       		.byte	0x1
 5720 19f4 D7       		.byte	0xd7
 5721 19f5 FF190000 		.4byte	0x19ff
 5722 19f9 05       		.uleb128 0x5
 5723 19fa 03       		.byte	0x3
 5724 19fb 00000000 		.4byte	CLOCK_StateActions
 5725 19ff 13       		.uleb128 0x13
 5726 1a00 D9190000 		.4byte	0x19d9
 5727 1a04 37       		.uleb128 0x37
 5728 1a05 8A0F0000 		.4byte	.LASF214
 5729 1a09 01       		.byte	0x1
 5730 1a0a DC       		.byte	0xdc
 5731 1a0b 5F040000 		.4byte	0x45f
 5732 1a0f 02       		.byte	0x2
 5733 1a10 38       		.uleb128 0x38
 5734 1a11 16060000 		.4byte	.LASF215
 5735 1a15 12       		.byte	0x12
 5736 1a16 40       		.byte	0x40
 5737 1a17 00010000 		.4byte	0x100
 5738 1a1b 38       		.uleb128 0x38
 5739 1a1c 3E080000 		.4byte	.LASF216
 5740 1a20 12       		.byte	0x12
 5741 1a21 47       		.byte	0x47
 5742 1a22 0B010000 		.4byte	0x10b
 5743 1a26 38       		.uleb128 0x38
 5744 1a27 9C080000 		.4byte	.LASF217
 5745 1a2b 12       		.byte	0x12
 5746 1a2c 4A       		.byte	0x4a
 5747 1a2d 00010000 		.4byte	0x100
 5748 1a31 38       		.uleb128 0x38
 5749 1a32 36040000 		.4byte	.LASF218
 5750 1a36 13       		.byte	0x13
 5751 1a37 48       		.byte	0x48
 5752 1a38 16010000 		.4byte	0x116
ARM GAS  C:\Users\JASON\AppData\Local\Temp\cct5bgFA.s 			page 130


 5753 1a3c 38       		.uleb128 0x38
 5754 1a3d FE0D0000 		.4byte	.LASF219
 5755 1a41 14       		.byte	0x14
 5756 1a42 44       		.byte	0x44
 5757 1a43 00010000 		.4byte	0x100
 5758 1a47 39       		.uleb128 0x39
 5759 1a48 CC010000 		.4byte	.LASF220
 5760 1a4c 15       		.byte	0x15
 5761 1a4d 1207     		.2byte	0x712
 5762 1a4f 531A0000 		.4byte	0x1a53
 5763 1a53 3A       		.uleb128 0x3a
 5764 1a54 AD000000 		.4byte	0xad
 5765 1a58 3B       		.uleb128 0x3b
 5766 1a59 560D0000 		.4byte	.LASF221
 5767 1a5d 01       		.byte	0x1
 5768 1a5e 1F       		.byte	0x1f
 5769 1a5f 4C010000 		.4byte	0x14c
 5770 1a63 05       		.uleb128 0x5
 5771 1a64 03       		.byte	0x3
 5772 1a65 00000000 		.4byte	increment1Min_st
 5773 1a69 3B       		.uleb128 0x3b
 5774 1a6a 57080000 		.4byte	.LASF222
 5775 1a6e 01       		.byte	0x1
 5776 1a6f 21       		.byte	0x21
 5777 1a70 4C010000 		.4byte	0x14c
 5778 1a74 05       		.uleb128 0x5
 5779 1a75 03       		.byte	0x3
 5780 1a76 00000000 		.4byte	autoIncrement_st
 5781 1a7a 38       		.uleb128 0x38
 5782 1a7b 87040000 		.4byte	.LASF223
 5783 1a7f 16       		.byte	0x16
 5784 1a80 26       		.byte	0x26
 5785 1a81 38070000 		.4byte	0x738
 5786 1a85 38       		.uleb128 0x38
 5787 1a86 1D0E0000 		.4byte	.LASF224
 5788 1a8a 16       		.byte	0x16
 5789 1a8b 35       		.byte	0x35
 5790 1a8c A5080000 		.4byte	0x8a5
 5791 1a90 3C       		.uleb128 0x3c
 5792 1a91 2F010000 		.4byte	.LASF225
 5793 1a95 2F010000 		.4byte	.LASF225
 5794 1a99 17       		.byte	0x17
 5795 1a9a 4A01     		.2byte	0x14a
 5796 1a9c 3C       		.uleb128 0x3c
 5797 1a9d DD0D0000 		.4byte	.LASF226
 5798 1aa1 DD0D0000 		.4byte	.LASF226
 5799 1aa5 17       		.byte	0x17
 5800 1aa6 1901     		.2byte	0x119
 5801 1aa8 3C       		.uleb128 0x3c
 5802 1aa9 28080000 		.4byte	.LASF227
 5803 1aad 28080000 		.4byte	.LASF227
 5804 1ab1 17       		.byte	0x17
 5805 1ab2 1E01     		.2byte	0x11e
 5806 1ab4 3D       		.uleb128 0x3d
 5807 1ab5 DE040000 		.4byte	.LASF228
 5808 1ab9 DE040000 		.4byte	.LASF228
 5809 1abd 0F       		.byte	0xf
ARM GAS  C:\Users\JASON\AppData\Local\Temp\cct5bgFA.s 			page 131


 5810 1abe 5D       		.byte	0x5d
 5811 1abf 3D       		.uleb128 0x3d
 5812 1ac0 CA0D0000 		.4byte	.LASF229
 5813 1ac4 CA0D0000 		.4byte	.LASF229
 5814 1ac8 18       		.byte	0x18
 5815 1ac9 8B       		.byte	0x8b
 5816 1aca 3D       		.uleb128 0x3d
 5817 1acb 9E0C0000 		.4byte	.LASF230
 5818 1acf 9E0C0000 		.4byte	.LASF230
 5819 1ad3 19       		.byte	0x19
 5820 1ad4 19       		.byte	0x19
 5821 1ad5 3D       		.uleb128 0x3d
 5822 1ad6 1B0C0000 		.4byte	.LASF231
 5823 1ada 1B0C0000 		.4byte	.LASF231
 5824 1ade 18       		.byte	0x18
 5825 1adf 8A       		.byte	0x8a
 5826 1ae0 3D       		.uleb128 0x3d
 5827 1ae1 DF0B0000 		.4byte	.LASF232
 5828 1ae5 DF0B0000 		.4byte	.LASF232
 5829 1ae9 0F       		.byte	0xf
 5830 1aea 4E       		.byte	0x4e
 5831 1aeb 3D       		.uleb128 0x3d
 5832 1aec 81020000 		.4byte	.LASF233
 5833 1af0 81020000 		.4byte	.LASF233
 5834 1af4 0D       		.byte	0xd
 5835 1af5 85       		.byte	0x85
 5836 1af6 3D       		.uleb128 0x3d
 5837 1af7 4B020000 		.4byte	.LASF234
 5838 1afb 4B020000 		.4byte	.LASF234
 5839 1aff 0D       		.byte	0xd
 5840 1b00 B9       		.byte	0xb9
 5841 1b01 3C       		.uleb128 0x3c
 5842 1b02 F6090000 		.4byte	.LASF235
 5843 1b06 F6090000 		.4byte	.LASF235
 5844 1b0a 0D       		.byte	0xd
 5845 1b0b 8A01     		.2byte	0x18a
 5846 1b0d 00       		.byte	0
 5847              		.section	.debug_abbrev,"",%progbits
 5848              	.Ldebug_abbrev0:
 5849 0000 01       		.uleb128 0x1
 5850 0001 11       		.uleb128 0x11
 5851 0002 01       		.byte	0x1
 5852 0003 25       		.uleb128 0x25
 5853 0004 0E       		.uleb128 0xe
 5854 0005 13       		.uleb128 0x13
 5855 0006 0B       		.uleb128 0xb
 5856 0007 03       		.uleb128 0x3
 5857 0008 0E       		.uleb128 0xe
 5858 0009 1B       		.uleb128 0x1b
 5859 000a 0E       		.uleb128 0xe
 5860 000b 55       		.uleb128 0x55
 5861 000c 17       		.uleb128 0x17
 5862 000d 11       		.uleb128 0x11
 5863 000e 01       		.uleb128 0x1
 5864 000f 10       		.uleb128 0x10
 5865 0010 17       		.uleb128 0x17
 5866 0011 00       		.byte	0
ARM GAS  C:\Users\JASON\AppData\Local\Temp\cct5bgFA.s 			page 132


 5867 0012 00       		.byte	0
 5868 0013 02       		.uleb128 0x2
 5869 0014 24       		.uleb128 0x24
 5870 0015 00       		.byte	0
 5871 0016 0B       		.uleb128 0xb
 5872 0017 0B       		.uleb128 0xb
 5873 0018 3E       		.uleb128 0x3e
 5874 0019 0B       		.uleb128 0xb
 5875 001a 03       		.uleb128 0x3
 5876 001b 0E       		.uleb128 0xe
 5877 001c 00       		.byte	0
 5878 001d 00       		.byte	0
 5879 001e 03       		.uleb128 0x3
 5880 001f 16       		.uleb128 0x16
 5881 0020 00       		.byte	0
 5882 0021 03       		.uleb128 0x3
 5883 0022 0E       		.uleb128 0xe
 5884 0023 3A       		.uleb128 0x3a
 5885 0024 0B       		.uleb128 0xb
 5886 0025 3B       		.uleb128 0x3b
 5887 0026 0B       		.uleb128 0xb
 5888 0027 49       		.uleb128 0x49
 5889 0028 13       		.uleb128 0x13
 5890 0029 00       		.byte	0
 5891 002a 00       		.byte	0
 5892 002b 04       		.uleb128 0x4
 5893 002c 24       		.uleb128 0x24
 5894 002d 00       		.byte	0
 5895 002e 0B       		.uleb128 0xb
 5896 002f 0B       		.uleb128 0xb
 5897 0030 3E       		.uleb128 0x3e
 5898 0031 0B       		.uleb128 0xb
 5899 0032 03       		.uleb128 0x3
 5900 0033 08       		.uleb128 0x8
 5901 0034 00       		.byte	0
 5902 0035 00       		.byte	0
 5903 0036 05       		.uleb128 0x5
 5904 0037 16       		.uleb128 0x16
 5905 0038 00       		.byte	0
 5906 0039 03       		.uleb128 0x3
 5907 003a 0E       		.uleb128 0xe
 5908 003b 3A       		.uleb128 0x3a
 5909 003c 0B       		.uleb128 0xb
 5910 003d 3B       		.uleb128 0x3b
 5911 003e 05       		.uleb128 0x5
 5912 003f 49       		.uleb128 0x49
 5913 0040 13       		.uleb128 0x13
 5914 0041 00       		.byte	0
 5915 0042 00       		.byte	0
 5916 0043 06       		.uleb128 0x6
 5917 0044 04       		.uleb128 0x4
 5918 0045 01       		.byte	0x1
 5919 0046 0B       		.uleb128 0xb
 5920 0047 0B       		.uleb128 0xb
 5921 0048 49       		.uleb128 0x49
 5922 0049 13       		.uleb128 0x13
 5923 004a 3A       		.uleb128 0x3a
ARM GAS  C:\Users\JASON\AppData\Local\Temp\cct5bgFA.s 			page 133


 5924 004b 0B       		.uleb128 0xb
 5925 004c 3B       		.uleb128 0x3b
 5926 004d 0B       		.uleb128 0xb
 5927 004e 01       		.uleb128 0x1
 5928 004f 13       		.uleb128 0x13
 5929 0050 00       		.byte	0
 5930 0051 00       		.byte	0
 5931 0052 07       		.uleb128 0x7
 5932 0053 28       		.uleb128 0x28
 5933 0054 00       		.byte	0
 5934 0055 03       		.uleb128 0x3
 5935 0056 0E       		.uleb128 0xe
 5936 0057 1C       		.uleb128 0x1c
 5937 0058 0B       		.uleb128 0xb
 5938 0059 00       		.byte	0
 5939 005a 00       		.byte	0
 5940 005b 08       		.uleb128 0x8
 5941 005c 28       		.uleb128 0x28
 5942 005d 00       		.byte	0
 5943 005e 03       		.uleb128 0x3
 5944 005f 0E       		.uleb128 0xe
 5945 0060 1C       		.uleb128 0x1c
 5946 0061 0D       		.uleb128 0xd
 5947 0062 00       		.byte	0
 5948 0063 00       		.byte	0
 5949 0064 09       		.uleb128 0x9
 5950 0065 01       		.uleb128 0x1
 5951 0066 01       		.byte	0x1
 5952 0067 49       		.uleb128 0x49
 5953 0068 13       		.uleb128 0x13
 5954 0069 01       		.uleb128 0x1
 5955 006a 13       		.uleb128 0x13
 5956 006b 00       		.byte	0
 5957 006c 00       		.byte	0
 5958 006d 0A       		.uleb128 0xa
 5959 006e 21       		.uleb128 0x21
 5960 006f 00       		.byte	0
 5961 0070 00       		.byte	0
 5962 0071 00       		.byte	0
 5963 0072 0B       		.uleb128 0xb
 5964 0073 28       		.uleb128 0x28
 5965 0074 00       		.byte	0
 5966 0075 03       		.uleb128 0x3
 5967 0076 0E       		.uleb128 0xe
 5968 0077 1C       		.uleb128 0x1c
 5969 0078 05       		.uleb128 0x5
 5970 0079 00       		.byte	0
 5971 007a 00       		.byte	0
 5972 007b 0C       		.uleb128 0xc
 5973 007c 28       		.uleb128 0x28
 5974 007d 00       		.byte	0
 5975 007e 03       		.uleb128 0x3
 5976 007f 08       		.uleb128 0x8
 5977 0080 1C       		.uleb128 0x1c
 5978 0081 0B       		.uleb128 0xb
 5979 0082 00       		.byte	0
 5980 0083 00       		.byte	0
ARM GAS  C:\Users\JASON\AppData\Local\Temp\cct5bgFA.s 			page 134


 5981 0084 0D       		.uleb128 0xd
 5982 0085 0F       		.uleb128 0xf
 5983 0086 00       		.byte	0
 5984 0087 0B       		.uleb128 0xb
 5985 0088 0B       		.uleb128 0xb
 5986 0089 49       		.uleb128 0x49
 5987 008a 13       		.uleb128 0x13
 5988 008b 00       		.byte	0
 5989 008c 00       		.byte	0
 5990 008d 0E       		.uleb128 0xe
 5991 008e 15       		.uleb128 0x15
 5992 008f 01       		.byte	0x1
 5993 0090 01       		.uleb128 0x1
 5994 0091 13       		.uleb128 0x13
 5995 0092 00       		.byte	0
 5996 0093 00       		.byte	0
 5997 0094 0F       		.uleb128 0xf
 5998 0095 18       		.uleb128 0x18
 5999 0096 00       		.byte	0
 6000 0097 00       		.byte	0
 6001 0098 00       		.byte	0
 6002 0099 10       		.uleb128 0x10
 6003 009a 15       		.uleb128 0x15
 6004 009b 01       		.byte	0x1
 6005 009c 49       		.uleb128 0x49
 6006 009d 13       		.uleb128 0x13
 6007 009e 01       		.uleb128 0x1
 6008 009f 13       		.uleb128 0x13
 6009 00a0 00       		.byte	0
 6010 00a1 00       		.byte	0
 6011 00a2 11       		.uleb128 0x11
 6012 00a3 13       		.uleb128 0x13
 6013 00a4 01       		.byte	0x1
 6014 00a5 0B       		.uleb128 0xb
 6015 00a6 0B       		.uleb128 0xb
 6016 00a7 3A       		.uleb128 0x3a
 6017 00a8 0B       		.uleb128 0xb
 6018 00a9 3B       		.uleb128 0x3b
 6019 00aa 0B       		.uleb128 0xb
 6020 00ab 01       		.uleb128 0x1
 6021 00ac 13       		.uleb128 0x13
 6022 00ad 00       		.byte	0
 6023 00ae 00       		.byte	0
 6024 00af 12       		.uleb128 0x12
 6025 00b0 0D       		.uleb128 0xd
 6026 00b1 00       		.byte	0
 6027 00b2 03       		.uleb128 0x3
 6028 00b3 0E       		.uleb128 0xe
 6029 00b4 3A       		.uleb128 0x3a
 6030 00b5 0B       		.uleb128 0xb
 6031 00b6 3B       		.uleb128 0x3b
 6032 00b7 0B       		.uleb128 0xb
 6033 00b8 49       		.uleb128 0x49
 6034 00b9 13       		.uleb128 0x13
 6035 00ba 38       		.uleb128 0x38
 6036 00bb 0B       		.uleb128 0xb
 6037 00bc 00       		.byte	0
ARM GAS  C:\Users\JASON\AppData\Local\Temp\cct5bgFA.s 			page 135


 6038 00bd 00       		.byte	0
 6039 00be 13       		.uleb128 0x13
 6040 00bf 26       		.uleb128 0x26
 6041 00c0 00       		.byte	0
 6042 00c1 49       		.uleb128 0x49
 6043 00c2 13       		.uleb128 0x13
 6044 00c3 00       		.byte	0
 6045 00c4 00       		.byte	0
 6046 00c5 14       		.uleb128 0x14
 6047 00c6 15       		.uleb128 0x15
 6048 00c7 01       		.byte	0x1
 6049 00c8 27       		.uleb128 0x27
 6050 00c9 19       		.uleb128 0x19
 6051 00ca 49       		.uleb128 0x49
 6052 00cb 13       		.uleb128 0x13
 6053 00cc 01       		.uleb128 0x1
 6054 00cd 13       		.uleb128 0x13
 6055 00ce 00       		.byte	0
 6056 00cf 00       		.byte	0
 6057 00d0 15       		.uleb128 0x15
 6058 00d1 05       		.uleb128 0x5
 6059 00d2 00       		.byte	0
 6060 00d3 49       		.uleb128 0x49
 6061 00d4 13       		.uleb128 0x13
 6062 00d5 00       		.byte	0
 6063 00d6 00       		.byte	0
 6064 00d7 16       		.uleb128 0x16
 6065 00d8 13       		.uleb128 0x13
 6066 00d9 01       		.byte	0x1
 6067 00da 03       		.uleb128 0x3
 6068 00db 0E       		.uleb128 0xe
 6069 00dc 0B       		.uleb128 0xb
 6070 00dd 0B       		.uleb128 0xb
 6071 00de 3A       		.uleb128 0x3a
 6072 00df 0B       		.uleb128 0xb
 6073 00e0 3B       		.uleb128 0x3b
 6074 00e1 0B       		.uleb128 0xb
 6075 00e2 01       		.uleb128 0x1
 6076 00e3 13       		.uleb128 0x13
 6077 00e4 00       		.byte	0
 6078 00e5 00       		.byte	0
 6079 00e6 17       		.uleb128 0x17
 6080 00e7 0D       		.uleb128 0xd
 6081 00e8 00       		.byte	0
 6082 00e9 03       		.uleb128 0x3
 6083 00ea 08       		.uleb128 0x8
 6084 00eb 3A       		.uleb128 0x3a
 6085 00ec 0B       		.uleb128 0xb
 6086 00ed 3B       		.uleb128 0x3b
 6087 00ee 0B       		.uleb128 0xb
 6088 00ef 49       		.uleb128 0x49
 6089 00f0 13       		.uleb128 0x13
 6090 00f1 38       		.uleb128 0x38
 6091 00f2 0B       		.uleb128 0xb
 6092 00f3 00       		.byte	0
 6093 00f4 00       		.byte	0
 6094 00f5 18       		.uleb128 0x18
ARM GAS  C:\Users\JASON\AppData\Local\Temp\cct5bgFA.s 			page 136


 6095 00f6 2E       		.uleb128 0x2e
 6096 00f7 01       		.byte	0x1
 6097 00f8 3F       		.uleb128 0x3f
 6098 00f9 19       		.uleb128 0x19
 6099 00fa 03       		.uleb128 0x3
 6100 00fb 0E       		.uleb128 0xe
 6101 00fc 3A       		.uleb128 0x3a
 6102 00fd 0B       		.uleb128 0xb
 6103 00fe 3B       		.uleb128 0x3b
 6104 00ff 05       		.uleb128 0x5
 6105 0100 27       		.uleb128 0x27
 6106 0101 19       		.uleb128 0x19
 6107 0102 49       		.uleb128 0x49
 6108 0103 13       		.uleb128 0x13
 6109 0104 20       		.uleb128 0x20
 6110 0105 0B       		.uleb128 0xb
 6111 0106 01       		.uleb128 0x1
 6112 0107 13       		.uleb128 0x13
 6113 0108 00       		.byte	0
 6114 0109 00       		.byte	0
 6115 010a 19       		.uleb128 0x19
 6116 010b 05       		.uleb128 0x5
 6117 010c 00       		.byte	0
 6118 010d 03       		.uleb128 0x3
 6119 010e 0E       		.uleb128 0xe
 6120 010f 3A       		.uleb128 0x3a
 6121 0110 0B       		.uleb128 0xb
 6122 0111 3B       		.uleb128 0x3b
 6123 0112 05       		.uleb128 0x5
 6124 0113 49       		.uleb128 0x49
 6125 0114 13       		.uleb128 0x13
 6126 0115 00       		.byte	0
 6127 0116 00       		.byte	0
 6128 0117 1A       		.uleb128 0x1a
 6129 0118 34       		.uleb128 0x34
 6130 0119 00       		.byte	0
 6131 011a 03       		.uleb128 0x3
 6132 011b 08       		.uleb128 0x8
 6133 011c 3A       		.uleb128 0x3a
 6134 011d 0B       		.uleb128 0xb
 6135 011e 3B       		.uleb128 0x3b
 6136 011f 05       		.uleb128 0x5
 6137 0120 49       		.uleb128 0x49
 6138 0121 13       		.uleb128 0x13
 6139 0122 00       		.byte	0
 6140 0123 00       		.byte	0
 6141 0124 1B       		.uleb128 0x1b
 6142 0125 34       		.uleb128 0x34
 6143 0126 00       		.byte	0
 6144 0127 03       		.uleb128 0x3
 6145 0128 0E       		.uleb128 0xe
 6146 0129 3A       		.uleb128 0x3a
 6147 012a 0B       		.uleb128 0xb
 6148 012b 3B       		.uleb128 0x3b
 6149 012c 05       		.uleb128 0x5
 6150 012d 49       		.uleb128 0x49
 6151 012e 13       		.uleb128 0x13
ARM GAS  C:\Users\JASON\AppData\Local\Temp\cct5bgFA.s 			page 137


 6152 012f 00       		.byte	0
 6153 0130 00       		.byte	0
 6154 0131 1C       		.uleb128 0x1c
 6155 0132 0B       		.uleb128 0xb
 6156 0133 01       		.byte	0x1
 6157 0134 00       		.byte	0
 6158 0135 00       		.byte	0
 6159 0136 1D       		.uleb128 0x1d
 6160 0137 2E       		.uleb128 0x2e
 6161 0138 00       		.byte	0
 6162 0139 03       		.uleb128 0x3
 6163 013a 0E       		.uleb128 0xe
 6164 013b 3A       		.uleb128 0x3a
 6165 013c 0B       		.uleb128 0xb
 6166 013d 3B       		.uleb128 0x3b
 6167 013e 05       		.uleb128 0x5
 6168 013f 11       		.uleb128 0x11
 6169 0140 01       		.uleb128 0x1
 6170 0141 12       		.uleb128 0x12
 6171 0142 06       		.uleb128 0x6
 6172 0143 40       		.uleb128 0x40
 6173 0144 18       		.uleb128 0x18
 6174 0145 9742     		.uleb128 0x2117
 6175 0147 19       		.uleb128 0x19
 6176 0148 00       		.byte	0
 6177 0149 00       		.byte	0
 6178 014a 1E       		.uleb128 0x1e
 6179 014b 2E       		.uleb128 0x2e
 6180 014c 01       		.byte	0x1
 6181 014d 03       		.uleb128 0x3
 6182 014e 0E       		.uleb128 0xe
 6183 014f 3A       		.uleb128 0x3a
 6184 0150 0B       		.uleb128 0xb
 6185 0151 3B       		.uleb128 0x3b
 6186 0152 05       		.uleb128 0x5
 6187 0153 27       		.uleb128 0x27
 6188 0154 19       		.uleb128 0x19
 6189 0155 11       		.uleb128 0x11
 6190 0156 01       		.uleb128 0x1
 6191 0157 12       		.uleb128 0x12
 6192 0158 06       		.uleb128 0x6
 6193 0159 40       		.uleb128 0x40
 6194 015a 18       		.uleb128 0x18
 6195 015b 9742     		.uleb128 0x2117
 6196 015d 19       		.uleb128 0x19
 6197 015e 01       		.uleb128 0x1
 6198 015f 13       		.uleb128 0x13
 6199 0160 00       		.byte	0
 6200 0161 00       		.byte	0
 6201 0162 1F       		.uleb128 0x1f
 6202 0163 05       		.uleb128 0x5
 6203 0164 00       		.byte	0
 6204 0165 03       		.uleb128 0x3
 6205 0166 08       		.uleb128 0x8
 6206 0167 3A       		.uleb128 0x3a
 6207 0168 0B       		.uleb128 0xb
 6208 0169 3B       		.uleb128 0x3b
ARM GAS  C:\Users\JASON\AppData\Local\Temp\cct5bgFA.s 			page 138


 6209 016a 05       		.uleb128 0x5
 6210 016b 49       		.uleb128 0x49
 6211 016c 13       		.uleb128 0x13
 6212 016d 02       		.uleb128 0x2
 6213 016e 17       		.uleb128 0x17
 6214 016f 00       		.byte	0
 6215 0170 00       		.byte	0
 6216 0171 20       		.uleb128 0x20
 6217 0172 05       		.uleb128 0x5
 6218 0173 00       		.byte	0
 6219 0174 03       		.uleb128 0x3
 6220 0175 0E       		.uleb128 0xe
 6221 0176 3A       		.uleb128 0x3a
 6222 0177 0B       		.uleb128 0xb
 6223 0178 3B       		.uleb128 0x3b
 6224 0179 05       		.uleb128 0x5
 6225 017a 49       		.uleb128 0x49
 6226 017b 13       		.uleb128 0x13
 6227 017c 02       		.uleb128 0x2
 6228 017d 17       		.uleb128 0x17
 6229 017e 00       		.byte	0
 6230 017f 00       		.byte	0
 6231 0180 21       		.uleb128 0x21
 6232 0181 34       		.uleb128 0x34
 6233 0182 00       		.byte	0
 6234 0183 03       		.uleb128 0x3
 6235 0184 0E       		.uleb128 0xe
 6236 0185 3A       		.uleb128 0x3a
 6237 0186 0B       		.uleb128 0xb
 6238 0187 3B       		.uleb128 0x3b
 6239 0188 05       		.uleb128 0x5
 6240 0189 49       		.uleb128 0x49
 6241 018a 13       		.uleb128 0x13
 6242 018b 02       		.uleb128 0x2
 6243 018c 18       		.uleb128 0x18
 6244 018d 00       		.byte	0
 6245 018e 00       		.byte	0
 6246 018f 22       		.uleb128 0x22
 6247 0190 1D       		.uleb128 0x1d
 6248 0191 01       		.byte	0x1
 6249 0192 31       		.uleb128 0x31
 6250 0193 13       		.uleb128 0x13
 6251 0194 11       		.uleb128 0x11
 6252 0195 01       		.uleb128 0x1
 6253 0196 12       		.uleb128 0x12
 6254 0197 06       		.uleb128 0x6
 6255 0198 58       		.uleb128 0x58
 6256 0199 0B       		.uleb128 0xb
 6257 019a 59       		.uleb128 0x59
 6258 019b 05       		.uleb128 0x5
 6259 019c 01       		.uleb128 0x1
 6260 019d 13       		.uleb128 0x13
 6261 019e 00       		.byte	0
 6262 019f 00       		.byte	0
 6263 01a0 23       		.uleb128 0x23
 6264 01a1 05       		.uleb128 0x5
 6265 01a2 00       		.byte	0
ARM GAS  C:\Users\JASON\AppData\Local\Temp\cct5bgFA.s 			page 139


 6266 01a3 31       		.uleb128 0x31
 6267 01a4 13       		.uleb128 0x13
 6268 01a5 00       		.byte	0
 6269 01a6 00       		.byte	0
 6270 01a7 24       		.uleb128 0x24
 6271 01a8 05       		.uleb128 0x5
 6272 01a9 00       		.byte	0
 6273 01aa 31       		.uleb128 0x31
 6274 01ab 13       		.uleb128 0x13
 6275 01ac 02       		.uleb128 0x2
 6276 01ad 18       		.uleb128 0x18
 6277 01ae 00       		.byte	0
 6278 01af 00       		.byte	0
 6279 01b0 25       		.uleb128 0x25
 6280 01b1 0B       		.uleb128 0xb
 6281 01b2 01       		.byte	0x1
 6282 01b3 11       		.uleb128 0x11
 6283 01b4 01       		.uleb128 0x1
 6284 01b5 12       		.uleb128 0x12
 6285 01b6 06       		.uleb128 0x6
 6286 01b7 00       		.byte	0
 6287 01b8 00       		.byte	0
 6288 01b9 26       		.uleb128 0x26
 6289 01ba 34       		.uleb128 0x34
 6290 01bb 00       		.byte	0
 6291 01bc 31       		.uleb128 0x31
 6292 01bd 13       		.uleb128 0x13
 6293 01be 1C       		.uleb128 0x1c
 6294 01bf 0B       		.uleb128 0xb
 6295 01c0 00       		.byte	0
 6296 01c1 00       		.byte	0
 6297 01c2 27       		.uleb128 0x27
 6298 01c3 34       		.uleb128 0x34
 6299 01c4 00       		.byte	0
 6300 01c5 31       		.uleb128 0x31
 6301 01c6 13       		.uleb128 0x13
 6302 01c7 02       		.uleb128 0x2
 6303 01c8 17       		.uleb128 0x17
 6304 01c9 00       		.byte	0
 6305 01ca 00       		.byte	0
 6306 01cb 28       		.uleb128 0x28
 6307 01cc 0B       		.uleb128 0xb
 6308 01cd 01       		.byte	0x1
 6309 01ce 11       		.uleb128 0x11
 6310 01cf 01       		.uleb128 0x1
 6311 01d0 12       		.uleb128 0x12
 6312 01d1 06       		.uleb128 0x6
 6313 01d2 01       		.uleb128 0x1
 6314 01d3 13       		.uleb128 0x13
 6315 01d4 00       		.byte	0
 6316 01d5 00       		.byte	0
 6317 01d6 29       		.uleb128 0x29
 6318 01d7 898201   		.uleb128 0x4109
 6319 01da 00       		.byte	0
 6320 01db 11       		.uleb128 0x11
 6321 01dc 01       		.uleb128 0x1
 6322 01dd 31       		.uleb128 0x31
ARM GAS  C:\Users\JASON\AppData\Local\Temp\cct5bgFA.s 			page 140


 6323 01de 13       		.uleb128 0x13
 6324 01df 00       		.byte	0
 6325 01e0 00       		.byte	0
 6326 01e1 2A       		.uleb128 0x2a
 6327 01e2 898201   		.uleb128 0x4109
 6328 01e5 01       		.byte	0x1
 6329 01e6 11       		.uleb128 0x11
 6330 01e7 01       		.uleb128 0x1
 6331 01e8 31       		.uleb128 0x31
 6332 01e9 13       		.uleb128 0x13
 6333 01ea 00       		.byte	0
 6334 01eb 00       		.byte	0
 6335 01ec 2B       		.uleb128 0x2b
 6336 01ed 8A8201   		.uleb128 0x410a
 6337 01f0 00       		.byte	0
 6338 01f1 02       		.uleb128 0x2
 6339 01f2 18       		.uleb128 0x18
 6340 01f3 9142     		.uleb128 0x2111
 6341 01f5 18       		.uleb128 0x18
 6342 01f6 00       		.byte	0
 6343 01f7 00       		.byte	0
 6344 01f8 2C       		.uleb128 0x2c
 6345 01f9 2E       		.uleb128 0x2e
 6346 01fa 01       		.byte	0x1
 6347 01fb 03       		.uleb128 0x3
 6348 01fc 0E       		.uleb128 0xe
 6349 01fd 3A       		.uleb128 0x3a
 6350 01fe 0B       		.uleb128 0xb
 6351 01ff 3B       		.uleb128 0x3b
 6352 0200 05       		.uleb128 0x5
 6353 0201 11       		.uleb128 0x11
 6354 0202 01       		.uleb128 0x1
 6355 0203 12       		.uleb128 0x12
 6356 0204 06       		.uleb128 0x6
 6357 0205 40       		.uleb128 0x40
 6358 0206 18       		.uleb128 0x18
 6359 0207 9742     		.uleb128 0x2117
 6360 0209 19       		.uleb128 0x19
 6361 020a 01       		.uleb128 0x1
 6362 020b 13       		.uleb128 0x13
 6363 020c 00       		.byte	0
 6364 020d 00       		.byte	0
 6365 020e 2D       		.uleb128 0x2d
 6366 020f 898201   		.uleb128 0x4109
 6367 0212 01       		.byte	0x1
 6368 0213 11       		.uleb128 0x11
 6369 0214 01       		.uleb128 0x1
 6370 0215 31       		.uleb128 0x31
 6371 0216 13       		.uleb128 0x13
 6372 0217 01       		.uleb128 0x1
 6373 0218 13       		.uleb128 0x13
 6374 0219 00       		.byte	0
 6375 021a 00       		.byte	0
 6376 021b 2E       		.uleb128 0x2e
 6377 021c 34       		.uleb128 0x34
 6378 021d 00       		.byte	0
 6379 021e 03       		.uleb128 0x3
ARM GAS  C:\Users\JASON\AppData\Local\Temp\cct5bgFA.s 			page 141


 6380 021f 0E       		.uleb128 0xe
 6381 0220 3A       		.uleb128 0x3a
 6382 0221 0B       		.uleb128 0xb
 6383 0222 3B       		.uleb128 0x3b
 6384 0223 05       		.uleb128 0x5
 6385 0224 49       		.uleb128 0x49
 6386 0225 13       		.uleb128 0x13
 6387 0226 02       		.uleb128 0x2
 6388 0227 17       		.uleb128 0x17
 6389 0228 00       		.byte	0
 6390 0229 00       		.byte	0
 6391 022a 2F       		.uleb128 0x2f
 6392 022b 34       		.uleb128 0x34
 6393 022c 00       		.byte	0
 6394 022d 03       		.uleb128 0x3
 6395 022e 08       		.uleb128 0x8
 6396 022f 3A       		.uleb128 0x3a
 6397 0230 0B       		.uleb128 0xb
 6398 0231 3B       		.uleb128 0x3b
 6399 0232 05       		.uleb128 0x5
 6400 0233 49       		.uleb128 0x49
 6401 0234 13       		.uleb128 0x13
 6402 0235 02       		.uleb128 0x2
 6403 0236 17       		.uleb128 0x17
 6404 0237 00       		.byte	0
 6405 0238 00       		.byte	0
 6406 0239 30       		.uleb128 0x30
 6407 023a 2E       		.uleb128 0x2e
 6408 023b 01       		.byte	0x1
 6409 023c 3F       		.uleb128 0x3f
 6410 023d 19       		.uleb128 0x19
 6411 023e 03       		.uleb128 0x3
 6412 023f 0E       		.uleb128 0xe
 6413 0240 3A       		.uleb128 0x3a
 6414 0241 0B       		.uleb128 0xb
 6415 0242 3B       		.uleb128 0x3b
 6416 0243 0B       		.uleb128 0xb
 6417 0244 27       		.uleb128 0x27
 6418 0245 19       		.uleb128 0x19
 6419 0246 11       		.uleb128 0x11
 6420 0247 01       		.uleb128 0x1
 6421 0248 12       		.uleb128 0x12
 6422 0249 06       		.uleb128 0x6
 6423 024a 40       		.uleb128 0x40
 6424 024b 18       		.uleb128 0x18
 6425 024c 9742     		.uleb128 0x2117
 6426 024e 19       		.uleb128 0x19
 6427 024f 01       		.uleb128 0x1
 6428 0250 13       		.uleb128 0x13
 6429 0251 00       		.byte	0
 6430 0252 00       		.byte	0
 6431 0253 31       		.uleb128 0x31
 6432 0254 05       		.uleb128 0x5
 6433 0255 00       		.byte	0
 6434 0256 03       		.uleb128 0x3
 6435 0257 08       		.uleb128 0x8
 6436 0258 3A       		.uleb128 0x3a
ARM GAS  C:\Users\JASON\AppData\Local\Temp\cct5bgFA.s 			page 142


 6437 0259 0B       		.uleb128 0xb
 6438 025a 3B       		.uleb128 0x3b
 6439 025b 0B       		.uleb128 0xb
 6440 025c 49       		.uleb128 0x49
 6441 025d 13       		.uleb128 0x13
 6442 025e 02       		.uleb128 0x2
 6443 025f 17       		.uleb128 0x17
 6444 0260 00       		.byte	0
 6445 0261 00       		.byte	0
 6446 0262 32       		.uleb128 0x32
 6447 0263 34       		.uleb128 0x34
 6448 0264 00       		.byte	0
 6449 0265 03       		.uleb128 0x3
 6450 0266 0E       		.uleb128 0xe
 6451 0267 3A       		.uleb128 0x3a
 6452 0268 0B       		.uleb128 0xb
 6453 0269 3B       		.uleb128 0x3b
 6454 026a 0B       		.uleb128 0xb
 6455 026b 49       		.uleb128 0x49
 6456 026c 13       		.uleb128 0x13
 6457 026d 02       		.uleb128 0x2
 6458 026e 18       		.uleb128 0x18
 6459 026f 00       		.byte	0
 6460 0270 00       		.byte	0
 6461 0271 33       		.uleb128 0x33
 6462 0272 34       		.uleb128 0x34
 6463 0273 00       		.byte	0
 6464 0274 03       		.uleb128 0x3
 6465 0275 0E       		.uleb128 0xe
 6466 0276 3A       		.uleb128 0x3a
 6467 0277 0B       		.uleb128 0xb
 6468 0278 3B       		.uleb128 0x3b
 6469 0279 0B       		.uleb128 0xb
 6470 027a 49       		.uleb128 0x49
 6471 027b 13       		.uleb128 0x13
 6472 027c 00       		.byte	0
 6473 027d 00       		.byte	0
 6474 027e 34       		.uleb128 0x34
 6475 027f 1D       		.uleb128 0x1d
 6476 0280 01       		.byte	0x1
 6477 0281 31       		.uleb128 0x31
 6478 0282 13       		.uleb128 0x13
 6479 0283 11       		.uleb128 0x11
 6480 0284 01       		.uleb128 0x1
 6481 0285 12       		.uleb128 0x12
 6482 0286 06       		.uleb128 0x6
 6483 0287 58       		.uleb128 0x58
 6484 0288 0B       		.uleb128 0xb
 6485 0289 59       		.uleb128 0x59
 6486 028a 0B       		.uleb128 0xb
 6487 028b 01       		.uleb128 0x1
 6488 028c 13       		.uleb128 0x13
 6489 028d 00       		.byte	0
 6490 028e 00       		.byte	0
 6491 028f 35       		.uleb128 0x35
 6492 0290 21       		.uleb128 0x21
 6493 0291 00       		.byte	0
ARM GAS  C:\Users\JASON\AppData\Local\Temp\cct5bgFA.s 			page 143


 6494 0292 49       		.uleb128 0x49
 6495 0293 13       		.uleb128 0x13
 6496 0294 2F       		.uleb128 0x2f
 6497 0295 0B       		.uleb128 0xb
 6498 0296 00       		.byte	0
 6499 0297 00       		.byte	0
 6500 0298 36       		.uleb128 0x36
 6501 0299 2E       		.uleb128 0x2e
 6502 029a 01       		.byte	0x1
 6503 029b 3F       		.uleb128 0x3f
 6504 029c 19       		.uleb128 0x19
 6505 029d 03       		.uleb128 0x3
 6506 029e 0E       		.uleb128 0xe
 6507 029f 3A       		.uleb128 0x3a
 6508 02a0 0B       		.uleb128 0xb
 6509 02a1 3B       		.uleb128 0x3b
 6510 02a2 05       		.uleb128 0x5
 6511 02a3 27       		.uleb128 0x27
 6512 02a4 19       		.uleb128 0x19
 6513 02a5 11       		.uleb128 0x11
 6514 02a6 01       		.uleb128 0x1
 6515 02a7 12       		.uleb128 0x12
 6516 02a8 06       		.uleb128 0x6
 6517 02a9 40       		.uleb128 0x40
 6518 02aa 18       		.uleb128 0x18
 6519 02ab 9742     		.uleb128 0x2117
 6520 02ad 19       		.uleb128 0x19
 6521 02ae 01       		.uleb128 0x1
 6522 02af 13       		.uleb128 0x13
 6523 02b0 00       		.byte	0
 6524 02b1 00       		.byte	0
 6525 02b2 37       		.uleb128 0x37
 6526 02b3 34       		.uleb128 0x34
 6527 02b4 00       		.byte	0
 6528 02b5 03       		.uleb128 0x3
 6529 02b6 0E       		.uleb128 0xe
 6530 02b7 3A       		.uleb128 0x3a
 6531 02b8 0B       		.uleb128 0xb
 6532 02b9 3B       		.uleb128 0x3b
 6533 02ba 0B       		.uleb128 0xb
 6534 02bb 49       		.uleb128 0x49
 6535 02bc 13       		.uleb128 0x13
 6536 02bd 1C       		.uleb128 0x1c
 6537 02be 0B       		.uleb128 0xb
 6538 02bf 00       		.byte	0
 6539 02c0 00       		.byte	0
 6540 02c1 38       		.uleb128 0x38
 6541 02c2 34       		.uleb128 0x34
 6542 02c3 00       		.byte	0
 6543 02c4 03       		.uleb128 0x3
 6544 02c5 0E       		.uleb128 0xe
 6545 02c6 3A       		.uleb128 0x3a
 6546 02c7 0B       		.uleb128 0xb
 6547 02c8 3B       		.uleb128 0x3b
 6548 02c9 0B       		.uleb128 0xb
 6549 02ca 49       		.uleb128 0x49
 6550 02cb 13       		.uleb128 0x13
ARM GAS  C:\Users\JASON\AppData\Local\Temp\cct5bgFA.s 			page 144


 6551 02cc 3F       		.uleb128 0x3f
 6552 02cd 19       		.uleb128 0x19
 6553 02ce 3C       		.uleb128 0x3c
 6554 02cf 19       		.uleb128 0x19
 6555 02d0 00       		.byte	0
 6556 02d1 00       		.byte	0
 6557 02d2 39       		.uleb128 0x39
 6558 02d3 34       		.uleb128 0x34
 6559 02d4 00       		.byte	0
 6560 02d5 03       		.uleb128 0x3
 6561 02d6 0E       		.uleb128 0xe
 6562 02d7 3A       		.uleb128 0x3a
 6563 02d8 0B       		.uleb128 0xb
 6564 02d9 3B       		.uleb128 0x3b
 6565 02da 05       		.uleb128 0x5
 6566 02db 49       		.uleb128 0x49
 6567 02dc 13       		.uleb128 0x13
 6568 02dd 3F       		.uleb128 0x3f
 6569 02de 19       		.uleb128 0x19
 6570 02df 3C       		.uleb128 0x3c
 6571 02e0 19       		.uleb128 0x19
 6572 02e1 00       		.byte	0
 6573 02e2 00       		.byte	0
 6574 02e3 3A       		.uleb128 0x3a
 6575 02e4 35       		.uleb128 0x35
 6576 02e5 00       		.byte	0
 6577 02e6 49       		.uleb128 0x49
 6578 02e7 13       		.uleb128 0x13
 6579 02e8 00       		.byte	0
 6580 02e9 00       		.byte	0
 6581 02ea 3B       		.uleb128 0x3b
 6582 02eb 34       		.uleb128 0x34
 6583 02ec 00       		.byte	0
 6584 02ed 03       		.uleb128 0x3
 6585 02ee 0E       		.uleb128 0xe
 6586 02ef 3A       		.uleb128 0x3a
 6587 02f0 0B       		.uleb128 0xb
 6588 02f1 3B       		.uleb128 0x3b
 6589 02f2 0B       		.uleb128 0xb
 6590 02f3 49       		.uleb128 0x49
 6591 02f4 13       		.uleb128 0x13
 6592 02f5 3F       		.uleb128 0x3f
 6593 02f6 19       		.uleb128 0x19
 6594 02f7 02       		.uleb128 0x2
 6595 02f8 18       		.uleb128 0x18
 6596 02f9 00       		.byte	0
 6597 02fa 00       		.byte	0
 6598 02fb 3C       		.uleb128 0x3c
 6599 02fc 2E       		.uleb128 0x2e
 6600 02fd 00       		.byte	0
 6601 02fe 3F       		.uleb128 0x3f
 6602 02ff 19       		.uleb128 0x19
 6603 0300 3C       		.uleb128 0x3c
 6604 0301 19       		.uleb128 0x19
 6605 0302 6E       		.uleb128 0x6e
 6606 0303 0E       		.uleb128 0xe
 6607 0304 03       		.uleb128 0x3
ARM GAS  C:\Users\JASON\AppData\Local\Temp\cct5bgFA.s 			page 145


 6608 0305 0E       		.uleb128 0xe
 6609 0306 3A       		.uleb128 0x3a
 6610 0307 0B       		.uleb128 0xb
 6611 0308 3B       		.uleb128 0x3b
 6612 0309 05       		.uleb128 0x5
 6613 030a 00       		.byte	0
 6614 030b 00       		.byte	0
 6615 030c 3D       		.uleb128 0x3d
 6616 030d 2E       		.uleb128 0x2e
 6617 030e 00       		.byte	0
 6618 030f 3F       		.uleb128 0x3f
 6619 0310 19       		.uleb128 0x19
 6620 0311 3C       		.uleb128 0x3c
 6621 0312 19       		.uleb128 0x19
 6622 0313 6E       		.uleb128 0x6e
 6623 0314 0E       		.uleb128 0xe
 6624 0315 03       		.uleb128 0x3
 6625 0316 0E       		.uleb128 0xe
 6626 0317 3A       		.uleb128 0x3a
 6627 0318 0B       		.uleb128 0xb
 6628 0319 3B       		.uleb128 0x3b
 6629 031a 0B       		.uleb128 0xb
 6630 031b 00       		.byte	0
 6631 031c 00       		.byte	0
 6632 031d 00       		.byte	0
 6633              		.section	.debug_loc,"",%progbits
 6634              	.Ldebug_loc0:
 6635              	.LLST0:
 6636 0000 00000000 		.4byte	.LVL0
 6637 0004 12000000 		.4byte	.LVL2
 6638 0008 0100     		.2byte	0x1
 6639 000a 50       		.byte	0x50
 6640 000b 12000000 		.4byte	.LVL2
 6641 000f 80020000 		.4byte	.LFE133
 6642 0013 0400     		.2byte	0x4
 6643 0015 F3       		.byte	0xf3
 6644 0016 01       		.uleb128 0x1
 6645 0017 50       		.byte	0x50
 6646 0018 9F       		.byte	0x9f
 6647 0019 00000000 		.4byte	0
 6648 001d 00000000 		.4byte	0
 6649              	.LLST1:
 6650 0021 00000000 		.4byte	.LVL0
 6651 0025 12000000 		.4byte	.LVL2
 6652 0029 0100     		.2byte	0x1
 6653 002b 51       		.byte	0x51
 6654 002c 12000000 		.4byte	.LVL2
 6655 0030 80020000 		.4byte	.LFE133
 6656 0034 0400     		.2byte	0x4
 6657 0036 F3       		.byte	0xf3
 6658 0037 01       		.uleb128 0x1
 6659 0038 51       		.byte	0x51
 6660 0039 9F       		.byte	0x9f
 6661 003a 00000000 		.4byte	0
 6662 003e 00000000 		.4byte	0
 6663              	.LLST2:
 6664 0042 40000000 		.4byte	.LVL5
ARM GAS  C:\Users\JASON\AppData\Local\Temp\cct5bgFA.s 			page 146


 6665 0046 9A000000 		.4byte	.LVL9
 6666 004a 0200     		.2byte	0x2
 6667 004c 30       		.byte	0x30
 6668 004d 9F       		.byte	0x9f
 6669 004e 9A000000 		.4byte	.LVL9
 6670 0052 A8000000 		.4byte	.LVL12
 6671 0056 0100     		.2byte	0x1
 6672 0058 54       		.byte	0x54
 6673 0059 A8000000 		.4byte	.LVL12
 6674 005d AA000000 		.4byte	.LVL13
 6675 0061 0200     		.2byte	0x2
 6676 0063 30       		.byte	0x30
 6677 0064 9F       		.byte	0x9f
 6678 0065 AA000000 		.4byte	.LVL13
 6679 0069 B4000000 		.4byte	.LVL14
 6680 006d 0100     		.2byte	0x1
 6681 006f 54       		.byte	0x54
 6682 0070 00000000 		.4byte	0
 6683 0074 00000000 		.4byte	0
 6684              	.LLST3:
 6685 0078 92000000 		.4byte	.LVL8
 6686 007c B4000000 		.4byte	.LVL14
 6687 0080 0100     		.2byte	0x1
 6688 0082 55       		.byte	0x55
 6689 0083 00000000 		.4byte	0
 6690 0087 00000000 		.4byte	0
 6691              	.LLST4:
 6692 008b 9A000000 		.4byte	.LVL9
 6693 008f A3000000 		.4byte	.LVL10-1
 6694 0093 0700     		.2byte	0x7
 6695 0095 74       		.byte	0x74
 6696 0096 00       		.sleb128 0
 6697 0097 32       		.byte	0x32
 6698 0098 24       		.byte	0x24
 6699 0099 75       		.byte	0x75
 6700 009a 00       		.sleb128 0
 6701 009b 22       		.byte	0x22
 6702 009c 00000000 		.4byte	0
 6703 00a0 00000000 		.4byte	0
 6704              	.LLST5:
 6705 00a4 26010000 		.4byte	.LVL18
 6706 00a8 96010000 		.4byte	.LVL27
 6707 00ac 0200     		.2byte	0x2
 6708 00ae 30       		.byte	0x30
 6709 00af 9F       		.byte	0x9f
 6710 00b0 00000000 		.4byte	0
 6711 00b4 00000000 		.4byte	0
 6712              	.LLST6:
 6713 00b8 26010000 		.4byte	.LVL18
 6714 00bc 7A010000 		.4byte	.LVL22
 6715 00c0 0200     		.2byte	0x2
 6716 00c2 30       		.byte	0x30
 6717 00c3 9F       		.byte	0x9f
 6718 00c4 7A010000 		.4byte	.LVL22
 6719 00c8 88010000 		.4byte	.LVL25
 6720 00cc 0100     		.2byte	0x1
 6721 00ce 54       		.byte	0x54
ARM GAS  C:\Users\JASON\AppData\Local\Temp\cct5bgFA.s 			page 147


 6722 00cf 88010000 		.4byte	.LVL25
 6723 00d3 8A010000 		.4byte	.LVL26
 6724 00d7 0200     		.2byte	0x2
 6725 00d9 30       		.byte	0x30
 6726 00da 9F       		.byte	0x9f
 6727 00db 8A010000 		.4byte	.LVL26
 6728 00df 96010000 		.4byte	.LVL27
 6729 00e3 0100     		.2byte	0x1
 6730 00e5 54       		.byte	0x54
 6731 00e6 00000000 		.4byte	0
 6732 00ea 00000000 		.4byte	0
 6733              	.LLST7:
 6734 00ee 70010000 		.4byte	.LVL21
 6735 00f2 96010000 		.4byte	.LVL27
 6736 00f6 0100     		.2byte	0x1
 6737 00f8 55       		.byte	0x55
 6738 00f9 00000000 		.4byte	0
 6739 00fd 00000000 		.4byte	0
 6740              	.LLST8:
 6741 0101 7A010000 		.4byte	.LVL22
 6742 0105 83010000 		.4byte	.LVL23-1
 6743 0109 0700     		.2byte	0x7
 6744 010b 74       		.byte	0x74
 6745 010c 00       		.sleb128 0
 6746 010d 32       		.byte	0x32
 6747 010e 24       		.byte	0x24
 6748 010f 75       		.byte	0x75
 6749 0110 00       		.sleb128 0
 6750 0111 22       		.byte	0x22
 6751 0112 00000000 		.4byte	0
 6752 0116 00000000 		.4byte	0
 6753              	.LLST9:
 6754 011a 08020000 		.4byte	.LVL31
 6755 011e 74020000 		.4byte	.LVL40
 6756 0122 0200     		.2byte	0x2
 6757 0124 30       		.byte	0x30
 6758 0125 9F       		.byte	0x9f
 6759 0126 00000000 		.4byte	0
 6760 012a 00000000 		.4byte	0
 6761              	.LLST10:
 6762 012e 08020000 		.4byte	.LVL31
 6763 0132 5A020000 		.4byte	.LVL35
 6764 0136 0200     		.2byte	0x2
 6765 0138 30       		.byte	0x30
 6766 0139 9F       		.byte	0x9f
 6767 013a 5A020000 		.4byte	.LVL35
 6768 013e 68020000 		.4byte	.LVL38
 6769 0142 0100     		.2byte	0x1
 6770 0144 54       		.byte	0x54
 6771 0145 68020000 		.4byte	.LVL38
 6772 0149 6A020000 		.4byte	.LVL39
 6773 014d 0200     		.2byte	0x2
 6774 014f 30       		.byte	0x30
 6775 0150 9F       		.byte	0x9f
 6776 0151 6A020000 		.4byte	.LVL39
 6777 0155 74020000 		.4byte	.LVL40
 6778 0159 0100     		.2byte	0x1
ARM GAS  C:\Users\JASON\AppData\Local\Temp\cct5bgFA.s 			page 148


 6779 015b 54       		.byte	0x54
 6780 015c 00000000 		.4byte	0
 6781 0160 00000000 		.4byte	0
 6782              	.LLST11:
 6783 0164 52020000 		.4byte	.LVL34
 6784 0168 74020000 		.4byte	.LVL40
 6785 016c 0100     		.2byte	0x1
 6786 016e 55       		.byte	0x55
 6787 016f 00000000 		.4byte	0
 6788 0173 00000000 		.4byte	0
 6789              	.LLST12:
 6790 0177 5A020000 		.4byte	.LVL35
 6791 017b 63020000 		.4byte	.LVL36-1
 6792 017f 0700     		.2byte	0x7
 6793 0181 74       		.byte	0x74
 6794 0182 00       		.sleb128 0
 6795 0183 32       		.byte	0x32
 6796 0184 24       		.byte	0x24
 6797 0185 75       		.byte	0x75
 6798 0186 00       		.sleb128 0
 6799 0187 22       		.byte	0x22
 6800 0188 00000000 		.4byte	0
 6801 018c 00000000 		.4byte	0
 6802              	.LLST13:
 6803 0190 08000000 		.4byte	.LVL56
 6804 0194 46000000 		.4byte	.LVL60
 6805 0198 0200     		.2byte	0x2
 6806 019a 30       		.byte	0x30
 6807 019b 9F       		.byte	0x9f
 6808 019c 46000000 		.4byte	.LVL60
 6809 01a0 54000000 		.4byte	.LVL63
 6810 01a4 0100     		.2byte	0x1
 6811 01a6 54       		.byte	0x54
 6812 01a7 54000000 		.4byte	.LVL63
 6813 01ab 56000000 		.4byte	.LVL64
 6814 01af 0200     		.2byte	0x2
 6815 01b1 30       		.byte	0x30
 6816 01b2 9F       		.byte	0x9f
 6817 01b3 56000000 		.4byte	.LVL64
 6818 01b7 60000000 		.4byte	.LVL65
 6819 01bb 0100     		.2byte	0x1
 6820 01bd 54       		.byte	0x54
 6821 01be 00000000 		.4byte	0
 6822 01c2 00000000 		.4byte	0
 6823              	.LLST14:
 6824 01c6 3E000000 		.4byte	.LVL59
 6825 01ca 62000000 		.4byte	.LVL66
 6826 01ce 0100     		.2byte	0x1
 6827 01d0 55       		.byte	0x55
 6828 01d1 00000000 		.4byte	0
 6829 01d5 00000000 		.4byte	0
 6830              	.LLST15:
 6831 01d9 46000000 		.4byte	.LVL60
 6832 01dd 4F000000 		.4byte	.LVL61-1
 6833 01e1 0700     		.2byte	0x7
 6834 01e3 74       		.byte	0x74
 6835 01e4 00       		.sleb128 0
ARM GAS  C:\Users\JASON\AppData\Local\Temp\cct5bgFA.s 			page 149


 6836 01e5 32       		.byte	0x32
 6837 01e6 24       		.byte	0x24
 6838 01e7 75       		.byte	0x75
 6839 01e8 00       		.sleb128 0
 6840 01e9 22       		.byte	0x22
 6841 01ea 00000000 		.4byte	0
 6842 01ee 00000000 		.4byte	0
 6843              	.LLST16:
 6844 01f2 26000000 		.4byte	.LVL69
 6845 01f6 28000000 		.4byte	.LVL70
 6846 01fa 0100     		.2byte	0x1
 6847 01fc 53       		.byte	0x53
 6848 01fd 28000000 		.4byte	.LVL70
 6849 0201 2A000000 		.4byte	.LVL71
 6850 0205 0300     		.2byte	0x3
 6851 0207 73       		.byte	0x73
 6852 0208 04       		.sleb128 4
 6853 0209 9F       		.byte	0x9f
 6854 020a 2A000000 		.4byte	.LVL71
 6855 020e 50000000 		.4byte	.LVL72
 6856 0212 0200     		.2byte	0x2
 6857 0214 91       		.byte	0x91
 6858 0215 48       		.sleb128 -56
 6859 0216 50000000 		.4byte	.LVL72
 6860 021a 52000000 		.4byte	.LVL73
 6861 021e 0100     		.2byte	0x1
 6862 0220 53       		.byte	0x53
 6863 0221 52000000 		.4byte	.LVL73
 6864 0225 54000000 		.4byte	.LVL74
 6865 0229 0300     		.2byte	0x3
 6866 022b 73       		.byte	0x73
 6867 022c 04       		.sleb128 4
 6868 022d 9F       		.byte	0x9f
 6869 022e 54000000 		.4byte	.LVL74
 6870 0232 02010000 		.4byte	.LVL86
 6871 0236 0200     		.2byte	0x2
 6872 0238 91       		.byte	0x91
 6873 0239 5C       		.sleb128 -36
 6874 023a 02010000 		.4byte	.LVL86
 6875 023e 14010000 		.4byte	.LFE148
 6876 0242 0200     		.2byte	0x2
 6877 0244 7D       		.byte	0x7d
 6878 0245 5C       		.sleb128 -36
 6879 0246 00000000 		.4byte	0
 6880 024a 00000000 		.4byte	0
 6881              	.LLST17:
 6882 024e 90000000 		.4byte	.LVL76
 6883 0252 E4000000 		.4byte	.LVL80
 6884 0256 0200     		.2byte	0x2
 6885 0258 30       		.byte	0x30
 6886 0259 9F       		.byte	0x9f
 6887 025a E4000000 		.4byte	.LVL80
 6888 025e F2000000 		.4byte	.LVL83
 6889 0262 0100     		.2byte	0x1
 6890 0264 54       		.byte	0x54
 6891 0265 F2000000 		.4byte	.LVL83
 6892 0269 F4000000 		.4byte	.LVL84
ARM GAS  C:\Users\JASON\AppData\Local\Temp\cct5bgFA.s 			page 150


 6893 026d 0200     		.2byte	0x2
 6894 026f 30       		.byte	0x30
 6895 0270 9F       		.byte	0x9f
 6896 0271 F4000000 		.4byte	.LVL84
 6897 0275 FE000000 		.4byte	.LVL85
 6898 0279 0100     		.2byte	0x1
 6899 027b 54       		.byte	0x54
 6900 027c 00000000 		.4byte	0
 6901 0280 00000000 		.4byte	0
 6902              	.LLST18:
 6903 0284 DC000000 		.4byte	.LVL79
 6904 0288 02010000 		.4byte	.LVL86
 6905 028c 0100     		.2byte	0x1
 6906 028e 55       		.byte	0x55
 6907 028f 00000000 		.4byte	0
 6908 0293 00000000 		.4byte	0
 6909              	.LLST19:
 6910 0297 E4000000 		.4byte	.LVL80
 6911 029b ED000000 		.4byte	.LVL81-1
 6912 029f 0700     		.2byte	0x7
 6913 02a1 74       		.byte	0x74
 6914 02a2 00       		.sleb128 0
 6915 02a3 32       		.byte	0x32
 6916 02a4 24       		.byte	0x24
 6917 02a5 75       		.byte	0x75
 6918 02a6 00       		.sleb128 0
 6919 02a7 22       		.byte	0x22
 6920 02a8 00000000 		.4byte	0
 6921 02ac 00000000 		.4byte	0
 6922              	.LLST20:
 6923 02b0 54000000 		.4byte	.LVL90
 6924 02b4 A6000000 		.4byte	.LVL94
 6925 02b8 0200     		.2byte	0x2
 6926 02ba 30       		.byte	0x30
 6927 02bb 9F       		.byte	0x9f
 6928 02bc A6000000 		.4byte	.LVL94
 6929 02c0 B4000000 		.4byte	.LVL97
 6930 02c4 0100     		.2byte	0x1
 6931 02c6 54       		.byte	0x54
 6932 02c7 B4000000 		.4byte	.LVL97
 6933 02cb B6000000 		.4byte	.LVL98
 6934 02cf 0200     		.2byte	0x2
 6935 02d1 30       		.byte	0x30
 6936 02d2 9F       		.byte	0x9f
 6937 02d3 B6000000 		.4byte	.LVL98
 6938 02d7 C0000000 		.4byte	.LVL99
 6939 02db 0100     		.2byte	0x1
 6940 02dd 54       		.byte	0x54
 6941 02de 00000000 		.4byte	0
 6942 02e2 00000000 		.4byte	0
 6943              	.LLST21:
 6944 02e6 9E000000 		.4byte	.LVL93
 6945 02ea C4000000 		.4byte	.LVL100
 6946 02ee 0100     		.2byte	0x1
 6947 02f0 55       		.byte	0x55
 6948 02f1 00000000 		.4byte	0
 6949 02f5 00000000 		.4byte	0
ARM GAS  C:\Users\JASON\AppData\Local\Temp\cct5bgFA.s 			page 151


 6950              	.LLST22:
 6951 02f9 A6000000 		.4byte	.LVL94
 6952 02fd AF000000 		.4byte	.LVL95-1
 6953 0301 0700     		.2byte	0x7
 6954 0303 74       		.byte	0x74
 6955 0304 00       		.sleb128 0
 6956 0305 32       		.byte	0x32
 6957 0306 24       		.byte	0x24
 6958 0307 75       		.byte	0x75
 6959 0308 00       		.sleb128 0
 6960 0309 22       		.byte	0x22
 6961 030a 00000000 		.4byte	0
 6962 030e 00000000 		.4byte	0
 6963              	.LLST23:
 6964 0312 74000000 		.4byte	.LVL104
 6965 0316 C8000000 		.4byte	.LVL108
 6966 031a 0200     		.2byte	0x2
 6967 031c 30       		.byte	0x30
 6968 031d 9F       		.byte	0x9f
 6969 031e C8000000 		.4byte	.LVL108
 6970 0322 D6000000 		.4byte	.LVL111
 6971 0326 0100     		.2byte	0x1
 6972 0328 54       		.byte	0x54
 6973 0329 D6000000 		.4byte	.LVL111
 6974 032d D8000000 		.4byte	.LVL112
 6975 0331 0200     		.2byte	0x2
 6976 0333 30       		.byte	0x30
 6977 0334 9F       		.byte	0x9f
 6978 0335 D8000000 		.4byte	.LVL112
 6979 0339 E2000000 		.4byte	.LVL113
 6980 033d 0100     		.2byte	0x1
 6981 033f 54       		.byte	0x54
 6982 0340 00000000 		.4byte	0
 6983 0344 00000000 		.4byte	0
 6984              	.LLST24:
 6985 0348 C0000000 		.4byte	.LVL107
 6986 034c E6000000 		.4byte	.LVL114
 6987 0350 0100     		.2byte	0x1
 6988 0352 55       		.byte	0x55
 6989 0353 00000000 		.4byte	0
 6990 0357 00000000 		.4byte	0
 6991              	.LLST25:
 6992 035b C8000000 		.4byte	.LVL108
 6993 035f D1000000 		.4byte	.LVL109-1
 6994 0363 0700     		.2byte	0x7
 6995 0365 74       		.byte	0x74
 6996 0366 00       		.sleb128 0
 6997 0367 32       		.byte	0x32
 6998 0368 24       		.byte	0x24
 6999 0369 75       		.byte	0x75
 7000 036a 00       		.sleb128 0
 7001 036b 22       		.byte	0x22
 7002 036c 00000000 		.4byte	0
 7003 0370 00000000 		.4byte	0
 7004              	.LLST26:
 7005 0374 10000000 		.4byte	.LVL116
 7006 0378 4E000000 		.4byte	.LVL120
ARM GAS  C:\Users\JASON\AppData\Local\Temp\cct5bgFA.s 			page 152


 7007 037c 0200     		.2byte	0x2
 7008 037e 30       		.byte	0x30
 7009 037f 9F       		.byte	0x9f
 7010 0380 4E000000 		.4byte	.LVL120
 7011 0384 5C000000 		.4byte	.LVL123
 7012 0388 0100     		.2byte	0x1
 7013 038a 54       		.byte	0x54
 7014 038b 5C000000 		.4byte	.LVL123
 7015 038f 5E000000 		.4byte	.LVL124
 7016 0393 0200     		.2byte	0x2
 7017 0395 30       		.byte	0x30
 7018 0396 9F       		.byte	0x9f
 7019 0397 5E000000 		.4byte	.LVL124
 7020 039b 68000000 		.4byte	.LVL125
 7021 039f 0100     		.2byte	0x1
 7022 03a1 54       		.byte	0x54
 7023 03a2 00000000 		.4byte	0
 7024 03a6 00000000 		.4byte	0
 7025              	.LLST27:
 7026 03aa 46000000 		.4byte	.LVL119
 7027 03ae 6A000000 		.4byte	.LVL126
 7028 03b2 0100     		.2byte	0x1
 7029 03b4 55       		.byte	0x55
 7030 03b5 00000000 		.4byte	0
 7031 03b9 00000000 		.4byte	0
 7032              	.LLST28:
 7033 03bd 4E000000 		.4byte	.LVL120
 7034 03c1 57000000 		.4byte	.LVL121-1
 7035 03c5 0700     		.2byte	0x7
 7036 03c7 74       		.byte	0x74
 7037 03c8 00       		.sleb128 0
 7038 03c9 32       		.byte	0x32
 7039 03ca 24       		.byte	0x24
 7040 03cb 75       		.byte	0x75
 7041 03cc 00       		.sleb128 0
 7042 03cd 22       		.byte	0x22
 7043 03ce 00000000 		.4byte	0
 7044 03d2 00000000 		.4byte	0
 7045              	.LLST29:
 7046 03d6 10000000 		.4byte	.LVL128
 7047 03da 4E000000 		.4byte	.LVL132
 7048 03de 0200     		.2byte	0x2
 7049 03e0 30       		.byte	0x30
 7050 03e1 9F       		.byte	0x9f
 7051 03e2 4E000000 		.4byte	.LVL132
 7052 03e6 5C000000 		.4byte	.LVL135
 7053 03ea 0100     		.2byte	0x1
 7054 03ec 54       		.byte	0x54
 7055 03ed 5C000000 		.4byte	.LVL135
 7056 03f1 5E000000 		.4byte	.LVL136
 7057 03f5 0200     		.2byte	0x2
 7058 03f7 30       		.byte	0x30
 7059 03f8 9F       		.byte	0x9f
 7060 03f9 5E000000 		.4byte	.LVL136
 7061 03fd 68000000 		.4byte	.LVL137
 7062 0401 0100     		.2byte	0x1
 7063 0403 54       		.byte	0x54
ARM GAS  C:\Users\JASON\AppData\Local\Temp\cct5bgFA.s 			page 153


 7064 0404 00000000 		.4byte	0
 7065 0408 00000000 		.4byte	0
 7066              	.LLST30:
 7067 040c 46000000 		.4byte	.LVL131
 7068 0410 6A000000 		.4byte	.LVL138
 7069 0414 0100     		.2byte	0x1
 7070 0416 55       		.byte	0x55
 7071 0417 00000000 		.4byte	0
 7072 041b 00000000 		.4byte	0
 7073              	.LLST31:
 7074 041f 4E000000 		.4byte	.LVL132
 7075 0423 57000000 		.4byte	.LVL133-1
 7076 0427 0700     		.2byte	0x7
 7077 0429 74       		.byte	0x74
 7078 042a 00       		.sleb128 0
 7079 042b 32       		.byte	0x32
 7080 042c 24       		.byte	0x24
 7081 042d 75       		.byte	0x75
 7082 042e 00       		.sleb128 0
 7083 042f 22       		.byte	0x22
 7084 0430 00000000 		.4byte	0
 7085 0434 00000000 		.4byte	0
 7086              	.LLST32:
 7087 0438 26000000 		.4byte	.LVL141
 7088 043c 4A000000 		.4byte	.LVL145
 7089 0440 0100     		.2byte	0x1
 7090 0442 51       		.byte	0x51
 7091 0443 4A000000 		.4byte	.LVL145
 7092 0447 5E000000 		.4byte	.LVL146
 7093 044b 0300     		.2byte	0x3
 7094 044d 72       		.byte	0x72
 7095 044e 7F       		.sleb128 -1
 7096 044f 9F       		.byte	0x9f
 7097 0450 5E000000 		.4byte	.LVL146
 7098 0454 6C000000 		.4byte	.LVL148
 7099 0458 0100     		.2byte	0x1
 7100 045a 51       		.byte	0x51
 7101 045b 6C000000 		.4byte	.LVL148
 7102 045f F0000000 		.4byte	.LVL159
 7103 0463 0200     		.2byte	0x2
 7104 0465 91       		.byte	0x91
 7105 0466 54       		.sleb128 -44
 7106 0467 F0000000 		.4byte	.LVL159
 7107 046b 00010000 		.4byte	.LFE143
 7108 046f 0200     		.2byte	0x2
 7109 0471 7D       		.byte	0x7d
 7110 0472 54       		.sleb128 -44
 7111 0473 00000000 		.4byte	0
 7112 0477 00000000 		.4byte	0
 7113              	.LLST33:
 7114 047b 2A000000 		.4byte	.LVL142
 7115 047f 2C000000 		.4byte	.LVL143
 7116 0483 0100     		.2byte	0x1
 7117 0485 52       		.byte	0x52
 7118 0486 2C000000 		.4byte	.LVL143
 7119 048a 44000000 		.4byte	.LVL144
 7120 048e 0300     		.2byte	0x3
ARM GAS  C:\Users\JASON\AppData\Local\Temp\cct5bgFA.s 			page 154


 7121 0490 72       		.byte	0x72
 7122 0491 7F       		.sleb128 -1
 7123 0492 9F       		.byte	0x9f
 7124 0493 44000000 		.4byte	.LVL144
 7125 0497 6C000000 		.4byte	.LVL148
 7126 049b 0100     		.2byte	0x1
 7127 049d 53       		.byte	0x53
 7128 049e 6C000000 		.4byte	.LVL148
 7129 04a2 F0000000 		.4byte	.LVL159
 7130 04a6 0200     		.2byte	0x2
 7131 04a8 91       		.byte	0x91
 7132 04a9 68       		.sleb128 -24
 7133 04aa F0000000 		.4byte	.LVL159
 7134 04ae 00010000 		.4byte	.LFE143
 7135 04b2 0200     		.2byte	0x2
 7136 04b4 7D       		.byte	0x7d
 7137 04b5 68       		.sleb128 -24
 7138 04b6 00000000 		.4byte	0
 7139 04ba 00000000 		.4byte	0
 7140              	.LLST34:
 7141 04be 7E000000 		.4byte	.LVL149
 7142 04c2 D2000000 		.4byte	.LVL153
 7143 04c6 0200     		.2byte	0x2
 7144 04c8 30       		.byte	0x30
 7145 04c9 9F       		.byte	0x9f
 7146 04ca D2000000 		.4byte	.LVL153
 7147 04ce E0000000 		.4byte	.LVL156
 7148 04d2 0100     		.2byte	0x1
 7149 04d4 54       		.byte	0x54
 7150 04d5 E0000000 		.4byte	.LVL156
 7151 04d9 E2000000 		.4byte	.LVL157
 7152 04dd 0200     		.2byte	0x2
 7153 04df 30       		.byte	0x30
 7154 04e0 9F       		.byte	0x9f
 7155 04e1 E2000000 		.4byte	.LVL157
 7156 04e5 EC000000 		.4byte	.LVL158
 7157 04e9 0100     		.2byte	0x1
 7158 04eb 54       		.byte	0x54
 7159 04ec 00000000 		.4byte	0
 7160 04f0 00000000 		.4byte	0
 7161              	.LLST35:
 7162 04f4 CA000000 		.4byte	.LVL152
 7163 04f8 F0000000 		.4byte	.LVL159
 7164 04fc 0100     		.2byte	0x1
 7165 04fe 55       		.byte	0x55
 7166 04ff 00000000 		.4byte	0
 7167 0503 00000000 		.4byte	0
 7168              	.LLST36:
 7169 0507 D2000000 		.4byte	.LVL153
 7170 050b DB000000 		.4byte	.LVL154-1
 7171 050f 0700     		.2byte	0x7
 7172 0511 74       		.byte	0x74
 7173 0512 00       		.sleb128 0
 7174 0513 32       		.byte	0x32
 7175 0514 24       		.byte	0x24
 7176 0515 75       		.byte	0x75
 7177 0516 00       		.sleb128 0
ARM GAS  C:\Users\JASON\AppData\Local\Temp\cct5bgFA.s 			page 155


 7178 0517 22       		.byte	0x22
 7179 0518 00000000 		.4byte	0
 7180 051c 00000000 		.4byte	0
 7181              	.LLST37:
 7182 0520 86000000 		.4byte	.LVL163
 7183 0524 D8000000 		.4byte	.LVL167
 7184 0528 0200     		.2byte	0x2
 7185 052a 30       		.byte	0x30
 7186 052b 9F       		.byte	0x9f
 7187 052c D8000000 		.4byte	.LVL167
 7188 0530 E6000000 		.4byte	.LVL170
 7189 0534 0100     		.2byte	0x1
 7190 0536 54       		.byte	0x54
 7191 0537 E6000000 		.4byte	.LVL170
 7192 053b E8000000 		.4byte	.LVL171
 7193 053f 0200     		.2byte	0x2
 7194 0541 30       		.byte	0x30
 7195 0542 9F       		.byte	0x9f
 7196 0543 E8000000 		.4byte	.LVL171
 7197 0547 F2000000 		.4byte	.LVL172
 7198 054b 0100     		.2byte	0x1
 7199 054d 54       		.byte	0x54
 7200 054e 00000000 		.4byte	0
 7201 0552 00000000 		.4byte	0
 7202              	.LLST38:
 7203 0556 D0000000 		.4byte	.LVL166
 7204 055a F6000000 		.4byte	.LVL173
 7205 055e 0100     		.2byte	0x1
 7206 0560 55       		.byte	0x55
 7207 0561 00000000 		.4byte	0
 7208 0565 00000000 		.4byte	0
 7209              	.LLST39:
 7210 0569 D8000000 		.4byte	.LVL167
 7211 056d E1000000 		.4byte	.LVL168-1
 7212 0571 0700     		.2byte	0x7
 7213 0573 74       		.byte	0x74
 7214 0574 00       		.sleb128 0
 7215 0575 32       		.byte	0x32
 7216 0576 24       		.byte	0x24
 7217 0577 75       		.byte	0x75
 7218 0578 00       		.sleb128 0
 7219 0579 22       		.byte	0x22
 7220 057a 00000000 		.4byte	0
 7221 057e 00000000 		.4byte	0
 7222              	.LLST40:
 7223 0582 00000000 		.4byte	.LVL174
 7224 0586 0A000000 		.4byte	.LVL176
 7225 058a 0100     		.2byte	0x1
 7226 058c 50       		.byte	0x50
 7227 058d 0A000000 		.4byte	.LVL176
 7228 0591 58010000 		.4byte	.LFE131
 7229 0595 0400     		.2byte	0x4
 7230 0597 F3       		.byte	0xf3
 7231 0598 01       		.uleb128 0x1
 7232 0599 50       		.byte	0x50
 7233 059a 9F       		.byte	0x9f
 7234 059b 00000000 		.4byte	0
ARM GAS  C:\Users\JASON\AppData\Local\Temp\cct5bgFA.s 			page 156


 7235 059f 00000000 		.4byte	0
 7236              	.LLST41:
 7237 05a3 98000000 		.4byte	.LVL182
 7238 05a7 04010000 		.4byte	.LVL191
 7239 05ab 0200     		.2byte	0x2
 7240 05ad 30       		.byte	0x30
 7241 05ae 9F       		.byte	0x9f
 7242 05af 00000000 		.4byte	0
 7243 05b3 00000000 		.4byte	0
 7244              	.LLST42:
 7245 05b7 98000000 		.4byte	.LVL182
 7246 05bb EA000000 		.4byte	.LVL186
 7247 05bf 0200     		.2byte	0x2
 7248 05c1 30       		.byte	0x30
 7249 05c2 9F       		.byte	0x9f
 7250 05c3 EA000000 		.4byte	.LVL186
 7251 05c7 F8000000 		.4byte	.LVL189
 7252 05cb 0100     		.2byte	0x1
 7253 05cd 54       		.byte	0x54
 7254 05ce F8000000 		.4byte	.LVL189
 7255 05d2 FA000000 		.4byte	.LVL190
 7256 05d6 0200     		.2byte	0x2
 7257 05d8 30       		.byte	0x30
 7258 05d9 9F       		.byte	0x9f
 7259 05da FA000000 		.4byte	.LVL190
 7260 05de 04010000 		.4byte	.LVL191
 7261 05e2 0100     		.2byte	0x1
 7262 05e4 54       		.byte	0x54
 7263 05e5 00000000 		.4byte	0
 7264 05e9 00000000 		.4byte	0
 7265              	.LLST43:
 7266 05ed E2000000 		.4byte	.LVL185
 7267 05f1 04010000 		.4byte	.LVL191
 7268 05f5 0100     		.2byte	0x1
 7269 05f7 55       		.byte	0x55
 7270 05f8 00000000 		.4byte	0
 7271 05fc 00000000 		.4byte	0
 7272              	.LLST44:
 7273 0600 EA000000 		.4byte	.LVL186
 7274 0604 F3000000 		.4byte	.LVL187-1
 7275 0608 0700     		.2byte	0x7
 7276 060a 74       		.byte	0x74
 7277 060b 00       		.sleb128 0
 7278 060c 32       		.byte	0x32
 7279 060d 24       		.byte	0x24
 7280 060e 75       		.byte	0x75
 7281 060f 00       		.sleb128 0
 7282 0610 22       		.byte	0x22
 7283 0611 00000000 		.4byte	0
 7284 0615 00000000 		.4byte	0
 7285              	.LLST45:
 7286 0619 00000000 		.4byte	.LVL199
 7287 061d 38000000 		.4byte	.LVL200
 7288 0621 0100     		.2byte	0x1
 7289 0623 50       		.byte	0x50
 7290 0624 38000000 		.4byte	.LVL200
 7291 0628 18010000 		.4byte	.LFE132
ARM GAS  C:\Users\JASON\AppData\Local\Temp\cct5bgFA.s 			page 157


 7292 062c 0400     		.2byte	0x4
 7293 062e F3       		.byte	0xf3
 7294 062f 01       		.uleb128 0x1
 7295 0630 50       		.byte	0x50
 7296 0631 9F       		.byte	0x9f
 7297 0632 00000000 		.4byte	0
 7298 0636 00000000 		.4byte	0
 7299              	.LLST46:
 7300 063a 86000000 		.4byte	.LVL203
 7301 063e DA000000 		.4byte	.LVL207
 7302 0642 0200     		.2byte	0x2
 7303 0644 30       		.byte	0x30
 7304 0645 9F       		.byte	0x9f
 7305 0646 DA000000 		.4byte	.LVL207
 7306 064a E8000000 		.4byte	.LVL210
 7307 064e 0100     		.2byte	0x1
 7308 0650 54       		.byte	0x54
 7309 0651 E8000000 		.4byte	.LVL210
 7310 0655 EA000000 		.4byte	.LVL211
 7311 0659 0200     		.2byte	0x2
 7312 065b 30       		.byte	0x30
 7313 065c 9F       		.byte	0x9f
 7314 065d EA000000 		.4byte	.LVL211
 7315 0661 F4000000 		.4byte	.LVL212
 7316 0665 0100     		.2byte	0x1
 7317 0667 54       		.byte	0x54
 7318 0668 00000000 		.4byte	0
 7319 066c 00000000 		.4byte	0
 7320              	.LLST47:
 7321 0670 D2000000 		.4byte	.LVL206
 7322 0674 F4000000 		.4byte	.LVL212
 7323 0678 0100     		.2byte	0x1
 7324 067a 55       		.byte	0x55
 7325 067b 00000000 		.4byte	0
 7326 067f 00000000 		.4byte	0
 7327              	.LLST48:
 7328 0683 DA000000 		.4byte	.LVL207
 7329 0687 E3000000 		.4byte	.LVL208-1
 7330 068b 0700     		.2byte	0x7
 7331 068d 74       		.byte	0x74
 7332 068e 00       		.sleb128 0
 7333 068f 32       		.byte	0x32
 7334 0690 24       		.byte	0x24
 7335 0691 75       		.byte	0x75
 7336 0692 00       		.sleb128 0
 7337 0693 22       		.byte	0x22
 7338 0694 00000000 		.4byte	0
 7339 0698 00000000 		.4byte	0
 7340              		.section	.debug_aranges,"",%progbits
 7341 0000 C4000000 		.4byte	0xc4
 7342 0004 0200     		.2byte	0x2
 7343 0006 00000000 		.4byte	.Ldebug_info0
 7344 000a 04       		.byte	0x4
 7345 000b 00       		.byte	0
 7346 000c 0000     		.2byte	0
 7347 000e 0000     		.2byte	0
 7348 0010 00000000 		.4byte	.LFB144
ARM GAS  C:\Users\JASON\AppData\Local\Temp\cct5bgFA.s 			page 158


 7349 0014 0C000000 		.4byte	.LFE144-.LFB144
 7350 0018 00000000 		.4byte	.LFB145
 7351 001c 0C000000 		.4byte	.LFE145-.LFB145
 7352 0020 00000000 		.4byte	.LFB149
 7353 0024 0C000000 		.4byte	.LFE149-.LFB149
 7354 0028 00000000 		.4byte	.LFB150
 7355 002c 0C000000 		.4byte	.LFE150-.LFB150
 7356 0030 00000000 		.4byte	.LFB133
 7357 0034 80020000 		.4byte	.LFE133-.LFB133
 7358 0038 00000000 		.4byte	.LFB141
 7359 003c 18000000 		.4byte	.LFE141-.LFB141
 7360 0040 00000000 		.4byte	.LFB135
 7361 0044 18000000 		.4byte	.LFE135-.LFB135
 7362 0048 00000000 		.4byte	.LFB136
 7363 004c 20000000 		.4byte	.LFE136-.LFB136
 7364 0050 00000000 		.4byte	.LFB142
 7365 0054 18000000 		.4byte	.LFE142-.LFB142
 7366 0058 00000000 		.4byte	.LFB138
 7367 005c 18000000 		.4byte	.LFE138-.LFB138
 7368 0060 00000000 		.4byte	.LFB137
 7369 0064 18000000 		.4byte	.LFE137-.LFB137
 7370 0068 00000000 		.4byte	.LFB134
 7371 006c 18000000 		.4byte	.LFE134-.LFB134
 7372 0070 00000000 		.4byte	.LFB151
 7373 0074 6C000000 		.4byte	.LFE151-.LFB151
 7374 0078 00000000 		.4byte	.LFB148
 7375 007c 14010000 		.4byte	.LFE148-.LFB148
 7376 0080 00000000 		.4byte	.LFB147
 7377 0084 CC000000 		.4byte	.LFE147-.LFB147
 7378 0088 00000000 		.4byte	.LFB146
 7379 008c F0000000 		.4byte	.LFE146-.LFB146
 7380 0090 00000000 		.4byte	.LFB139
 7381 0094 74000000 		.4byte	.LFE139-.LFB139
 7382 0098 00000000 		.4byte	.LFB140
 7383 009c 74000000 		.4byte	.LFE140-.LFB140
 7384 00a0 00000000 		.4byte	.LFB143
 7385 00a4 00010000 		.4byte	.LFE143-.LFB143
 7386 00a8 00000000 		.4byte	.LFB152
 7387 00ac 00010000 		.4byte	.LFE152-.LFB152
 7388 00b0 00000000 		.4byte	.LFB131
 7389 00b4 58010000 		.4byte	.LFE131-.LFB131
 7390 00b8 00000000 		.4byte	.LFB132
 7391 00bc 18010000 		.4byte	.LFE132-.LFB132
 7392 00c0 00000000 		.4byte	0
 7393 00c4 00000000 		.4byte	0
 7394              		.section	.debug_ranges,"",%progbits
 7395              	.Ldebug_ranges0:
 7396 0000 00000000 		.4byte	.LFB144
 7397 0004 0C000000 		.4byte	.LFE144
 7398 0008 00000000 		.4byte	.LFB145
 7399 000c 0C000000 		.4byte	.LFE145
 7400 0010 00000000 		.4byte	.LFB149
 7401 0014 0C000000 		.4byte	.LFE149
 7402 0018 00000000 		.4byte	.LFB150
 7403 001c 0C000000 		.4byte	.LFE150
 7404 0020 00000000 		.4byte	.LFB133
 7405 0024 80020000 		.4byte	.LFE133
ARM GAS  C:\Users\JASON\AppData\Local\Temp\cct5bgFA.s 			page 159


 7406 0028 00000000 		.4byte	.LFB141
 7407 002c 18000000 		.4byte	.LFE141
 7408 0030 00000000 		.4byte	.LFB135
 7409 0034 18000000 		.4byte	.LFE135
 7410 0038 00000000 		.4byte	.LFB136
 7411 003c 20000000 		.4byte	.LFE136
 7412 0040 00000000 		.4byte	.LFB142
 7413 0044 18000000 		.4byte	.LFE142
 7414 0048 00000000 		.4byte	.LFB138
 7415 004c 18000000 		.4byte	.LFE138
 7416 0050 00000000 		.4byte	.LFB137
 7417 0054 18000000 		.4byte	.LFE137
 7418 0058 00000000 		.4byte	.LFB134
 7419 005c 18000000 		.4byte	.LFE134
 7420 0060 00000000 		.4byte	.LFB151
 7421 0064 6C000000 		.4byte	.LFE151
 7422 0068 00000000 		.4byte	.LFB148
 7423 006c 14010000 		.4byte	.LFE148
 7424 0070 00000000 		.4byte	.LFB147
 7425 0074 CC000000 		.4byte	.LFE147
 7426 0078 00000000 		.4byte	.LFB146
 7427 007c F0000000 		.4byte	.LFE146
 7428 0080 00000000 		.4byte	.LFB139
 7429 0084 74000000 		.4byte	.LFE139
 7430 0088 00000000 		.4byte	.LFB140
 7431 008c 74000000 		.4byte	.LFE140
 7432 0090 00000000 		.4byte	.LFB143
 7433 0094 00010000 		.4byte	.LFE143
 7434 0098 00000000 		.4byte	.LFB152
 7435 009c 00010000 		.4byte	.LFE152
 7436 00a0 00000000 		.4byte	.LFB131
 7437 00a4 58010000 		.4byte	.LFE131
 7438 00a8 00000000 		.4byte	.LFB132
 7439 00ac 18010000 		.4byte	.LFE132
 7440 00b0 00000000 		.4byte	0
 7441 00b4 00000000 		.4byte	0
 7442              		.section	.debug_line,"",%progbits
 7443              	.Ldebug_line0:
 7444 0000 38070000 		.section	.debug_str,"MS",%progbits,1
 7444      0200C403 
 7444      00000201 
 7444      FB0E0D00 
 7444      01010101 
 7445              	.LASF95:
 7446 0000 45565F4B 		.ascii	"EV_KEYLEFT\000"
 7446      45594C45 
 7446      465400
 7447              	.LASF133:
 7448 000b 434C4F43 		.ascii	"CLOCK_widget_t\000"
 7448      4B5F7769 
 7448      64676574 
 7448      5F7400
 7449              	.LASF112:
 7450 001a 66726F6D 		.ascii	"fromState\000"
 7450      53746174 
 7450      6500
 7451              	.LASF86:
ARM GAS  C:\Users\JASON\AppData\Local\Temp\cct5bgFA.s 			page 160


 7452 0024 5446545F 		.ascii	"TFT_colors_t\000"
 7452      636F6C6F 
 7452      72735F74 
 7452      00
 7453              	.LASF150:
 7454 0031 7265736F 		.ascii	"resource\000"
 7454      75726365 
 7454      00
 7455              	.LASF55:
 7456 003a 52435F45 		.ascii	"RC_ERROR_INVALID_STATE\000"
 7456      52524F52 
 7456      5F494E56 
 7456      414C4944 
 7456      5F535441 
 7457              	.LASF72:
 7458 0051 4D414745 		.ascii	"MAGENTA\000"
 7458      4E544100 
 7459              	.LASF20:
 7460 0059 73697A65 		.ascii	"size_t\000"
 7460      5F7400
 7461              	.LASF189:
 7462 0060 434C4F43 		.ascii	"CLOCK__errorHandler\000"
 7462      4B5F5F65 
 7462      72726F72 
 7462      48616E64 
 7462      6C657200 
 7463              	.LASF168:
 7464 0074 70546173 		.ascii	"pTaskArray\000"
 7464      6B417272 
 7464      617900
 7465              	.LASF70:
 7466 007f 47524544 		.ascii	"GRED\000"
 7466      00
 7467              	.LASF203:
 7468 0084 53544154 		.ascii	"STATE_CLOCK_C_ISDISPLAYING_Transitions\000"
 7468      455F434C 
 7468      4F434B5F 
 7468      435F4953 
 7468      44495350 
 7469              	.LASF93:
 7470 00ab 434C4F43 		.ascii	"CLOCK_State_t\000"
 7470      4B5F5374 
 7470      6174655F 
 7470      7400
 7471              	.LASF90:
 7472 00b9 53544154 		.ascii	"STATE_CLOCK_W_ISDISPLAYING\000"
 7472      455F434C 
 7472      4F434B5F 
 7472      575F4953 
 7472      44495350 
 7473              	.LASF3:
 7474 00d4 5F5F7569 		.ascii	"__uint8_t\000"
 7474      6E74385F 
 7474      7400
 7475              	.LASF58:
 7476 00de 52435F74 		.ascii	"RC_t\000"
 7476      00
ARM GAS  C:\Users\JASON\AppData\Local\Temp\cct5bgFA.s 			page 161


 7477              	.LASF37:
 7478 00e3 52435F45 		.ascii	"RC_ERROR_RANGE\000"
 7478      52524F52 
 7478      5F52414E 
 7478      474500
 7479              	.LASF153:
 7480 00f2 53435F43 		.ascii	"SC_CLOCK_s\000"
 7480      4C4F434B 
 7480      5F7300
 7481              	.LASF107:
 7482 00fd 746F5374 		.ascii	"toState\000"
 7482      61746500 
 7483              	.LASF206:
 7484 0105 434C4F43 		.ascii	"CLOCK_Container_Transitions\000"
 7484      4B5F436F 
 7484      6E746169 
 7484      6E65725F 
 7484      5472616E 
 7485              	.LASF129:
 7486 0121 6D5F7472 		.ascii	"m_transitions\000"
 7486      616E7369 
 7486      74696F6E 
 7486      7300
 7487              	.LASF225:
 7488 012f 45455F6F 		.ascii	"EE_oo_SetEvent\000"
 7488      6F5F5365 
 7488      74457665 
 7488      6E7400
 7489              	.LASF53:
 7490 013e 52435F45 		.ascii	"RC_ERROR_BAD_DATA\000"
 7490      52524F52 
 7490      5F424144 
 7490      5F444154 
 7490      4100
 7491              	.LASF212:
 7492 0150 434C4F43 		.ascii	"CLOCK_Widget_Transitions_Size\000"
 7492      4B5F5769 
 7492      64676574 
 7492      5F547261 
 7492      6E736974 
 7493              	.LASF43:
 7494 016e 52435F45 		.ascii	"RC_ERROR_TIME_OUT\000"
 7494      52524F52 
 7494      5F54494D 
 7494      455F4F55 
 7494      5400
 7495              	.LASF183:
 7496 0180 434C4F43 		.ascii	"CLOCK__dispatch_KR_Hours\000"
 7496      4B5F5F64 
 7496      69737061 
 7496      7463685F 
 7496      4B525F48 
 7497              	.LASF100:
 7498 0199 45565F45 		.ascii	"EV_ERROR\000"
 7498      52524F52 
 7498      00
 7499              	.LASF6:
ARM GAS  C:\Users\JASON\AppData\Local\Temp\cct5bgFA.s 			page 162


 7500 01a2 5F5F696E 		.ascii	"__int32_t\000"
 7500      7433325F 
 7500      7400
 7501              	.LASF122:
 7502 01ac 434C4F43 		.ascii	"CLOCK_HOURWIDGET\000"
 7502      4B5F484F 
 7502      55525749 
 7502      44474554 
 7502      00
 7503              	.LASF149:
 7504 01bd 7265736F 		.ascii	"resourceActive\000"
 7504      75726365 
 7504      41637469 
 7504      766500
 7505              	.LASF220:
 7506 01cc 49544D5F 		.ascii	"ITM_RxBuffer\000"
 7506      52784275 
 7506      66666572 
 7506      00
 7507              	.LASF66:
 7508 01d9 57484954 		.ascii	"WHITE\000"
 7508      4500
 7509              	.LASF207:
 7510 01df 434C4F43 		.ascii	"CLOCK_Container_Transitions_Size\000"
 7510      4B5F436F 
 7510      6E746169 
 7510      6E65725F 
 7510      5472616E 
 7511              	.LASF128:
 7512 0200 6D5F7374 		.ascii	"m_state\000"
 7512      61746500 
 7513              	.LASF62:
 7514 0208 5254455F 		.ascii	"RTE_SIGNALSTATUS_INITIALIZED\000"
 7514      5349474E 
 7514      414C5354 
 7514      41545553 
 7514      5F494E49 
 7515              	.LASF152:
 7516 0225 53435F43 		.ascii	"SC_CLOCK_cfg_s\000"
 7516      4C4F434B 
 7516      5F636667 
 7516      5F7300
 7517              	.LASF190:
 7518 0234 434C4F43 		.ascii	"CLOCK__incrementWidget\000"
 7518      4B5F5F69 
 7518      6E637265 
 7518      6D656E74 
 7518      57696467 
 7519              	.LASF234:
 7520 024b 5446545F 		.ascii	"TFT_setColors\000"
 7520      73657443 
 7520      6F6C6F72 
 7520      7300
 7521              	.LASF0:
 7522 0259 7369676E 		.ascii	"signed char\000"
 7522      65642063 
 7522      68617200 
ARM GAS  C:\Users\JASON\AppData\Local\Temp\cct5bgFA.s 			page 163


 7523              	.LASF182:
 7524 0265 434C4F43 		.ascii	"CLOCK__dispatch_250MS_Hours\000"
 7524      4B5F5F64 
 7524      69737061 
 7524      7463685F 
 7524      3235304D 
 7525              	.LASF233:
 7526 0281 5446545F 		.ascii	"TFT_setBacklight\000"
 7526      73657442 
 7526      61636B6C 
 7526      69676874 
 7526      00
 7527              	.LASF143:
 7528 0292 65764F6E 		.ascii	"evOnUpdate\000"
 7528      55706461 
 7528      746500
 7529              	.LASF113:
 7530 029d 70496E6E 		.ascii	"pInnerTransitionTable\000"
 7530      65725472 
 7530      616E7369 
 7530      74696F6E 
 7530      5461626C 
 7531              	.LASF48:
 7532 02b3 52435F45 		.ascii	"RC_ERROR_INVALID\000"
 7532      52524F52 
 7532      5F494E56 
 7532      414C4944 
 7532      00
 7533              	.LASF208:
 7534 02c4 53544154 		.ascii	"STATE_CLOCK_W_ISDISPLAYING_Transitions\000"
 7534      455F434C 
 7534      4F434B5F 
 7534      575F4953 
 7534      44495350 
 7535              	.LASF200:
 7536 02eb 61736369 		.ascii	"asciiConvert\000"
 7536      69436F6E 
 7536      76657274 
 7536      00
 7537              	.LASF191:
 7538 02f8 434C4F43 		.ascii	"CLOCK__setDisplayFonts\000"
 7538      4B5F5F73 
 7538      65744469 
 7538      73706C61 
 7538      79466F6E 
 7539              	.LASF41:
 7540 030f 52435F45 		.ascii	"RC_ERROR_BUFFER_EMTPY\000"
 7540      52524F52 
 7540      5F425546 
 7540      4645525F 
 7540      454D5450 
 7541              	.LASF117:
 7542 0325 73746174 		.ascii	"state\000"
 7542      6500
 7543              	.LASF105:
 7544 032b 53544154 		.ascii	"STATE_GuardPtr_t\000"
 7544      455F4775 
ARM GAS  C:\Users\JASON\AppData\Local\Temp\cct5bgFA.s 			page 164


 7544      61726450 
 7544      74725F74 
 7544      00
 7545              	.LASF7:
 7546 033c 6C6F6E67 		.ascii	"long int\000"
 7546      20696E74 
 7546      00
 7547              	.LASF205:
 7548 0345 53544154 		.ascii	"STATE_CLOCK_C_ISEDITINGMINUTES_Transitions\000"
 7548      455F434C 
 7548      4F434B5F 
 7548      435F4953 
 7548      45444954 
 7549              	.LASF125:
 7550 0370 666F7265 		.ascii	"foreground\000"
 7550      67726F75 
 7550      6E6400
 7551              	.LASF76:
 7552 037b 42524F57 		.ascii	"BROWN\000"
 7552      4E00
 7553              	.LASF119:
 7554 0381 61637469 		.ascii	"actionExit\000"
 7554      6F6E4578 
 7554      697400
 7555              	.LASF102:
 7556 038c 53544154 		.ascii	"STATE_State_t\000"
 7556      455F5374 
 7556      6174655F 
 7556      7400
 7557              	.LASF75:
 7558 039a 59454C4C 		.ascii	"YELLOW\000"
 7558      4F5700
 7559              	.LASF181:
 7560 03a1 72657375 		.ascii	"result\000"
 7560      6C7400
 7561              	.LASF44:
 7562 03a8 52435F45 		.ascii	"RC_ERROR_OPEN\000"
 7562      52524F52 
 7562      5F4F5045 
 7562      4E00
 7563              	.LASF98:
 7564 03b6 45565F32 		.ascii	"EV_250MS\000"
 7564      35304D53 
 7564      00
 7565              	.LASF18:
 7566 03bf 646F7562 		.ascii	"double\000"
 7566      6C6500
 7567              	.LASF192:
 7568 03c6 666F6E74 		.ascii	"font\000"
 7568      00
 7569              	.LASF131:
 7570 03cb 6D5F7661 		.ascii	"m_value\000"
 7570      6C756500 
 7571              	.LASF63:
 7572 03d3 5254455F 		.ascii	"RTE_SIGNALSTATUS_VALID\000"
 7572      5349474E 
 7572      414C5354 
ARM GAS  C:\Users\JASON\AppData\Local\Temp\cct5bgFA.s 			page 165


 7572      41545553 
 7572      5F56414C 
 7573              	.LASF164:
 7574 03ea 53435F45 		.ascii	"SC_EVENT_s\000"
 7574      56454E54 
 7574      5F7300
 7575              	.LASF165:
 7576 03f5 53435F45 		.ascii	"SC_EVENT_t\000"
 7576      56454E54 
 7576      5F7400
 7577              	.LASF237:
 7578 0400 536F7572 		.ascii	"SourceFiles\\asw\\swc_clock_control.c\000"
 7578      63654669 
 7578      6C65735C 
 7578      6173775C 
 7578      7377635F 
 7579              	.LASF145:
 7580 0424 6F6E5570 		.ascii	"onUpdateTaskCount\000"
 7580      64617465 
 7580      5461736B 
 7580      436F756E 
 7580      7400
 7581              	.LASF218:
 7582 0436 45455F73 		.ascii	"EE_std_endcycle_next_tid\000"
 7582      74645F65 
 7582      6E646379 
 7582      636C655F 
 7582      6E657874 
 7583              	.LASF91:
 7584 044f 53544154 		.ascii	"STATE_CLOCK_W_ISEDITING\000"
 7584      455F434C 
 7584      4F434B5F 
 7584      575F4953 
 7584      45444954 
 7585              	.LASF151:
 7586 0467 53435F43 		.ascii	"SC_CLOCK_cfg_t\000"
 7586      4C4F434B 
 7586      5F636667 
 7586      5F7400
 7587              	.LASF8:
 7588 0476 5F5F7569 		.ascii	"__uint32_t\000"
 7588      6E743332 
 7588      5F7400
 7589              	.LASF77:
 7590 0481 42525245 		.ascii	"BRRED\000"
 7590      4400
 7591              	.LASF223:
 7592 0487 534F5F43 		.ascii	"SO_CLOCK_signal\000"
 7592      4C4F434B 
 7592      5F736967 
 7592      6E616C00 
 7593              	.LASF83:
 7594 0497 4C475241 		.ascii	"LGRAY\000"
 7594      5900
 7595              	.LASF184:
 7596 049d 434C4F43 		.ascii	"CLOCK__dispatch_KL_HoursMin\000"
 7596      4B5F5F64 
ARM GAS  C:\Users\JASON\AppData\Local\Temp\cct5bgFA.s 			page 166


 7596      69737061 
 7596      7463685F 
 7596      4B4C5F48 
 7597              	.LASF78:
 7598 04b9 47524159 		.ascii	"GRAY\000"
 7598      00
 7599              	.LASF96:
 7600 04be 45565F4B 		.ascii	"EV_KEYRIGHT\000"
 7600      45595249 
 7600      47485400 
 7601              	.LASF10:
 7602 04ca 6C6F6E67 		.ascii	"long long int\000"
 7602      206C6F6E 
 7602      6720696E 
 7602      7400
 7603              	.LASF154:
 7604 04d8 76616C75 		.ascii	"value\000"
 7604      6500
 7605              	.LASF228:
 7606 04de 53544154 		.ascii	"STATE_processEvent\000"
 7606      455F7072 
 7606      6F636573 
 7606      73457665 
 7606      6E7400
 7607              	.LASF87:
 7608 04f1 53544154 		.ascii	"STATE_CLOCK_C_ISDISPLAYING\000"
 7608      455F434C 
 7608      4F434B5F 
 7608      435F4953 
 7608      44495350 
 7609              	.LASF99:
 7610 050c 45565F31 		.ascii	"EV_1MIN\000"
 7610      4D494E00 
 7611              	.LASF14:
 7612 0514 75696E74 		.ascii	"uint16_t\000"
 7612      31365F74 
 7612      00
 7613              	.LASF138:
 7614 051d 53435F43 		.ascii	"SC_CLOCK_data_t\000"
 7614      4C4F434B 
 7614      5F646174 
 7614      615F7400 
 7615              	.LASF56:
 7616 052d 52435F45 		.ascii	"RC_ERROR_UNKNOWN\000"
 7616      52524F52 
 7616      5F554E4B 
 7616      4E4F574E 
 7616      00
 7617              	.LASF24:
 7618 053e 45455F55 		.ascii	"EE_UREG\000"
 7618      52454700 
 7619              	.LASF142:
 7620 0546 6F757444 		.ascii	"outDriver\000"
 7620      72697665 
 7620      7200
 7621              	.LASF45:
 7622 0550 52435F45 		.ascii	"RC_ERROR_CHECKSUM\000"
ARM GAS  C:\Users\JASON\AppData\Local\Temp\cct5bgFA.s 			page 167


 7622      52524F52 
 7622      5F434845 
 7622      434B5355 
 7622      4D00
 7623              	.LASF170:
 7624 0562 5254455F 		.ascii	"RTE_SC_CLOCK_set\000"
 7624      53435F43 
 7624      4C4F434B 
 7624      5F736574 
 7624      00
 7625              	.LASF34:
 7626 0573 52435F45 		.ascii	"RC_ERROR_NULL\000"
 7626      52524F52 
 7626      5F4E554C 
 7626      4C00
 7627              	.LASF60:
 7628 0581 5254455F 		.ascii	"RTE_event\000"
 7628      6576656E 
 7628      7400
 7629              	.LASF32:
 7630 058b 52435F53 		.ascii	"RC_SUCCESS\000"
 7630      55434345 
 7630      535300
 7631              	.LASF202:
 7632 0596 434C4F43 		.ascii	"CLOCK_CONTROL_init_run\000"
 7632      4B5F434F 
 7632      4E54524F 
 7632      4C5F696E 
 7632      69745F72 
 7633              	.LASF124:
 7634 05ad 434C4F43 		.ascii	"CLOCK_active_widget_t\000"
 7634      4B5F6163 
 7634      74697665 
 7634      5F776964 
 7634      6765745F 
 7635              	.LASF116:
 7636 05c3 53544154 		.ascii	"STATE_stateOuterTransitionTable_t\000"
 7636      455F7374 
 7636      6174654F 
 7636      75746572 
 7636      5472616E 
 7637              	.LASF71:
 7638 05e5 47424C55 		.ascii	"GBLUE\000"
 7638      4500
 7639              	.LASF11:
 7640 05eb 6C6F6E67 		.ascii	"long long unsigned int\000"
 7640      206C6F6E 
 7640      6720756E 
 7640      7369676E 
 7640      65642069 
 7641              	.LASF106:
 7642 0602 6576656E 		.ascii	"event\000"
 7642      7400
 7643              	.LASF114:
 7644 0608 73697A65 		.ascii	"size\000"
 7644      00
 7645              	.LASF27:
ARM GAS  C:\Users\JASON\AppData\Local\Temp\cct5bgFA.s 			page 168


 7646 060d 5461736B 		.ascii	"TaskType\000"
 7646      54797065 
 7646      00
 7647              	.LASF215:
 7648 0616 45455F6F 		.ascii	"EE_oo_IRQ_disable_count\000"
 7648      6F5F4952 
 7648      515F6469 
 7648      7361626C 
 7648      655F636F 
 7649              	.LASF140:
 7650 062e 53435F43 		.ascii	"SC_CLOCK_driverOut_t\000"
 7650      4C4F434B 
 7650      5F647269 
 7650      7665724F 
 7650      75745F74 
 7651              	.LASF211:
 7652 0643 434C4F43 		.ascii	"CLOCK_Widget_Transitions\000"
 7652      4B5F5769 
 7652      64676574 
 7652      5F547261 
 7652      6E736974 
 7653              	.LASF85:
 7654 065c 4C42424C 		.ascii	"LBBLUE\000"
 7654      554500
 7655              	.LASF40:
 7656 0663 52435F45 		.ascii	"RC_ERROR_BUFFER_FULL\000"
 7656      52524F52 
 7656      5F425546 
 7656      4645525F 
 7656      46554C4C 
 7657              	.LASF118:
 7658 0678 61637469 		.ascii	"actionEntry\000"
 7658      6F6E456E 
 7658      74727900 
 7659              	.LASF84:
 7660 0684 4C475241 		.ascii	"LGRAYBLUE\000"
 7660      59424C55 
 7660      4500
 7661              	.LASF50:
 7662 068e 52435F45 		.ascii	"RC_ERROR_WRITE_FAILS\000"
 7662      52524F52 
 7662      5F575249 
 7662      54455F46 
 7662      41494C53 
 7663              	.LASF171:
 7664 06a3 5254455F 		.ascii	"RTE_SC_CLOCK_get\000"
 7664      53435F43 
 7664      4C4F434B 
 7664      5F676574 
 7664      00
 7665              	.LASF61:
 7666 06b4 5254455F 		.ascii	"RTE_SIGNALSTATUS_STARTUP\000"
 7666      5349474E 
 7666      414C5354 
 7666      41545553 
 7666      5F535441 
 7667              	.LASF194:
ARM GAS  C:\Users\JASON\AppData\Local\Temp\cct5bgFA.s 			page 169


 7668 06cd 61637469 		.ascii	"activeFont\000"
 7668      7665466F 
 7668      6E7400
 7669              	.LASF52:
 7670 06d8 52435F45 		.ascii	"RC_ERROR_BAD_PARAM\000"
 7670      52524F52 
 7670      5F424144 
 7670      5F504152 
 7670      414D00
 7671              	.LASF51:
 7672 06eb 52435F45 		.ascii	"RC_ERROR_NOT_MATCH\000"
 7672      52524F52 
 7672      5F4E4F54 
 7672      5F4D4154 
 7672      434800
 7673              	.LASF239:
 7674 06fe 434C4F43 		.ascii	"CLOCK__dispatch_wrapper\000"
 7674      4B5F5F64 
 7674      69737061 
 7674      7463685F 
 7674      77726170 
 7675              	.LASF198:
 7676 0716 434C4F43 		.ascii	"CLOCK__increment1Minute\000"
 7676      4B5F5F69 
 7676      6E637265 
 7676      6D656E74 
 7676      314D696E 
 7677              	.LASF80:
 7678 072e 4C494748 		.ascii	"LIGHTBLUE\000"
 7678      54424C55 
 7678      4500
 7679              	.LASF156:
 7680 0738 70536967 		.ascii	"pSigCfg\000"
 7680      43666700 
 7681              	.LASF88:
 7682 0740 53544154 		.ascii	"STATE_CLOCK_C_ISEDITINGMINUTES\000"
 7682      455F434C 
 7682      4F434B5F 
 7682      435F4953 
 7682      45444954 
 7683              	.LASF123:
 7684 075f 434C4F43 		.ascii	"CLOCK_MINWIDGET\000"
 7684      4B5F4D49 
 7684      4E574944 
 7684      47455400 
 7685              	.LASF120:
 7686 076f 53544154 		.ascii	"STATE_stateAction_t\000"
 7686      455F7374 
 7686      61746541 
 7686      6374696F 
 7686      6E5F7400 
 7687              	.LASF36:
 7688 0783 52435F45 		.ascii	"RC_ERROR_MEMORY\000"
 7688      52524F52 
 7688      5F4D454D 
 7688      4F525900 
 7689              	.LASF162:
ARM GAS  C:\Users\JASON\AppData\Local\Temp\cct5bgFA.s 			page 170


 7690 0793 53435F45 		.ascii	"SC_EVENT_cfg_s\000"
 7690      56454E54 
 7690      5F636667 
 7690      5F7300
 7691              	.LASF163:
 7692 07a2 53435F45 		.ascii	"SC_EVENT_cfg_t\000"
 7692      56454E54 
 7692      5F636667 
 7692      5F7400
 7693              	.LASF101:
 7694 07b1 4556454E 		.ascii	"EVENT_t\000"
 7694      545F7400 
 7695              	.LASF30:
 7696 07b9 73697A65 		.ascii	"sizetype\000"
 7696      74797065 
 7696      00
 7697              	.LASF64:
 7698 07c2 5254455F 		.ascii	"RTE_SIGNALSTATUS_INVALID\000"
 7698      5349474E 
 7698      414C5354 
 7698      41545553 
 7698      5F494E56 
 7699              	.LASF185:
 7700 07db 434C4F43 		.ascii	"CLOCK__dispatch_250MS_Min\000"
 7700      4B5F5F64 
 7700      69737061 
 7700      7463685F 
 7700      3235304D 
 7701              	.LASF21:
 7702 07f5 6C6F6E67 		.ascii	"long double\000"
 7702      20646F75 
 7702      626C6500 
 7703              	.LASF31:
 7704 0801 626F6F6C 		.ascii	"boolean_t\000"
 7704      65616E5F 
 7704      7400
 7705              	.LASF110:
 7706 080b 53544154 		.ascii	"STATE_stateInnerTransition_t\000"
 7706      455F7374 
 7706      61746549 
 7706      6E6E6572 
 7706      5472616E 
 7707              	.LASF227:
 7708 0828 45455F6F 		.ascii	"EE_oo_ReleaseResource\000"
 7708      6F5F5265 
 7708      6C656173 
 7708      65526573 
 7708      6F757263 
 7709              	.LASF216:
 7710 083e 45455F6F 		.ascii	"EE_oo_IRQ_suspend_status\000"
 7710      6F5F4952 
 7710      515F7375 
 7710      7370656E 
 7710      645F7374 
 7711              	.LASF222:
 7712 0857 6175746F 		.ascii	"autoIncrement_st\000"
 7712      496E6372 
ARM GAS  C:\Users\JASON\AppData\Local\Temp\cct5bgFA.s 			page 171


 7712      656D656E 
 7712      745F7374 
 7712      00
 7713              	.LASF186:
 7714 0868 434C4F43 		.ascii	"CLOCK__dispatch_KR_Min\000"
 7714      4B5F5F64 
 7714      69737061 
 7714      7463685F 
 7714      4B525F4D 
 7715              	.LASF115:
 7716 087f 53544154 		.ascii	"STATE_stateOuterTransition_t\000"
 7716      455F7374 
 7716      6174654F 
 7716      75746572 
 7716      5472616E 
 7717              	.LASF217:
 7718 089c 45455F41 		.ascii	"EE_ApplicationMode\000"
 7718      70706C69 
 7718      63617469 
 7718      6F6E4D6F 
 7718      646500
 7719              	.LASF54:
 7720 08af 52435F45 		.ascii	"RC_ERROR_CANCELED\000"
 7720      52524F52 
 7720      5F43414E 
 7720      43454C45 
 7720      4400
 7721              	.LASF238:
 7722 08c1 433A5C4A 		.ascii	"C:\\Jason\\EIT\\Semester_02\\01_EAA\\Lab\\Assignmen"
 7722      61736F6E 
 7722      5C454954 
 7722      5C53656D 
 7722      65737465 
 7723 08ee 745F325C 		.ascii	"t_2\\ElectronicClock\\ElectronicClock.cydsn\000"
 7723      456C6563 
 7723      74726F6E 
 7723      6963436C 
 7723      6F636B5C 
 7724              	.LASF39:
 7725 0918 52435F45 		.ascii	"RC_ERROR_UNDERRUN\000"
 7725      52524F52 
 7725      5F554E44 
 7725      45525255 
 7725      4E00
 7726              	.LASF49:
 7727 092a 52435F45 		.ascii	"RC_ERROR_READ_FAILS\000"
 7727      52524F52 
 7727      5F524541 
 7727      445F4641 
 7727      494C5300 
 7728              	.LASF204:
 7729 093e 53544154 		.ascii	"STATE_CLOCK_C_ISEDITINGHOURS_Transitions\000"
 7729      455F434C 
 7729      4F434B5F 
 7729      435F4953 
 7729      45444954 
 7730              	.LASF26:
ARM GAS  C:\Users\JASON\AppData\Local\Temp\cct5bgFA.s 			page 172


 7731 0967 45455F54 		.ascii	"EE_TID\000"
 7731      494400
 7732              	.LASF79:
 7733 096e 4441524B 		.ascii	"DARKBLUE\000"
 7733      424C5545 
 7733      00
 7734              	.LASF141:
 7735 0977 696E4472 		.ascii	"inDriver\000"
 7735      69766572 
 7735      00
 7736              	.LASF33:
 7737 0980 52435F45 		.ascii	"RC_ERROR\000"
 7737      52524F52 
 7737      00
 7738              	.LASF69:
 7739 0989 42524544 		.ascii	"BRED\000"
 7739      00
 7740              	.LASF17:
 7741 098e 666C6F61 		.ascii	"float\000"
 7741      7400
 7742              	.LASF172:
 7743 0994 5254455F 		.ascii	"RTE_SC_EVENT_set\000"
 7743      53435F45 
 7743      56454E54 
 7743      5F736574 
 7743      00
 7744              	.LASF175:
 7745 09a5 434C4F43 		.ascii	"CLOCK_resetIncrement1Min\000"
 7745      4B5F7265 
 7745      73657449 
 7745      6E637265 
 7745      6D656E74 
 7746              	.LASF210:
 7747 09be 53544154 		.ascii	"STATE_CLOCK_W_ISAUTOINCREMENT_Transitions\000"
 7747      455F434C 
 7747      4F434B5F 
 7747      575F4953 
 7747      4155544F 
 7748              	.LASF42:
 7749 09e8 52435F45 		.ascii	"RC_ERROR_BUSY\000"
 7749      52524F52 
 7749      5F425553 
 7749      5900
 7750              	.LASF235:
 7751 09f6 5446545F 		.ascii	"TFT_setTextSize\000"
 7751      73657454 
 7751      65787453 
 7751      697A6500 
 7752              	.LASF147:
 7753 0a06 6F6E4572 		.ascii	"onErrorTaskCount\000"
 7753      726F7254 
 7753      61736B43 
 7753      6F756E74 
 7753      00
 7754              	.LASF130:
 7755 0a17 6D5F7374 		.ascii	"m_stateActions\000"
 7755      61746541 
ARM GAS  C:\Users\JASON\AppData\Local\Temp\cct5bgFA.s 			page 173


 7755      6374696F 
 7755      6E7300
 7756              	.LASF15:
 7757 0a26 696E7433 		.ascii	"int32_t\000"
 7757      325F7400 
 7758              	.LASF1:
 7759 0a2e 756E7369 		.ascii	"unsigned char\000"
 7759      676E6564 
 7759      20636861 
 7759      7200
 7760              	.LASF213:
 7761 0a3c 434C4F43 		.ascii	"CLOCK_StateActions\000"
 7761      4B5F5374 
 7761      61746541 
 7761      6374696F 
 7761      6E7300
 7762              	.LASF111:
 7763 0a4f 53544154 		.ascii	"STATE_stateInnerTransitionTable_t\000"
 7763      455F7374 
 7763      61746549 
 7763      6E6E6572 
 7763      5472616E 
 7764              	.LASF209:
 7765 0a71 53544154 		.ascii	"STATE_CLOCK_W_ISEDITING_Transitions\000"
 7765      455F434C 
 7765      4F434B5F 
 7765      575F4953 
 7765      45444954 
 7766              	.LASF2:
 7767 0a95 73686F72 		.ascii	"short int\000"
 7767      7420696E 
 7767      7400
 7768              	.LASF178:
 7769 0a9f 77696467 		.ascii	"widget\000"
 7769      657400
 7770              	.LASF146:
 7771 0aa6 6F6E5570 		.ascii	"onUpdateTasks\000"
 7771      64617465 
 7771      5461736B 
 7771      7300
 7772              	.LASF35:
 7773 0ab4 52435F45 		.ascii	"RC_ERROR_ZERO\000"
 7773      52524F52 
 7773      5F5A4552 
 7773      4F00
 7774              	.LASF236:
 7775 0ac2 474E5520 		.ascii	"GNU C11 5.4.1 20160609 (release) [ARM/embedded-5-br"
 7775      43313120 
 7775      352E342E 
 7775      31203230 
 7775      31363036 
 7776 0af5 616E6368 		.ascii	"anch revision 237715] -mcpu=cortex-m3 -mthumb -g -O"
 7776      20726576 
 7776      6973696F 
 7776      6E203233 
 7776      37373135 
 7777 0b28 67202D66 		.ascii	"g -ffunction-sections -ffat-lto-objects\000"
ARM GAS  C:\Users\JASON\AppData\Local\Temp\cct5bgFA.s 			page 174


 7777      66756E63 
 7777      74696F6E 
 7777      2D736563 
 7777      74696F6E 
 7778              	.LASF144:
 7779 0b50 65764F6E 		.ascii	"evOnError\000"
 7779      4572726F 
 7779      7200
 7780              	.LASF74:
 7781 0b5a 4359414E 		.ascii	"CYAN\000"
 7781      00
 7782              	.LASF188:
 7783 0b5f 434C4F43 		.ascii	"CLOCK__dispatch_KL_Hours\000"
 7783      4B5F5F64 
 7783      69737061 
 7783      7463685F 
 7783      4B4C5F48 
 7784              	.LASF89:
 7785 0b78 53544154 		.ascii	"STATE_CLOCK_C_ISEDITINGHOURS\000"
 7785      455F434C 
 7785      4F434B5F 
 7785      435F4953 
 7785      45444954 
 7786              	.LASF160:
 7787 0b95 53435F45 		.ascii	"SC_EVENT_driverIn_t\000"
 7787      56454E54 
 7787      5F647269 
 7787      76657249 
 7787      6E5F7400 
 7788              	.LASF121:
 7789 0ba9 434C4F43 		.ascii	"CLOCK_NONE\000"
 7789      4B5F4E4F 
 7789      4E4500
 7790              	.LASF103:
 7791 0bb4 53544154 		.ascii	"STATE_Event_t\000"
 7791      455F4576 
 7791      656E745F 
 7791      7400
 7792              	.LASF139:
 7793 0bc2 53435F43 		.ascii	"SC_CLOCK_driverIn_t\000"
 7793      4C4F434B 
 7793      5F647269 
 7793      76657249 
 7793      6E5F7400 
 7794              	.LASF16:
 7795 0bd6 75696E74 		.ascii	"uint32_t\000"
 7795      33325F74 
 7795      00
 7796              	.LASF232:
 7797 0bdf 53544154 		.ascii	"STATE_initState\000"
 7797      455F696E 
 7797      69745374 
 7797      61746500 
 7798              	.LASF166:
 7799 0bef 7369676E 		.ascii	"signal\000"
 7799      616C00
 7800              	.LASF46:
ARM GAS  C:\Users\JASON\AppData\Local\Temp\cct5bgFA.s 			page 175


 7801 0bf6 52435F45 		.ascii	"RC_ERROR_READ_ONLY\000"
 7801      52524F52 
 7801      5F524541 
 7801      445F4F4E 
 7801      4C5900
 7802              	.LASF9:
 7803 0c09 6C6F6E67 		.ascii	"long unsigned int\000"
 7803      20756E73 
 7803      69676E65 
 7803      6420696E 
 7803      7400
 7804              	.LASF231:
 7805 0c1b 55415254 		.ascii	"UART_LOG_PutChar\000"
 7805      5F4C4F47 
 7805      5F507574 
 7805      43686172 
 7805      00
 7806              	.LASF187:
 7807 0c2c 434C4F43 		.ascii	"CLOCK__dispatch_KL_Min\000"
 7807      4B5F5F64 
 7807      69737061 
 7807      7463685F 
 7807      4B4C5F4D 
 7808              	.LASF19:
 7809 0c43 63686172 		.ascii	"char\000"
 7809      00
 7810              	.LASF173:
 7811 0c48 5254455F 		.ascii	"RTE_SC_EVENT_get\000"
 7811      53435F45 
 7811      56454E54 
 7811      5F676574 
 7811      00
 7812              	.LASF67:
 7813 0c59 424C4143 		.ascii	"BLACK\000"
 7813      4B00
 7814              	.LASF12:
 7815 0c5f 756E7369 		.ascii	"unsigned int\000"
 7815      676E6564 
 7815      20696E74 
 7815      00
 7816              	.LASF132:
 7817 0c6c 6D5F666F 		.ascii	"m_font\000"
 7817      6E7400
 7818              	.LASF4:
 7819 0c73 5F5F7569 		.ascii	"__uint16_t\000"
 7819      6E743136 
 7819      5F7400
 7820              	.LASF68:
 7821 0c7e 424C5545 		.ascii	"BLUE\000"
 7821      00
 7822              	.LASF199:
 7823 0c83 434C4F43 		.ascii	"CLOCK__errorHandlerRoutine\000"
 7823      4B5F5F65 
 7823      72726F72 
 7823      48616E64 
 7823      6C657252 
 7824              	.LASF230:
ARM GAS  C:\Users\JASON\AppData\Local\Temp\cct5bgFA.s 			page 176


 7825 0c9e 696E7454 		.ascii	"intToASCII\000"
 7825      6F415343 
 7825      494900
 7826              	.LASF135:
 7827 0ca9 6D5F6163 		.ascii	"m_activeWidget\000"
 7827      74697665 
 7827      57696467 
 7827      657400
 7828              	.LASF73:
 7829 0cb8 47524545 		.ascii	"GREEN\000"
 7829      4E00
 7830              	.LASF197:
 7831 0cbe 434C4F43 		.ascii	"CLOCK__dispatch_KRLP_Min\000"
 7831      4B5F5F64 
 7831      69737061 
 7831      7463685F 
 7831      4B524C50 
 7832              	.LASF57:
 7833 0cd7 52435F45 		.ascii	"RC_ERROR_NOT_IMPLEMENTED\000"
 7833      52524F52 
 7833      5F4E4F54 
 7833      5F494D50 
 7833      4C454D45 
 7834              	.LASF28:
 7835 0cf0 5265736F 		.ascii	"ResourceType\000"
 7835      75726365 
 7835      54797065 
 7835      00
 7836              	.LASF38:
 7837 0cfd 52435F45 		.ascii	"RC_ERROR_OVERRUN\000"
 7837      52524F52 
 7837      5F4F5645 
 7837      5252554E 
 7837      00
 7838              	.LASF169:
 7839 0d0e 7461736B 		.ascii	"task\000"
 7839      00
 7840              	.LASF82:
 7841 0d13 4C494748 		.ascii	"LIGHTGREEN\000"
 7841      54475245 
 7841      454E00
 7842              	.LASF65:
 7843 0d1e 5254455F 		.ascii	"RTE_signalStatus_t\000"
 7843      7369676E 
 7843      616C5374 
 7843      61747573 
 7843      5F7400
 7844              	.LASF158:
 7845 0d31 6D5F6576 		.ascii	"m_ev\000"
 7845      00
 7846              	.LASF195:
 7847 0d36 696E6163 		.ascii	"inactiveFont\000"
 7847      74697665 
 7847      466F6E74 
 7847      00
 7848              	.LASF5:
 7849 0d43 73686F72 		.ascii	"short unsigned int\000"
ARM GAS  C:\Users\JASON\AppData\Local\Temp\cct5bgFA.s 			page 177


 7849      7420756E 
 7849      7369676E 
 7849      65642069 
 7849      6E7400
 7850              	.LASF221:
 7851 0d56 696E6372 		.ascii	"increment1Min_st\000"
 7851      656D656E 
 7851      74314D69 
 7851      6E5F7374 
 7851      00
 7852              	.LASF59:
 7853 0d67 5461736B 		.ascii	"TaskTypeArray\000"
 7853      54797065 
 7853      41727261 
 7853      7900
 7854              	.LASF109:
 7855 0d75 61637469 		.ascii	"actionTransition\000"
 7855      6F6E5472 
 7855      616E7369 
 7855      74696F6E 
 7855      00
 7856              	.LASF167:
 7857 0d86 7461736B 		.ascii	"taskNum\000"
 7857      4E756D00 
 7858              	.LASF92:
 7859 0d8e 53544154 		.ascii	"STATE_CLOCK_W_ISAUTOINCREMENT\000"
 7859      455F434C 
 7859      4F434B5F 
 7859      575F4953 
 7859      4155544F 
 7860              	.LASF193:
 7861 0dac 434C4F43 		.ascii	"CLOCK__setEditFonts\000"
 7861      4B5F5F73 
 7861      65744564 
 7861      6974466F 
 7861      6E747300 
 7862              	.LASF137:
 7863 0dc0 6D5F6D69 		.ascii	"m_minutes\000"
 7863      6E757465 
 7863      7300
 7864              	.LASF229:
 7865 0dca 55415254 		.ascii	"UART_LOG_PutString\000"
 7865      5F4C4F47 
 7865      5F507574 
 7865      53747269 
 7865      6E6700
 7866              	.LASF226:
 7867 0ddd 45455F6F 		.ascii	"EE_oo_GetResource\000"
 7867      6F5F4765 
 7867      74526573 
 7867      6F757263 
 7867      6500
 7868              	.LASF155:
 7869 0def 73746174 		.ascii	"status\000"
 7869      757300
 7870              	.LASF94:
 7871 0df6 45565F4E 		.ascii	"EV_NONE\000"
ARM GAS  C:\Users\JASON\AppData\Local\Temp\cct5bgFA.s 			page 178


 7871      4F4E4500 
 7872              	.LASF219:
 7873 0dfe 45455F49 		.ascii	"EE_IRQ_nesting_level\000"
 7873      52515F6E 
 7873      65737469 
 7873      6E675F6C 
 7873      6576656C 
 7874              	.LASF23:
 7875 0e13 45455F55 		.ascii	"EE_UINT32\000"
 7875      494E5433 
 7875      3200
 7876              	.LASF224:
 7877 0e1d 534F5F45 		.ascii	"SO_EVENT_signal\000"
 7877      56454E54 
 7877      5F736967 
 7877      6E616C00 
 7878              	.LASF22:
 7879 0e2d 45455F49 		.ascii	"EE_INT32\000"
 7879      4E543332 
 7879      00
 7880              	.LASF13:
 7881 0e36 75696E74 		.ascii	"uint8_t\000"
 7881      385F7400 
 7882              	.LASF47:
 7883 0e3e 52435F45 		.ascii	"RC_ERROR_WRITE_ONLY\000"
 7883      52524F52 
 7883      5F575249 
 7883      54455F4F 
 7883      4E4C5900 
 7884              	.LASF136:
 7885 0e52 6D5F686F 		.ascii	"m_hours\000"
 7885      75727300 
 7886              	.LASF134:
 7887 0e5a 6D5F636F 		.ascii	"m_containerState\000"
 7887      6E746169 
 7887      6E657253 
 7887      74617465 
 7887      00
 7888              	.LASF174:
 7889 0e6b 434C4F43 		.ascii	"CLOCK_setIncrement1Min\000"
 7889      4B5F7365 
 7889      74496E63 
 7889      72656D65 
 7889      6E74314D 
 7890              	.LASF161:
 7891 0e82 53435F45 		.ascii	"SC_EVENT_driverOut_t\000"
 7891      56454E54 
 7891      5F647269 
 7891      7665724F 
 7891      75745F74 
 7892              	.LASF157:
 7893 0e97 53435F43 		.ascii	"SC_CLOCK_t\000"
 7893      4C4F434B 
 7893      5F7400
 7894              	.LASF97:
 7895 0ea2 45565F4B 		.ascii	"EV_KEYRIGHTLONGPRESS\000"
 7895      45595249 
ARM GAS  C:\Users\JASON\AppData\Local\Temp\cct5bgFA.s 			page 179


 7895      4748544C 
 7895      4F4E4750 
 7895      52455353 
 7896              	.LASF180:
 7897 0eb7 6C6F6361 		.ascii	"localState\000"
 7897      6C537461 
 7897      746500
 7898              	.LASF159:
 7899 0ec2 53435F45 		.ascii	"SC_EVENT_data_t\000"
 7899      56454E54 
 7899      5F646174 
 7899      615F7400 
 7900              	.LASF81:
 7901 0ed2 47524159 		.ascii	"GRAYBLUE\000"
 7901      424C5545 
 7901      00
 7902              	.LASF127:
 7903 0edb 434C4F43 		.ascii	"CLOCK_font_t\000"
 7903      4B5F666F 
 7903      6E745F74 
 7903      00
 7904              	.LASF179:
 7905 0ee8 636C6F63 		.ascii	"clock\000"
 7905      6B00
 7906              	.LASF177:
 7907 0eee 434C4F43 		.ascii	"CLOCK_resetAutoIncrement\000"
 7907      4B5F7265 
 7907      73657441 
 7907      75746F49 
 7907      6E637265 
 7908              	.LASF108:
 7909 0f07 67756172 		.ascii	"guard\000"
 7909      6400
 7910              	.LASF29:
 7911 0f0d 4576656E 		.ascii	"EventMaskType\000"
 7911      744D6173 
 7911      6B547970 
 7911      6500
 7912              	.LASF201:
 7913 0f1b 434C4F43 		.ascii	"CLOCK_CONTROL__run\000"
 7913      4B5F434F 
 7913      4E54524F 
 7913      4C5F5F72 
 7913      756E00
 7914              	.LASF126:
 7915 0f2e 6261636B 		.ascii	"background\000"
 7915      67726F75 
 7915      6E6400
 7916              	.LASF196:
 7917 0f39 434C4F43 		.ascii	"CLOCK__dispatch_KRLP_Hours\000"
 7917      4B5F5F64 
 7917      69737061 
 7917      7463685F 
 7917      4B524C50 
 7918              	.LASF148:
 7919 0f54 6F6E4572 		.ascii	"onErrorTasks\000"
 7919      726F7254 
ARM GAS  C:\Users\JASON\AppData\Local\Temp\cct5bgFA.s 			page 180


 7919      61736B73 
 7919      00
 7920              	.LASF176:
 7921 0f61 434C4F43 		.ascii	"CLOCK_setAutoIncrement\000"
 7921      4B5F7365 
 7921      74417574 
 7921      6F496E63 
 7921      72656D65 
 7922              	.LASF104:
 7923 0f78 53544154 		.ascii	"STATE_ActionPtr_t\000"
 7923      455F4163 
 7923      74696F6E 
 7923      5074725F 
 7923      7400
 7924              	.LASF214:
 7925 0f8a 434C4F43 		.ascii	"CLOCK_StateActions_size\000"
 7925      4B5F5374 
 7925      61746541 
 7925      6374696F 
 7925      6E735F73 
 7926              	.LASF25:
 7927 0fa2 45455F46 		.ascii	"EE_FREG\000"
 7927      52454700 
 7928              		.ident	"GCC: (GNU Tools for ARM Embedded Processors) 5.4.1 20160609 (release) [ARM/embedded-5-bran
