ARM GAS  C:\Users\JASON\AppData\Local\Temp\cct5bgFA.s 			page 1


   1              		.syntax unified
   2              		.cpu cortex-m3
   3              		.fpu softvfp
   4              		.eabi_attribute 20, 1
   5              		.eabi_attribute 21, 1
   6              		.eabi_attribute 23, 3
   7              		.eabi_attribute 24, 1
   8              		.eabi_attribute 25, 1
   9              		.eabi_attribute 26, 1
  10              		.eabi_attribute 30, 1
  11              		.eabi_attribute 34, 1
  12              		.eabi_attribute 18, 4
  13              		.thumb
  14              		.syntax unified
  15              		.file	"swc_clock_control.c"
  16              		.text
  17              	.Ltext0:
  18              		.cfi_sections	.debug_frame
  19              		.section	.text.CLOCK_setIncrement1Min,"ax",%progbits
  20              		.align	2
  21              		.thumb
  22              		.thumb_func
  23              		.type	CLOCK_setIncrement1Min, %function
  24              	CLOCK_setIncrement1Min:
  25              	.LFB144:
  26              		.file 1 "SourceFiles\\asw\\swc_clock_control.c"
   1:SourceFiles\asw/swc_clock_control.c **** 
   2:SourceFiles\asw/swc_clock_control.c **** 
   3:SourceFiles\asw/swc_clock_control.c **** /*
   4:SourceFiles\asw/swc_clock_control.c ****  * Filename: swc_clock_control.c
   5:SourceFiles\asw/swc_clock_control.c ****  *
   6:SourceFiles\asw/swc_clock_control.c ****  * Author: Autogenerated by H-DA RTE Generator, (c) Prof. Fromm
   7:SourceFiles\asw/swc_clock_control.c ****  */
   8:SourceFiles\asw/swc_clock_control.c **** 
   9:SourceFiles\asw/swc_clock_control.c **** #include "project.h"
  10:SourceFiles\asw/swc_clock_control.c **** #include "global.h"
  11:SourceFiles\asw/swc_clock_control.c **** #include "rte.h"
  12:SourceFiles\asw/swc_clock_control.c **** #include "rte_types.h"
  13:SourceFiles\asw/swc_clock_control.c **** #include "swc_clock_control.h"
  14:SourceFiles\asw/swc_clock_control.c **** 
  15:SourceFiles\asw/swc_clock_control.c **** 
  16:SourceFiles\asw/swc_clock_control.c **** 
  17:SourceFiles\asw/swc_clock_control.c **** /* USER CODE START SWC_CLOCK_CONTROL_INCLUDE */
  18:SourceFiles\asw/swc_clock_control.c **** #include "tft.h"
  19:SourceFiles\asw/swc_clock_control.c **** #include "common.h"
  20:SourceFiles\asw/swc_clock_control.c **** #include "intToASCII.h"
  21:SourceFiles\asw/swc_clock_control.c **** #include "clock_statemachine.h"
  22:SourceFiles\asw/swc_clock_control.c **** #include "sc_clock.h"
  23:SourceFiles\asw/swc_clock_control.c **** #include "sc_event.h"
  24:SourceFiles\asw/swc_clock_control.c **** /* USER CODE END SWC_CLOCK_CONTROL_INCLUDE */
  25:SourceFiles\asw/swc_clock_control.c **** 
  26:SourceFiles\asw/swc_clock_control.c **** 
  27:SourceFiles\asw/swc_clock_control.c **** #include "sp_common.h"
  28:SourceFiles\asw/swc_clock_control.c **** 
  29:SourceFiles\asw/swc_clock_control.c **** /* USER CODE START SWC_CLOCK_CONTROL_USERDEFINITIONS */
  30:SourceFiles\asw/swc_clock_control.c **** // Global variable. Flag variable that is set only when the machine is in ISDISPLAY Container state
  31:SourceFiles\asw/swc_clock_control.c **** boolean_t increment1Min_st = FALSE;
ARM GAS  C:\Users\JASON\AppData\Local\Temp\cct5bgFA.s 			page 2


  32:SourceFiles\asw/swc_clock_control.c **** // Global variable. Flag variable that is set only when the machine is in ISAUTOINCREMENT Widget st
  33:SourceFiles\asw/swc_clock_control.c **** boolean_t autoIncrement_st = FALSE;
  34:SourceFiles\asw/swc_clock_control.c **** 
  35:SourceFiles\asw/swc_clock_control.c **** // Macros to set and reset flags
  36:SourceFiles\asw/swc_clock_control.c **** #define SETFLAG(x)      (x = TRUE)
  37:SourceFiles\asw/swc_clock_control.c **** #define RESETFLAG(x)    (x = FALSE)
  38:SourceFiles\asw/swc_clock_control.c **** 
  39:SourceFiles\asw/swc_clock_control.c **** /**
  40:SourceFiles\asw/swc_clock_control.c ****  * @brief General dispatcher to save the clock states.
  41:SourceFiles\asw/swc_clock_control.c ****  * @brief STATE_Event_t ev              :   Event that occured in the container that must be
  42:SourceFiles\asw/swc_clock_control.c ****                                             parsed to the widget.
  43:SourceFiles\asw/swc_clock_control.c ****  * @brief CLOCK_active_widget_t widget  :   Current active widget, based on whether the 
  44:SourceFiles\asw/swc_clock_control.c ****                                             container is in editing mode for hours or minutes.
  45:SourceFiles\asw/swc_clock_control.c ****  */
  46:SourceFiles\asw/swc_clock_control.c **** static void CLOCK__dispatch_wrapper(    STATE_Event_t ev,
  47:SourceFiles\asw/swc_clock_control.c ****                                         CLOCK_active_widget_t widget);
  48:SourceFiles\asw/swc_clock_control.c **** 
  49:SourceFiles\asw/swc_clock_control.c **** /**
  50:SourceFiles\asw/swc_clock_control.c ****  * @brief Dispatcher when left key is pressed in ISDISPLAYING container state.
  51:SourceFiles\asw/swc_clock_control.c ****  */
  52:SourceFiles\asw/swc_clock_control.c **** static void CLOCK__dispatch_KL_Hours();
  53:SourceFiles\asw/swc_clock_control.c **** /**
  54:SourceFiles\asw/swc_clock_control.c ****  * @brief Dispatcher when right key is pressed in ISEDITINGHOURS container state.
  55:SourceFiles\asw/swc_clock_control.c ****  */
  56:SourceFiles\asw/swc_clock_control.c **** static void CLOCK__dispatch_KR_Hours();
  57:SourceFiles\asw/swc_clock_control.c **** /**
  58:SourceFiles\asw/swc_clock_control.c ****  * @brief Dispatcher when left key is pressed in ISEDITINGHOURS container state.
  59:SourceFiles\asw/swc_clock_control.c ****  */
  60:SourceFiles\asw/swc_clock_control.c **** static void CLOCK__dispatch_KL_HoursMin();
  61:SourceFiles\asw/swc_clock_control.c **** /**
  62:SourceFiles\asw/swc_clock_control.c ****  * @brief Dispatcher when left key is pressed in ISEDITINGMINUTES container state.
  63:SourceFiles\asw/swc_clock_control.c ****  */
  64:SourceFiles\asw/swc_clock_control.c **** static void CLOCK__dispatch_KL_Min();
  65:SourceFiles\asw/swc_clock_control.c **** /**
  66:SourceFiles\asw/swc_clock_control.c ****  * @brief Dispatcher when right key is pressed in ISEDITINGMINUTES container state.
  67:SourceFiles\asw/swc_clock_control.c ****  */
  68:SourceFiles\asw/swc_clock_control.c **** static void CLOCK__dispatch_KR_Min();
  69:SourceFiles\asw/swc_clock_control.c **** /**
  70:SourceFiles\asw/swc_clock_control.c ****  * @brief Dispatcher when long press of right key occurs in ISEDITINGHOURS container state.
  71:SourceFiles\asw/swc_clock_control.c ****  */
  72:SourceFiles\asw/swc_clock_control.c **** static void CLOCK__dispatch_KRLP_Hours();
  73:SourceFiles\asw/swc_clock_control.c **** /**
  74:SourceFiles\asw/swc_clock_control.c ****  * @brief Dispatcher when long press of right key occurs in ISEDITINGMINUTES container state.
  75:SourceFiles\asw/swc_clock_control.c ****  */
  76:SourceFiles\asw/swc_clock_control.c **** static void CLOCK__dispatch_KRLP_Min();
  77:SourceFiles\asw/swc_clock_control.c **** /**
  78:SourceFiles\asw/swc_clock_control.c ****  * @brief Dispatcher for auto increment event of 250ms in ISEDITINGHOURS container state.
  79:SourceFiles\asw/swc_clock_control.c ****  */
  80:SourceFiles\asw/swc_clock_control.c **** static void CLOCK__dispatch_250MS_Hours();
  81:SourceFiles\asw/swc_clock_control.c **** /**
  82:SourceFiles\asw/swc_clock_control.c ****  * @brief Dispatcher for auto increment event of 250ms in ISEDITINGMINUTES container state.
  83:SourceFiles\asw/swc_clock_control.c ****  */
  84:SourceFiles\asw/swc_clock_control.c **** static void CLOCK__dispatch_250MS_Min();
  85:SourceFiles\asw/swc_clock_control.c **** /**
  86:SourceFiles\asw/swc_clock_control.c ****  * @brief Dispatcher for 1 minute increment in ISDISPLAYING container state.
  87:SourceFiles\asw/swc_clock_control.c ****  */
  88:SourceFiles\asw/swc_clock_control.c **** static void CLOCK__increment1Minute();
ARM GAS  C:\Users\JASON\AppData\Local\Temp\cct5bgFA.s 			page 3


  89:SourceFiles\asw/swc_clock_control.c **** /**
  90:SourceFiles\asw/swc_clock_control.c ****  * @brief Entry function to ISDISPLAYING container state to set flag for increment at every 1 minut
  91:SourceFiles\asw/swc_clock_control.c ****  */
  92:SourceFiles\asw/swc_clock_control.c **** static void CLOCK_setIncrement1Min();
  93:SourceFiles\asw/swc_clock_control.c **** /**
  94:SourceFiles\asw/swc_clock_control.c ****  * @brief Exit function from ISDISPLAYING container state to reset flag for increment at every 1 mi
  95:SourceFiles\asw/swc_clock_control.c ****  */
  96:SourceFiles\asw/swc_clock_control.c **** static void CLOCK_resetIncrement1Min();
  97:SourceFiles\asw/swc_clock_control.c **** /**
  98:SourceFiles\asw/swc_clock_control.c ****  * @brief Action (transition) function from ISDISPLAYING to ISEDITING widget state 
  99:SourceFiles\asw/swc_clock_control.c ****  * that sets the font of the currently active widget.
 100:SourceFiles\asw/swc_clock_control.c ****  */
 101:SourceFiles\asw/swc_clock_control.c **** static void CLOCK__setEditFonts();
 102:SourceFiles\asw/swc_clock_control.c **** /**
 103:SourceFiles\asw/swc_clock_control.c ****  * @brief Action (transition) function from ISEDITING and ISAUTOINCREMENT to ISDISPLAYING
 104:SourceFiles\asw/swc_clock_control.c ****  * widget state that resets the font to display mode.
 105:SourceFiles\asw/swc_clock_control.c ****  */
 106:SourceFiles\asw/swc_clock_control.c **** static void CLOCK__setDisplayFonts();
 107:SourceFiles\asw/swc_clock_control.c **** /**
 108:SourceFiles\asw/swc_clock_control.c ****  * @brief Action function in ISEDITING and ISAUTOINCREMENT widget states 
 109:SourceFiles\asw/swc_clock_control.c ****  * that updates the widget value, depending on the current active widget.
 110:SourceFiles\asw/swc_clock_control.c ****  */
 111:SourceFiles\asw/swc_clock_control.c **** static void CLOCK__incrementWidget();
 112:SourceFiles\asw/swc_clock_control.c **** /**
 113:SourceFiles\asw/swc_clock_control.c ****  * @brief Entry function to ISAUTOINCREMENT widget state to set flag for increment at every 250 ms.
 114:SourceFiles\asw/swc_clock_control.c ****  */
 115:SourceFiles\asw/swc_clock_control.c **** static void CLOCK_setAutoIncrement();
 116:SourceFiles\asw/swc_clock_control.c **** /**
 117:SourceFiles\asw/swc_clock_control.c ****  * @brief Exit function from ISAUTOINCREMENT widget state to reset flag for increment at every 250 
 118:SourceFiles\asw/swc_clock_control.c ****  */
 119:SourceFiles\asw/swc_clock_control.c **** static void CLOCK_resetAutoIncrement();
 120:SourceFiles\asw/swc_clock_control.c **** /**
 121:SourceFiles\asw/swc_clock_control.c ****  * @brief Error handler : sets an error event.
 122:SourceFiles\asw/swc_clock_control.c ****  */
 123:SourceFiles\asw/swc_clock_control.c **** static void CLOCK__errorHandler();
 124:SourceFiles\asw/swc_clock_control.c **** /**
 125:SourceFiles\asw/swc_clock_control.c ****  * @brief Error handler routine : handling of error is done here.
 126:SourceFiles\asw/swc_clock_control.c ****  */
 127:SourceFiles\asw/swc_clock_control.c **** static void CLOCK__errorHandlerRoutine();
 128:SourceFiles\asw/swc_clock_control.c **** 
 129:SourceFiles\asw/swc_clock_control.c **** //================================CONTAINER==================================
 130:SourceFiles\asw/swc_clock_control.c **** /** ===CLOCK_C_ISDISPLAYING=== */
 131:SourceFiles\asw/swc_clock_control.c **** static const STATE_stateInnerTransitionTable_t STATE_CLOCK_C_ISDISPLAYING_Transitions =
 132:SourceFiles\asw/swc_clock_control.c **** {
 133:SourceFiles\asw/swc_clock_control.c **** /*  Event                       ToState                                  Guard       Action      */
 134:SourceFiles\asw/swc_clock_control.c ****     {EV_KEYLEFT,                STATE_CLOCK_C_ISEDITINGHOURS,            0,          CLOCK__dispatc
 135:SourceFiles\asw/swc_clock_control.c ****     {EV_1MIN,                   STATE_CLOCK_C_ISDISPLAYING,              0,          CLOCK__increme
 136:SourceFiles\asw/swc_clock_control.c **** };
 137:SourceFiles\asw/swc_clock_control.c **** 
 138:SourceFiles\asw/swc_clock_control.c **** /** ===CLOCK_C_ISEDITINGHOURS=== */
 139:SourceFiles\asw/swc_clock_control.c **** static const STATE_stateInnerTransitionTable_t STATE_CLOCK_C_ISEDITINGHOURS_Transitions =
 140:SourceFiles\asw/swc_clock_control.c **** {
 141:SourceFiles\asw/swc_clock_control.c **** /*  Event                       ToState                                 Guard       Action      */
 142:SourceFiles\asw/swc_clock_control.c ****     {EV_KEYLEFT,                STATE_CLOCK_C_ISEDITINGMINUTES,         0,          CLOCK__dispatch
 143:SourceFiles\asw/swc_clock_control.c ****     {EV_KEYRIGHT,               STATE_CLOCK_C_ISEDITINGHOURS,           0,          CLOCK__dispatch
 144:SourceFiles\asw/swc_clock_control.c ****     {EV_KEYRIGHTLONGPRESS,      STATE_CLOCK_C_ISEDITINGHOURS,           0,          CLOCK__dispatch
 145:SourceFiles\asw/swc_clock_control.c ****     {EV_250MS,                  STATE_CLOCK_C_ISEDITINGHOURS,           0,          CLOCK__dispatch
ARM GAS  C:\Users\JASON\AppData\Local\Temp\cct5bgFA.s 			page 4


 146:SourceFiles\asw/swc_clock_control.c **** };
 147:SourceFiles\asw/swc_clock_control.c **** 
 148:SourceFiles\asw/swc_clock_control.c **** /** ===CLOCK_C_ISEDITINGMINUTES=== */
 149:SourceFiles\asw/swc_clock_control.c **** static const STATE_stateInnerTransitionTable_t STATE_CLOCK_C_ISEDITINGMINUTES_Transitions =
 150:SourceFiles\asw/swc_clock_control.c **** {
 151:SourceFiles\asw/swc_clock_control.c **** /*  Event                       ToState                                 Guard       Action      */
 152:SourceFiles\asw/swc_clock_control.c ****     {EV_KEYLEFT,                STATE_CLOCK_C_ISDISPLAYING,             0,          CLOCK__dispatch
 153:SourceFiles\asw/swc_clock_control.c ****     {EV_KEYRIGHT,               STATE_CLOCK_C_ISEDITINGMINUTES,         0,          CLOCK__dispatch
 154:SourceFiles\asw/swc_clock_control.c ****     {EV_KEYRIGHTLONGPRESS,      STATE_CLOCK_C_ISEDITINGMINUTES,         0,          CLOCK__dispatch
 155:SourceFiles\asw/swc_clock_control.c ****     {EV_250MS,                  STATE_CLOCK_C_ISEDITINGMINUTES,         0,          CLOCK__dispatch
 156:SourceFiles\asw/swc_clock_control.c **** };
 157:SourceFiles\asw/swc_clock_control.c **** 
 158:SourceFiles\asw/swc_clock_control.c **** /** ===CLOCK_CONTAINER=== */
 159:SourceFiles\asw/swc_clock_control.c **** static const STATE_stateOuterTransitionTable_t CLOCK_Container_Transitions =
 160:SourceFiles\asw/swc_clock_control.c **** {
 161:SourceFiles\asw/swc_clock_control.c **** /*  fromState							Pointer to transition table                      Size of transition table (elem
 162:SourceFiles\asw/swc_clock_control.c ****     {STATE_CLOCK_C_ISDISPLAYING,        &STATE_CLOCK_C_ISDISPLAYING_Transitions,         sizeof(STA
 163:SourceFiles\asw/swc_clock_control.c ****     {STATE_CLOCK_C_ISEDITINGMINUTES,    &STATE_CLOCK_C_ISEDITINGMINUTES_Transitions,     sizeof(STA
 164:SourceFiles\asw/swc_clock_control.c ****     {STATE_CLOCK_C_ISEDITINGHOURS,      &STATE_CLOCK_C_ISEDITINGHOURS_Transitions,       sizeof(STA
 165:SourceFiles\asw/swc_clock_control.c **** };
 166:SourceFiles\asw/swc_clock_control.c **** 
 167:SourceFiles\asw/swc_clock_control.c **** /** ===CLOCK_CONTAINE SIZE=== */
 168:SourceFiles\asw/swc_clock_control.c **** static const uint16_t CLOCK_Container_Transitions_Size  =   sizeof(CLOCK_Container_Transitions)/siz
 169:SourceFiles\asw/swc_clock_control.c **** 
 170:SourceFiles\asw/swc_clock_control.c **** //================================WIDGET=====================================
 171:SourceFiles\asw/swc_clock_control.c **** /** ===CLOCK_W_ISDISPLAYING=== */
 172:SourceFiles\asw/swc_clock_control.c **** static const STATE_stateInnerTransitionTable_t STATE_CLOCK_W_ISDISPLAYING_Transitions =
 173:SourceFiles\asw/swc_clock_control.c **** {
 174:SourceFiles\asw/swc_clock_control.c **** /*  Event                       ToState                                 Guard       Action      */
 175:SourceFiles\asw/swc_clock_control.c ****     {EV_KEYLEFT,                STATE_CLOCK_W_ISEDITING,                0,          CLOCK__setEditF
 176:SourceFiles\asw/swc_clock_control.c **** };
 177:SourceFiles\asw/swc_clock_control.c **** 
 178:SourceFiles\asw/swc_clock_control.c **** /** ===CLOCK_W_ISEDITING=== */
 179:SourceFiles\asw/swc_clock_control.c **** static const STATE_stateInnerTransitionTable_t STATE_CLOCK_W_ISEDITING_Transitions =
 180:SourceFiles\asw/swc_clock_control.c **** {
 181:SourceFiles\asw/swc_clock_control.c **** /*  Event                       ToState                                 Guard       Action      */
 182:SourceFiles\asw/swc_clock_control.c ****     {EV_KEYRIGHT,               STATE_CLOCK_W_ISEDITING,                0,          CLOCK__incremen
 183:SourceFiles\asw/swc_clock_control.c ****     {EV_KEYRIGHTLONGPRESS,      STATE_CLOCK_W_ISAUTOINCREMENT,          0,          0              
 184:SourceFiles\asw/swc_clock_control.c ****     {EV_KEYLEFT,                STATE_CLOCK_W_ISDISPLAYING,             0,          CLOCK__setDispl
 185:SourceFiles\asw/swc_clock_control.c **** };
 186:SourceFiles\asw/swc_clock_control.c **** 
 187:SourceFiles\asw/swc_clock_control.c **** /** ===CLOCK_W_ISAUTOINCREMENT=== */
 188:SourceFiles\asw/swc_clock_control.c **** static const STATE_stateInnerTransitionTable_t STATE_CLOCK_W_ISAUTOINCREMENT_Transitions =
 189:SourceFiles\asw/swc_clock_control.c **** {
 190:SourceFiles\asw/swc_clock_control.c **** /*  Event                       ToState                                 Guard       Action      */
 191:SourceFiles\asw/swc_clock_control.c ****     {EV_KEYRIGHT,               STATE_CLOCK_W_ISEDITING,                0,          0},
 192:SourceFiles\asw/swc_clock_control.c ****     {EV_250MS,                  STATE_CLOCK_W_ISAUTOINCREMENT,          0,          CLOCK__incremen
 193:SourceFiles\asw/swc_clock_control.c **** 	#if TESTERROR == 0
 194:SourceFiles\asw/swc_clock_control.c ****     {EV_KEYLEFT,                STATE_CLOCK_W_ISDISPLAYING,             0,          CLOCK__setDispl
 195:SourceFiles\asw/swc_clock_control.c ****     #endif
 196:SourceFiles\asw/swc_clock_control.c ****     #if TESTERROR == 1
 197:SourceFiles\asw/swc_clock_control.c ****     {EV_KEYLEFT,                STATE_CLOCK_W_ISDISPLAYING,             0,          CLOCK__errorHan
 198:SourceFiles\asw/swc_clock_control.c ****     #endif
 199:SourceFiles\asw/swc_clock_control.c **** };
 200:SourceFiles\asw/swc_clock_control.c **** 
 201:SourceFiles\asw/swc_clock_control.c **** /** ===CLOCK_WIDGET=== */
 202:SourceFiles\asw/swc_clock_control.c **** static const STATE_stateOuterTransitionTable_t CLOCK_Widget_Transitions =
ARM GAS  C:\Users\JASON\AppData\Local\Temp\cct5bgFA.s 			page 5


 203:SourceFiles\asw/swc_clock_control.c **** {
 204:SourceFiles\asw/swc_clock_control.c **** /*  fromState							Pointer to transition table                      Size of transition table (elem
 205:SourceFiles\asw/swc_clock_control.c ****     {STATE_CLOCK_W_ISDISPLAYING,        &STATE_CLOCK_W_ISDISPLAYING_Transitions,         sizeof(STA
 206:SourceFiles\asw/swc_clock_control.c ****     {STATE_CLOCK_W_ISEDITING,           &STATE_CLOCK_W_ISEDITING_Transitions,            sizeof(STA
 207:SourceFiles\asw/swc_clock_control.c ****     {STATE_CLOCK_W_ISAUTOINCREMENT,     &STATE_CLOCK_W_ISAUTOINCREMENT_Transitions,      sizeof(STA
 208:SourceFiles\asw/swc_clock_control.c **** };
 209:SourceFiles\asw/swc_clock_control.c **** 
 210:SourceFiles\asw/swc_clock_control.c **** /** ===CLOCK_CONTAINE SIZE=== */
 211:SourceFiles\asw/swc_clock_control.c **** static const uint16_t CLOCK_Widget_Transitions_Size =   sizeof(CLOCK_Widget_Transitions)/sizeof(STA
 212:SourceFiles\asw/swc_clock_control.c **** 
 213:SourceFiles\asw/swc_clock_control.c **** /** ===ACTION TABLE=== */
 214:SourceFiles\asw/swc_clock_control.c **** 
 215:SourceFiles\asw/swc_clock_control.c **** static const STATE_stateActionTable_t CLOCK_StateActions = {
 216:SourceFiles\asw/swc_clock_control.c **** /*  State                               Entry                       Exit    */
 217:SourceFiles\asw/swc_clock_control.c ****   { STATE_CLOCK_C_ISDISPLAYING,         CLOCK_setIncrement1Min,     CLOCK_resetIncrement1Min},  
 218:SourceFiles\asw/swc_clock_control.c ****   { STATE_CLOCK_W_ISAUTOINCREMENT,      CLOCK_setAutoIncrement,     CLOCK_resetAutoIncrement}
 219:SourceFiles\asw/swc_clock_control.c **** };
 220:SourceFiles\asw/swc_clock_control.c **** static const uint16_t CLOCK_StateActions_size = sizeof(CLOCK_StateActions)/sizeof(STATE_stateAction
 221:SourceFiles\asw/swc_clock_control.c **** 
 222:SourceFiles\asw/swc_clock_control.c **** /* USER CODE END SWC_CLOCK_CONTROL_USERDEFINITIONS */
 223:SourceFiles\asw/swc_clock_control.c **** 
 224:SourceFiles\asw/swc_clock_control.c **** 
 225:SourceFiles\asw/swc_clock_control.c **** 
 226:SourceFiles\asw/swc_clock_control.c **** /*
 227:SourceFiles\asw/swc_clock_control.c **** * component: swc_CLOCK_control
 228:SourceFiles\asw/swc_clock_control.c **** * cycletime: 0
 229:SourceFiles\asw/swc_clock_control.c **** * description: Runnable for clock control.
 230:SourceFiles\asw/swc_clock_control.c **** * events: ev_event_onData
 231:SourceFiles\asw/swc_clock_control.c **** * name: CLOCK_CONTROL__run
 232:SourceFiles\asw/swc_clock_control.c **** * shortname: 
 233:SourceFiles\asw/swc_clock_control.c **** * signalIN: so_EVENT
 234:SourceFiles\asw/swc_clock_control.c **** * signalOUT: so_CLOCK
 235:SourceFiles\asw/swc_clock_control.c **** * task: tsk_control
 236:SourceFiles\asw/swc_clock_control.c **** */
 237:SourceFiles\asw/swc_clock_control.c **** void CLOCK_CONTROL__run(RTE_event ev){
 238:SourceFiles\asw/swc_clock_control.c **** 	
 239:SourceFiles\asw/swc_clock_control.c **** 	/* USER CODE START CLOCK_CONTROL__run */
 240:SourceFiles\asw/swc_clock_control.c ****     // Read the clock object
 241:SourceFiles\asw/swc_clock_control.c ****     SC_CLOCK_data_t clock = RTE_SC_CLOCK_get(&SO_CLOCK_signal);
 242:SourceFiles\asw/swc_clock_control.c ****     
 243:SourceFiles\asw/swc_clock_control.c ****     SC_EVENT_data_t event = RTE_SC_EVENT_get(&SO_EVENT_signal);
 244:SourceFiles\asw/swc_clock_control.c ****     
 245:SourceFiles\asw/swc_clock_control.c ****     if(EV_ERROR == event.m_ev)
 246:SourceFiles\asw/swc_clock_control.c ****     {
 247:SourceFiles\asw/swc_clock_control.c ****         // call the error handler routine when an error event is received.
 248:SourceFiles\asw/swc_clock_control.c ****         CLOCK__errorHandlerRoutine();
 249:SourceFiles\asw/swc_clock_control.c ****     }
 250:SourceFiles\asw/swc_clock_control.c ****     else
 251:SourceFiles\asw/swc_clock_control.c ****     {
 252:SourceFiles\asw/swc_clock_control.c ****         // Get fromState
 253:SourceFiles\asw/swc_clock_control.c ****         STATE_State_t state = clock.m_containerState;
 254:SourceFiles\asw/swc_clock_control.c ****         //Call the state machine and process the event
 255:SourceFiles\asw/swc_clock_control.c ****         RC_t result = STATE_processEvent(   CLOCK_Container_Transitions, CLOCK_Container_Transition
 256:SourceFiles\asw/swc_clock_control.c ****                                         CLOCK_StateActions, CLOCK_StateActions_size,
 257:SourceFiles\asw/swc_clock_control.c ****                                         event.m_ev, &state);
 258:SourceFiles\asw/swc_clock_control.c ****         // update the fromState after the event has been processed and set the clock.
 259:SourceFiles\asw/swc_clock_control.c ****         clock = RTE_SC_CLOCK_get(&SO_CLOCK_signal);
ARM GAS  C:\Users\JASON\AppData\Local\Temp\cct5bgFA.s 			page 6


 260:SourceFiles\asw/swc_clock_control.c ****         clock.m_containerState = state; 
 261:SourceFiles\asw/swc_clock_control.c ****         RTE_SC_CLOCK_set(&SO_CLOCK_signal, clock);
 262:SourceFiles\asw/swc_clock_control.c ****     }
 263:SourceFiles\asw/swc_clock_control.c ****     
 264:SourceFiles\asw/swc_clock_control.c ****     // Debugging through verbosity via UART
 265:SourceFiles\asw/swc_clock_control.c ****     
 266:SourceFiles\asw/swc_clock_control.c ****     static char asciiConvert[30];
 267:SourceFiles\asw/swc_clock_control.c ****     
 268:SourceFiles\asw/swc_clock_control.c ****     UART_LOG_PutString("\n");
 269:SourceFiles\asw/swc_clock_control.c ****     intToASCII((uint32_t)clock.m_hours.m_value, (uint8_t*)&asciiConvert, 2);
 270:SourceFiles\asw/swc_clock_control.c ****     UART_LOG_PutString(asciiConvert);
 271:SourceFiles\asw/swc_clock_control.c ****     UART_LOG_PutChar(':');
 272:SourceFiles\asw/swc_clock_control.c ****     intToASCII((uint32_t)clock.m_minutes.m_value, (uint8_t*)&asciiConvert, 2);
 273:SourceFiles\asw/swc_clock_control.c ****     UART_LOG_PutString(asciiConvert);
 274:SourceFiles\asw/swc_clock_control.c ****     UART_LOG_PutString("\n\n\n");
 275:SourceFiles\asw/swc_clock_control.c ****     
 276:SourceFiles\asw/swc_clock_control.c ****     /* USER CODE END CLOCK_CONTROL__run */
 277:SourceFiles\asw/swc_clock_control.c **** }
 278:SourceFiles\asw/swc_clock_control.c **** 
 279:SourceFiles\asw/swc_clock_control.c **** /*
 280:SourceFiles\asw/swc_clock_control.c **** * component: swc_CLOCK_control
 281:SourceFiles\asw/swc_clock_control.c **** * cycletime: 0
 282:SourceFiles\asw/swc_clock_control.c **** * description: Runnable for control swc initialization
 283:SourceFiles\asw/swc_clock_control.c **** * events: 
 284:SourceFiles\asw/swc_clock_control.c **** * name: CLOCK_CONTROL_init_run
 285:SourceFiles\asw/swc_clock_control.c **** * shortname: init
 286:SourceFiles\asw/swc_clock_control.c **** * signalIN: 
 287:SourceFiles\asw/swc_clock_control.c **** * signalOUT: 
 288:SourceFiles\asw/swc_clock_control.c **** * task: tsk_control
 289:SourceFiles\asw/swc_clock_control.c **** */
 290:SourceFiles\asw/swc_clock_control.c **** void CLOCK_CONTROL_init_run(RTE_event ev){
 291:SourceFiles\asw/swc_clock_control.c **** 	
 292:SourceFiles\asw/swc_clock_control.c **** 	/* USER CODE START CLOCK_CONTROL_init_run */
 293:SourceFiles\asw/swc_clock_control.c ****     SC_CLOCK_data_t clock;
 294:SourceFiles\asw/swc_clock_control.c ****     
 295:SourceFiles\asw/swc_clock_control.c ****     clock.m_transitions     =   (STATE_stateOuterTransitionTable_t*)    CLOCK_Container_Transitions
 296:SourceFiles\asw/swc_clock_control.c ****     clock.m_stateActions    =   (STATE_ActionPtr_t*)                    0;
 297:SourceFiles\asw/swc_clock_control.c ****     clock.m_activeWidget    =                                           CLOCK_NONE;
 298:SourceFiles\asw/swc_clock_control.c ****     
 299:SourceFiles\asw/swc_clock_control.c ****     CLOCK_widget_t widget;
 300:SourceFiles\asw/swc_clock_control.c ****     
 301:SourceFiles\asw/swc_clock_control.c ****     widget.m_state          =                                           STATE_CLOCK_W_ISDISPLAYING;
 302:SourceFiles\asw/swc_clock_control.c ****     widget.m_transitions    =   (STATE_stateInnerTransitionTable_t*)    CLOCK_Widget_Transitions;
 303:SourceFiles\asw/swc_clock_control.c ****     widget.m_stateActions   =   (STATE_stateAction_t*)                  CLOCK_StateActions;
 304:SourceFiles\asw/swc_clock_control.c ****     widget.m_value          =                                           0;
 305:SourceFiles\asw/swc_clock_control.c ****     
 306:SourceFiles\asw/swc_clock_control.c ****     CLOCK_font_t font;
 307:SourceFiles\asw/swc_clock_control.c ****     
 308:SourceFiles\asw/swc_clock_control.c ****     font.foreground         =   WHITE;
 309:SourceFiles\asw/swc_clock_control.c ****     font.background         =   BLACK;
 310:SourceFiles\asw/swc_clock_control.c ****     
 311:SourceFiles\asw/swc_clock_control.c ****     widget.m_font           =   font;
 312:SourceFiles\asw/swc_clock_control.c ****     
 313:SourceFiles\asw/swc_clock_control.c ****     clock.m_hours           =   widget;
 314:SourceFiles\asw/swc_clock_control.c ****     
 315:SourceFiles\asw/swc_clock_control.c ****     widget.m_state          =                                           STATE_CLOCK_W_ISDISPLAYING;
 316:SourceFiles\asw/swc_clock_control.c ****     widget.m_transitions    =   (STATE_stateInnerTransitionTable_t*)    CLOCK_Widget_Transitions;
ARM GAS  C:\Users\JASON\AppData\Local\Temp\cct5bgFA.s 			page 7


 317:SourceFiles\asw/swc_clock_control.c ****     widget.m_stateActions   =   (STATE_stateAction_t*)                  CLOCK_StateActions;
 318:SourceFiles\asw/swc_clock_control.c ****     widget.m_value          =                                           0;
 319:SourceFiles\asw/swc_clock_control.c ****     
 320:SourceFiles\asw/swc_clock_control.c ****     font.foreground         =   WHITE;
 321:SourceFiles\asw/swc_clock_control.c ****     font.background         =   BLACK;
 322:SourceFiles\asw/swc_clock_control.c ****     
 323:SourceFiles\asw/swc_clock_control.c ****     widget.m_font           =   font;
 324:SourceFiles\asw/swc_clock_control.c ****     
 325:SourceFiles\asw/swc_clock_control.c ****     clock.m_minutes         =   widget;
 326:SourceFiles\asw/swc_clock_control.c ****     
 327:SourceFiles\asw/swc_clock_control.c ****     STATE_State_t state;
 328:SourceFiles\asw/swc_clock_control.c ****     
 329:SourceFiles\asw/swc_clock_control.c ****     STATE_initState(CLOCK_StateActions, CLOCK_StateActions_size, &state);
 330:SourceFiles\asw/swc_clock_control.c ****     
 331:SourceFiles\asw/swc_clock_control.c ****     clock.m_containerState  =   state;
 332:SourceFiles\asw/swc_clock_control.c ****     
 333:SourceFiles\asw/swc_clock_control.c ****     RTE_SC_CLOCK_set(&SO_CLOCK_signal, clock);
 334:SourceFiles\asw/swc_clock_control.c ****     
 335:SourceFiles\asw/swc_clock_control.c ****     // Initialize tft brightness, fore- and backgorund colors and text size.
 336:SourceFiles\asw/swc_clock_control.c ****     TFT_setBacklight(100);
 337:SourceFiles\asw/swc_clock_control.c ****     TFT_setColors(WHITE, BLACK);
 338:SourceFiles\asw/swc_clock_control.c ****     TFT_setTextSize(3);
 339:SourceFiles\asw/swc_clock_control.c ****     
 340:SourceFiles\asw/swc_clock_control.c ****     /* USER CODE END CLOCK_CONTROL_init_run */
 341:SourceFiles\asw/swc_clock_control.c **** }
 342:SourceFiles\asw/swc_clock_control.c **** 
 343:SourceFiles\asw/swc_clock_control.c **** /* USER CODE START SWC_CLOCK_CONTROL_FUNCTIONS */
 344:SourceFiles\asw/swc_clock_control.c **** /**
 345:SourceFiles\asw/swc_clock_control.c ****  * @brief General dispatcher to save the clock states.
 346:SourceFiles\asw/swc_clock_control.c ****  * @brief STATE_Event_t ev              :   Event that occured in the container that must be
 347:SourceFiles\asw/swc_clock_control.c ****                                             parsed to the widget.
 348:SourceFiles\asw/swc_clock_control.c ****  * @brief CLOCK_active_widget_t widget  :   Current active widget, based on whether the 
 349:SourceFiles\asw/swc_clock_control.c ****                                             container is in editing mode for hours or minutes.
 350:SourceFiles\asw/swc_clock_control.c ****  */
 351:SourceFiles\asw/swc_clock_control.c **** static void CLOCK__dispatch_wrapper(STATE_Event_t ev, CLOCK_active_widget_t widget)
 352:SourceFiles\asw/swc_clock_control.c **** {
 353:SourceFiles\asw/swc_clock_control.c ****     //Read the state object (container)
 354:SourceFiles\asw/swc_clock_control.c ****     SC_CLOCK_data_t clock = RTE_SC_CLOCK_get(&SO_CLOCK_signal);
 355:SourceFiles\asw/swc_clock_control.c ****     
 356:SourceFiles\asw/swc_clock_control.c ****     //Set the active widget
 357:SourceFiles\asw/swc_clock_control.c ****     clock.m_activeWidget = widget;
 358:SourceFiles\asw/swc_clock_control.c ****     
 359:SourceFiles\asw/swc_clock_control.c ****     //Write the changed widget back to the clock object
 360:SourceFiles\asw/swc_clock_control.c ****     RTE_SC_CLOCK_set(&SO_CLOCK_signal, clock);
 361:SourceFiles\asw/swc_clock_control.c ****     
 362:SourceFiles\asw/swc_clock_control.c ****     //And fire it to the container state machine.
 363:SourceFiles\asw/swc_clock_control.c ****     //The widget state machine will be called by the container actions.
 364:SourceFiles\asw/swc_clock_control.c ****     //We need a local copy of the widget state as the widget object is also changed by the widget a
 365:SourceFiles\asw/swc_clock_control.c ****     if(CLOCK_HOURWIDGET == widget)
 366:SourceFiles\asw/swc_clock_control.c ****     {
 367:SourceFiles\asw/swc_clock_control.c ****         CLOCK_State_t localState = clock.m_hours.m_state;
 368:SourceFiles\asw/swc_clock_control.c **** 
 369:SourceFiles\asw/swc_clock_control.c ****         //Call the state machine.
 370:SourceFiles\asw/swc_clock_control.c ****         RC_t result = STATE_processEvent(   CLOCK_Widget_Transitions, CLOCK_Widget_Transitions_Size
 371:SourceFiles\asw/swc_clock_control.c ****                                             CLOCK_StateActions, CLOCK_StateActions_size,
 372:SourceFiles\asw/swc_clock_control.c ****                                             ev, &localState);
 373:SourceFiles\asw/swc_clock_control.c ****         
ARM GAS  C:\Users\JASON\AppData\Local\Temp\cct5bgFA.s 			page 8


 374:SourceFiles\asw/swc_clock_control.c ****         //Re-read the state object in order to get the changes by the child.
 375:SourceFiles\asw/swc_clock_control.c ****         clock = RTE_SC_CLOCK_get(&SO_CLOCK_signal);
 376:SourceFiles\asw/swc_clock_control.c ****         
 377:SourceFiles\asw/swc_clock_control.c ****         clock.m_hours.m_state = localState;
 378:SourceFiles\asw/swc_clock_control.c **** 
 379:SourceFiles\asw/swc_clock_control.c ****         //Write the changed state back to the clock object.
 380:SourceFiles\asw/swc_clock_control.c ****         RTE_SC_CLOCK_set(&SO_CLOCK_signal, clock);
 381:SourceFiles\asw/swc_clock_control.c ****     }
 382:SourceFiles\asw/swc_clock_control.c ****     else if(CLOCK_MINWIDGET == widget)
 383:SourceFiles\asw/swc_clock_control.c ****     {
 384:SourceFiles\asw/swc_clock_control.c ****         CLOCK_State_t localState = clock.m_minutes.m_state;
 385:SourceFiles\asw/swc_clock_control.c ****         
 386:SourceFiles\asw/swc_clock_control.c ****         //Call the state machine.
 387:SourceFiles\asw/swc_clock_control.c ****         RC_t result = STATE_processEvent(   CLOCK_Widget_Transitions, CLOCK_Widget_Transitions_Size
 388:SourceFiles\asw/swc_clock_control.c ****                                             CLOCK_StateActions, CLOCK_StateActions_size,
 389:SourceFiles\asw/swc_clock_control.c ****                                             ev, &localState);
 390:SourceFiles\asw/swc_clock_control.c ****         
 391:SourceFiles\asw/swc_clock_control.c ****         //Re-read the state object in order to get the changes by the child.
 392:SourceFiles\asw/swc_clock_control.c ****         clock = RTE_SC_CLOCK_get(&SO_CLOCK_signal);
 393:SourceFiles\asw/swc_clock_control.c ****         
 394:SourceFiles\asw/swc_clock_control.c ****         clock.m_minutes.m_state = localState;
 395:SourceFiles\asw/swc_clock_control.c ****         
 396:SourceFiles\asw/swc_clock_control.c ****         //Write the changed state back to the clock object.
 397:SourceFiles\asw/swc_clock_control.c ****         RTE_SC_CLOCK_set(&SO_CLOCK_signal, clock);
 398:SourceFiles\asw/swc_clock_control.c ****     }
 399:SourceFiles\asw/swc_clock_control.c **** }
 400:SourceFiles\asw/swc_clock_control.c **** /**
 401:SourceFiles\asw/swc_clock_control.c ****  * @brief Dispatcher when left key is pressed in ISDISPLAYING container state.
 402:SourceFiles\asw/swc_clock_control.c ****  */
 403:SourceFiles\asw/swc_clock_control.c **** static void CLOCK__dispatch_KL_Hours()
 404:SourceFiles\asw/swc_clock_control.c **** {
 405:SourceFiles\asw/swc_clock_control.c ****     UART_LOG_PutString("CLOCK__dispatch_KL_Hours\n");
 406:SourceFiles\asw/swc_clock_control.c ****     CLOCK__dispatch_wrapper(EV_KEYLEFT, CLOCK_HOURWIDGET);
 407:SourceFiles\asw/swc_clock_control.c **** }
 408:SourceFiles\asw/swc_clock_control.c **** /**
 409:SourceFiles\asw/swc_clock_control.c ****  * @brief Dispatcher when right key is pressed in ISEDITINGHOURS container state.
 410:SourceFiles\asw/swc_clock_control.c ****  */
 411:SourceFiles\asw/swc_clock_control.c **** static void CLOCK__dispatch_KR_Hours()
 412:SourceFiles\asw/swc_clock_control.c **** {
 413:SourceFiles\asw/swc_clock_control.c ****     UART_LOG_PutString("CLOCK__dispatch_KR_Hours\n");
 414:SourceFiles\asw/swc_clock_control.c ****     CLOCK__dispatch_wrapper(EV_KEYRIGHT, CLOCK_HOURWIDGET);
 415:SourceFiles\asw/swc_clock_control.c **** }
 416:SourceFiles\asw/swc_clock_control.c **** /**
 417:SourceFiles\asw/swc_clock_control.c ****  * @brief Dispatcher when left key is pressed in ISEDITINGHOURS container state.
 418:SourceFiles\asw/swc_clock_control.c ****  */
 419:SourceFiles\asw/swc_clock_control.c **** static void CLOCK__dispatch_KL_HoursMin()
 420:SourceFiles\asw/swc_clock_control.c **** {
 421:SourceFiles\asw/swc_clock_control.c ****     UART_LOG_PutString("CLOCK__dispatch_KL_HoursMin\n");
 422:SourceFiles\asw/swc_clock_control.c ****     CLOCK__dispatch_wrapper(EV_KEYLEFT, CLOCK_HOURWIDGET);
 423:SourceFiles\asw/swc_clock_control.c ****     CLOCK__dispatch_wrapper(EV_KEYLEFT, CLOCK_MINWIDGET);
 424:SourceFiles\asw/swc_clock_control.c **** }
 425:SourceFiles\asw/swc_clock_control.c **** /**
 426:SourceFiles\asw/swc_clock_control.c ****  * @brief Dispatcher when left key is pressed in ISEDITINGMINUTES container state.
 427:SourceFiles\asw/swc_clock_control.c ****  */
 428:SourceFiles\asw/swc_clock_control.c **** static void CLOCK__dispatch_KL_Min()
 429:SourceFiles\asw/swc_clock_control.c **** {
 430:SourceFiles\asw/swc_clock_control.c ****     UART_LOG_PutString("CLOCK__dispatch_KL_Minutes\n");
ARM GAS  C:\Users\JASON\AppData\Local\Temp\cct5bgFA.s 			page 9


 431:SourceFiles\asw/swc_clock_control.c ****     CLOCK__dispatch_wrapper(EV_KEYLEFT, CLOCK_MINWIDGET);  
 432:SourceFiles\asw/swc_clock_control.c **** }
 433:SourceFiles\asw/swc_clock_control.c **** /**
 434:SourceFiles\asw/swc_clock_control.c ****  * @brief Dispatcher when right key is pressed in ISEDITINGMINUTES container state.
 435:SourceFiles\asw/swc_clock_control.c ****  */
 436:SourceFiles\asw/swc_clock_control.c **** static void CLOCK__dispatch_KR_Min()
 437:SourceFiles\asw/swc_clock_control.c **** {
 438:SourceFiles\asw/swc_clock_control.c ****     UART_LOG_PutString("CLOCK__dispatch_KR_Minutes\n");
 439:SourceFiles\asw/swc_clock_control.c ****     CLOCK__dispatch_wrapper(EV_KEYRIGHT, CLOCK_MINWIDGET);    
 440:SourceFiles\asw/swc_clock_control.c **** }
 441:SourceFiles\asw/swc_clock_control.c **** /**
 442:SourceFiles\asw/swc_clock_control.c ****  * @brief Dispatcher when long press of right key occurs in ISEDITINGHOURS container state.
 443:SourceFiles\asw/swc_clock_control.c ****  */
 444:SourceFiles\asw/swc_clock_control.c **** static void CLOCK__dispatch_KRLP_Hours()
 445:SourceFiles\asw/swc_clock_control.c **** {
 446:SourceFiles\asw/swc_clock_control.c ****     UART_LOG_PutString("CLOCK__dispatch_KRLP_Hours\n");
 447:SourceFiles\asw/swc_clock_control.c ****     CLOCK__dispatch_wrapper(EV_KEYRIGHTLONGPRESS, CLOCK_HOURWIDGET);
 448:SourceFiles\asw/swc_clock_control.c ****     
 449:SourceFiles\asw/swc_clock_control.c ****     // When long press of right key occurs, set the auto-increment event of 250 ms.
 450:SourceFiles\asw/swc_clock_control.c ****     SC_EVENT_data_t ev = RTE_SC_EVENT_get(&SO_EVENT_signal);
 451:SourceFiles\asw/swc_clock_control.c ****     ev.m_ev     = EV_250MS;
 452:SourceFiles\asw/swc_clock_control.c ****     RTE_SC_EVENT_set(&SO_EVENT_signal, ev);
 453:SourceFiles\asw/swc_clock_control.c **** }
 454:SourceFiles\asw/swc_clock_control.c **** /**
 455:SourceFiles\asw/swc_clock_control.c ****  * @brief Dispatcher when long press of right key occurs in ISEDITINGMINUTES container state.
 456:SourceFiles\asw/swc_clock_control.c ****  */
 457:SourceFiles\asw/swc_clock_control.c **** static void CLOCK__dispatch_KRLP_Min()
 458:SourceFiles\asw/swc_clock_control.c **** {
 459:SourceFiles\asw/swc_clock_control.c ****     UART_LOG_PutString("CLOCK__dispatch_KRLP_Min\n");
 460:SourceFiles\asw/swc_clock_control.c ****     CLOCK__dispatch_wrapper(EV_KEYRIGHTLONGPRESS, CLOCK_MINWIDGET);
 461:SourceFiles\asw/swc_clock_control.c ****     
 462:SourceFiles\asw/swc_clock_control.c ****     // When long press of right key occurs, set the auto-increment event of 250 ms.
 463:SourceFiles\asw/swc_clock_control.c ****     SC_EVENT_data_t ev = RTE_SC_EVENT_get(&SO_EVENT_signal);
 464:SourceFiles\asw/swc_clock_control.c ****     ev.m_ev     = EV_250MS;
 465:SourceFiles\asw/swc_clock_control.c ****     RTE_SC_EVENT_set(&SO_EVENT_signal, ev);
 466:SourceFiles\asw/swc_clock_control.c **** }
 467:SourceFiles\asw/swc_clock_control.c **** /**
 468:SourceFiles\asw/swc_clock_control.c ****  * @brief Dispatcher for auto increment event of 250ms in ISEDITINGHOURS container state.
 469:SourceFiles\asw/swc_clock_control.c ****  */
 470:SourceFiles\asw/swc_clock_control.c **** static void CLOCK__dispatch_250MS_Hours()
 471:SourceFiles\asw/swc_clock_control.c **** {
 472:SourceFiles\asw/swc_clock_control.c ****     UART_LOG_PutString("CLOCK__dispatch_250MS_Hours\n");
 473:SourceFiles\asw/swc_clock_control.c ****     CLOCK__dispatch_wrapper(EV_250MS, CLOCK_HOURWIDGET);
 474:SourceFiles\asw/swc_clock_control.c **** }
 475:SourceFiles\asw/swc_clock_control.c **** /**
 476:SourceFiles\asw/swc_clock_control.c ****  * @brief Dispatcher for auto increment event of 250ms in ISEDITINGMINUTES container state.
 477:SourceFiles\asw/swc_clock_control.c ****  */
 478:SourceFiles\asw/swc_clock_control.c **** static void CLOCK__dispatch_250MS_Min()
 479:SourceFiles\asw/swc_clock_control.c **** {
 480:SourceFiles\asw/swc_clock_control.c ****     UART_LOG_PutString("CLOCK__dispatch_250MS_Min\n");
 481:SourceFiles\asw/swc_clock_control.c ****     CLOCK__dispatch_wrapper(EV_250MS, CLOCK_MINWIDGET);
 482:SourceFiles\asw/swc_clock_control.c ****     
 483:SourceFiles\asw/swc_clock_control.c **** }
 484:SourceFiles\asw/swc_clock_control.c **** /**
 485:SourceFiles\asw/swc_clock_control.c ****  * @brief Dispatcher for 1 minute increment in ISDISPLAYING container state.
 486:SourceFiles\asw/swc_clock_control.c ****  */
 487:SourceFiles\asw/swc_clock_control.c **** static void CLOCK__increment1Minute()
ARM GAS  C:\Users\JASON\AppData\Local\Temp\cct5bgFA.s 			page 10


 488:SourceFiles\asw/swc_clock_control.c **** {
 489:SourceFiles\asw/swc_clock_control.c ****     UART_LOG_PutString("CLOCK__increment1Minute\n");
 490:SourceFiles\asw/swc_clock_control.c **** 	
 491:SourceFiles\asw/swc_clock_control.c **** 	//Read the state object (container).
 492:SourceFiles\asw/swc_clock_control.c ****     SC_CLOCK_data_t clock = RTE_SC_CLOCK_get(&SO_CLOCK_signal);
 493:SourceFiles\asw/swc_clock_control.c **** 	
 494:SourceFiles\asw/swc_clock_control.c **** 	uint16_t hh = clock.m_hours.m_value;
 495:SourceFiles\asw/swc_clock_control.c **** 	uint16_t mm = clock.m_minutes.m_value;
 496:SourceFiles\asw/swc_clock_control.c **** 	
 497:SourceFiles\asw/swc_clock_control.c **** 	mm = (mm + 1) % 60;
 498:SourceFiles\asw/swc_clock_control.c **** 	hh = (mm == 0)? ((hh + 1) % 24) : hh;
 499:SourceFiles\asw/swc_clock_control.c **** 	
 500:SourceFiles\asw/swc_clock_control.c ****     //Write the changed values back to the clock object.
 501:SourceFiles\asw/swc_clock_control.c **** 	clock.m_hours.m_value 	= hh;
 502:SourceFiles\asw/swc_clock_control.c **** 	clock.m_minutes.m_value	= mm;
 503:SourceFiles\asw/swc_clock_control.c **** 	
 504:SourceFiles\asw/swc_clock_control.c ****     RTE_SC_CLOCK_set(&SO_CLOCK_signal, clock);
 505:SourceFiles\asw/swc_clock_control.c **** }
 506:SourceFiles\asw/swc_clock_control.c **** /**
 507:SourceFiles\asw/swc_clock_control.c ****  * @brief Entry function to ISDISPLAYING container state to set flag for increment at every 1 minut
 508:SourceFiles\asw/swc_clock_control.c ****  */
 509:SourceFiles\asw/swc_clock_control.c **** static void CLOCK_setIncrement1Min()
 510:SourceFiles\asw/swc_clock_control.c **** {
  27              		.loc 1 510 0
  28              		.cfi_startproc
  29              		@ args = 0, pretend = 0, frame = 0
  30              		@ frame_needed = 0, uses_anonymous_args = 0
  31              		@ link register save eliminated.
 511:SourceFiles\asw/swc_clock_control.c ****     SETFLAG(increment1Min_st);
  32              		.loc 1 511 0
  33 0000 0122     		movs	r2, #1
  34 0002 014B     		ldr	r3, .L2
  35 0004 1A70     		strb	r2, [r3]
  36 0006 7047     		bx	lr
  37              	.L3:
  38              		.align	2
  39              	.L2:
  40 0008 00000000 		.word	.LANCHOR0
  41              		.cfi_endproc
  42              	.LFE144:
  43              		.size	CLOCK_setIncrement1Min, .-CLOCK_setIncrement1Min
  44              		.section	.text.CLOCK_resetIncrement1Min,"ax",%progbits
  45              		.align	2
  46              		.thumb
  47              		.thumb_func
  48              		.type	CLOCK_resetIncrement1Min, %function
  49              	CLOCK_resetIncrement1Min:
  50              	.LFB145:
 512:SourceFiles\asw/swc_clock_control.c **** }
 513:SourceFiles\asw/swc_clock_control.c **** /**
 514:SourceFiles\asw/swc_clock_control.c ****  * @brief Exit function from ISDISPLAYING container state to reset flag for increment at every 1 mi
 515:SourceFiles\asw/swc_clock_control.c ****  */
 516:SourceFiles\asw/swc_clock_control.c **** static void CLOCK_resetIncrement1Min()
 517:SourceFiles\asw/swc_clock_control.c **** {
  51              		.loc 1 517 0
  52              		.cfi_startproc
  53              		@ args = 0, pretend = 0, frame = 0
ARM GAS  C:\Users\JASON\AppData\Local\Temp\cct5bgFA.s 			page 11


  54              		@ frame_needed = 0, uses_anonymous_args = 0
  55              		@ link register save eliminated.
 518:SourceFiles\asw/swc_clock_control.c ****     RESETFLAG(increment1Min_st);   
  56              		.loc 1 518 0
  57 0000 0022     		movs	r2, #0
  58 0002 014B     		ldr	r3, .L5
  59 0004 1A70     		strb	r2, [r3]
  60 0006 7047     		bx	lr
  61              	.L6:
  62              		.align	2
  63              	.L5:
  64 0008 00000000 		.word	.LANCHOR0
  65              		.cfi_endproc
  66              	.LFE145:
  67              		.size	CLOCK_resetIncrement1Min, .-CLOCK_resetIncrement1Min
  68              		.section	.text.CLOCK_setAutoIncrement,"ax",%progbits
  69              		.align	2
  70              		.thumb
  71              		.thumb_func
  72              		.type	CLOCK_setAutoIncrement, %function
  73              	CLOCK_setAutoIncrement:
  74              	.LFB149:
 519:SourceFiles\asw/swc_clock_control.c **** }
 520:SourceFiles\asw/swc_clock_control.c **** /**
 521:SourceFiles\asw/swc_clock_control.c ****  * @brief Action (transition) function from ISDISPLAYING to ISEDITING widget state 
 522:SourceFiles\asw/swc_clock_control.c ****  * that sets the font of the currently active widget.
 523:SourceFiles\asw/swc_clock_control.c ****  */
 524:SourceFiles\asw/swc_clock_control.c **** static void CLOCK__setEditFonts()
 525:SourceFiles\asw/swc_clock_control.c **** {
 526:SourceFiles\asw/swc_clock_control.c ****     UART_LOG_PutString("CLOCK__setEditFonts\n");
 527:SourceFiles\asw/swc_clock_control.c ****     
 528:SourceFiles\asw/swc_clock_control.c ****     //Re-read the state object in order to get the changes by the child.
 529:SourceFiles\asw/swc_clock_control.c ****     SC_CLOCK_data_t clock = RTE_SC_CLOCK_get(&SO_CLOCK_signal);
 530:SourceFiles\asw/swc_clock_control.c ****     
 531:SourceFiles\asw/swc_clock_control.c ****     CLOCK_font_t activeFont;
 532:SourceFiles\asw/swc_clock_control.c ****     CLOCK_font_t inactiveFont;
 533:SourceFiles\asw/swc_clock_control.c ****     
 534:SourceFiles\asw/swc_clock_control.c ****     activeFont.foreground   = BLACK;
 535:SourceFiles\asw/swc_clock_control.c ****     activeFont.background   = WHITE;
 536:SourceFiles\asw/swc_clock_control.c ****     
 537:SourceFiles\asw/swc_clock_control.c ****     inactiveFont.foreground = WHITE;
 538:SourceFiles\asw/swc_clock_control.c ****     inactiveFont.background = BLACK;
 539:SourceFiles\asw/swc_clock_control.c ****         
 540:SourceFiles\asw/swc_clock_control.c ****     if(CLOCK_HOURWIDGET == clock.m_activeWidget)
 541:SourceFiles\asw/swc_clock_control.c ****     {
 542:SourceFiles\asw/swc_clock_control.c ****         clock.m_hours.m_font        = activeFont;
 543:SourceFiles\asw/swc_clock_control.c ****         clock.m_minutes.m_font      = inactiveFont;
 544:SourceFiles\asw/swc_clock_control.c ****     }
 545:SourceFiles\asw/swc_clock_control.c ****     
 546:SourceFiles\asw/swc_clock_control.c ****     if(CLOCK_MINWIDGET == clock.m_activeWidget)
 547:SourceFiles\asw/swc_clock_control.c ****     {
 548:SourceFiles\asw/swc_clock_control.c ****         clock.m_hours.m_font        = inactiveFont;
 549:SourceFiles\asw/swc_clock_control.c ****         clock.m_minutes.m_font      = activeFont;
 550:SourceFiles\asw/swc_clock_control.c ****     }
 551:SourceFiles\asw/swc_clock_control.c ****         
 552:SourceFiles\asw/swc_clock_control.c ****     //Write the changed values back to the clock object.
 553:SourceFiles\asw/swc_clock_control.c ****     RTE_SC_CLOCK_set(&SO_CLOCK_signal, clock);
ARM GAS  C:\Users\JASON\AppData\Local\Temp\cct5bgFA.s 			page 12


 554:SourceFiles\asw/swc_clock_control.c **** }
 555:SourceFiles\asw/swc_clock_control.c **** /**
 556:SourceFiles\asw/swc_clock_control.c ****  * @brief Action (transition) function from ISEDITING and ISAUTOINCREMENT to ISDISPLAYING
 557:SourceFiles\asw/swc_clock_control.c ****  * widget state that resets the font to display mode.
 558:SourceFiles\asw/swc_clock_control.c ****  */
 559:SourceFiles\asw/swc_clock_control.c **** static void CLOCK__setDisplayFonts()
 560:SourceFiles\asw/swc_clock_control.c **** {
 561:SourceFiles\asw/swc_clock_control.c ****     UART_LOG_PutString("CLOCK__setDisplayFonts\n");
 562:SourceFiles\asw/swc_clock_control.c ****     
 563:SourceFiles\asw/swc_clock_control.c ****     //Re-read the state object in order to get the changes by the child.
 564:SourceFiles\asw/swc_clock_control.c ****     SC_CLOCK_data_t clock = RTE_SC_CLOCK_get(&SO_CLOCK_signal);
 565:SourceFiles\asw/swc_clock_control.c ****     
 566:SourceFiles\asw/swc_clock_control.c ****     CLOCK_font_t font;
 567:SourceFiles\asw/swc_clock_control.c ****     
 568:SourceFiles\asw/swc_clock_control.c ****     font.foreground = WHITE;
 569:SourceFiles\asw/swc_clock_control.c ****     font.background = BLACK;
 570:SourceFiles\asw/swc_clock_control.c ****         
 571:SourceFiles\asw/swc_clock_control.c ****     clock.m_hours.m_font    = font;
 572:SourceFiles\asw/swc_clock_control.c ****     clock.m_minutes.m_font  = font;
 573:SourceFiles\asw/swc_clock_control.c ****         
 574:SourceFiles\asw/swc_clock_control.c ****     //Write the changed values back to the clock object.
 575:SourceFiles\asw/swc_clock_control.c ****     RTE_SC_CLOCK_set(&SO_CLOCK_signal, clock); 
 576:SourceFiles\asw/swc_clock_control.c **** }
 577:SourceFiles\asw/swc_clock_control.c **** /**
 578:SourceFiles\asw/swc_clock_control.c ****  * @brief Action function in ISEDITING and ISAUTOINCREMENT widget states 
 579:SourceFiles\asw/swc_clock_control.c ****  * that updates the widget value, depending on the current active widget.
 580:SourceFiles\asw/swc_clock_control.c ****  */
 581:SourceFiles\asw/swc_clock_control.c **** static void CLOCK__incrementWidget()
 582:SourceFiles\asw/swc_clock_control.c **** {
 583:SourceFiles\asw/swc_clock_control.c ****     UART_LOG_PutString("CLOCK__incrementWidget\n");
 584:SourceFiles\asw/swc_clock_control.c ****     
 585:SourceFiles\asw/swc_clock_control.c ****     //Read the state object (container).
 586:SourceFiles\asw/swc_clock_control.c ****     SC_CLOCK_data_t clock = RTE_SC_CLOCK_get(&SO_CLOCK_signal);
 587:SourceFiles\asw/swc_clock_control.c ****     
 588:SourceFiles\asw/swc_clock_control.c ****     CLOCK_State_t localState = clock.m_hours.m_state;
 589:SourceFiles\asw/swc_clock_control.c ****     
 590:SourceFiles\asw/swc_clock_control.c ****     // Check if the hours widget is in editing or auto-increment mode.
 591:SourceFiles\asw/swc_clock_control.c ****     if(STATE_CLOCK_W_ISEDITING == localState || STATE_CLOCK_W_ISAUTOINCREMENT == localState)
 592:SourceFiles\asw/swc_clock_control.c ****     {
 593:SourceFiles\asw/swc_clock_control.c ****         clock.m_hours.m_value = (clock.m_hours.m_value + 1) % 24;
 594:SourceFiles\asw/swc_clock_control.c ****     }
 595:SourceFiles\asw/swc_clock_control.c ****     
 596:SourceFiles\asw/swc_clock_control.c ****     localState = clock.m_minutes.m_state;
 597:SourceFiles\asw/swc_clock_control.c ****     
 598:SourceFiles\asw/swc_clock_control.c ****     // Check if the minutes widget is in editing or auto-increment mode.
 599:SourceFiles\asw/swc_clock_control.c ****     if(STATE_CLOCK_W_ISEDITING == localState || STATE_CLOCK_W_ISAUTOINCREMENT == localState)
 600:SourceFiles\asw/swc_clock_control.c ****     {
 601:SourceFiles\asw/swc_clock_control.c ****         clock.m_minutes.m_value = (clock.m_minutes.m_value + 1) % 60;
 602:SourceFiles\asw/swc_clock_control.c ****     }
 603:SourceFiles\asw/swc_clock_control.c ****     
 604:SourceFiles\asw/swc_clock_control.c ****     //Write the changed values back to the clock object.
 605:SourceFiles\asw/swc_clock_control.c ****     RTE_SC_CLOCK_set(&SO_CLOCK_signal, clock);  
 606:SourceFiles\asw/swc_clock_control.c **** }
 607:SourceFiles\asw/swc_clock_control.c **** /**
 608:SourceFiles\asw/swc_clock_control.c ****  * @brief Entry function to ISAUTOINCREMENT widget state to set flag for increment at every 250 ms.
 609:SourceFiles\asw/swc_clock_control.c ****  */
 610:SourceFiles\asw/swc_clock_control.c **** static void CLOCK_setAutoIncrement()
ARM GAS  C:\Users\JASON\AppData\Local\Temp\cct5bgFA.s 			page 13


 611:SourceFiles\asw/swc_clock_control.c **** {
  75              		.loc 1 611 0
  76              		.cfi_startproc
  77              		@ args = 0, pretend = 0, frame = 0
  78              		@ frame_needed = 0, uses_anonymous_args = 0
  79              		@ link register save eliminated.
 612:SourceFiles\asw/swc_clock_control.c ****     SETFLAG(autoIncrement_st);
  80              		.loc 1 612 0
  81 0000 0122     		movs	r2, #1
  82 0002 014B     		ldr	r3, .L8
  83 0004 5A70     		strb	r2, [r3, #1]
  84 0006 7047     		bx	lr
  85              	.L9:
  86              		.align	2
  87              	.L8:
  88 0008 00000000 		.word	.LANCHOR0
  89              		.cfi_endproc
  90              	.LFE149:
  91              		.size	CLOCK_setAutoIncrement, .-CLOCK_setAutoIncrement
  92              		.section	.text.CLOCK_resetAutoIncrement,"ax",%progbits
  93              		.align	2
  94              		.thumb
  95              		.thumb_func
  96              		.type	CLOCK_resetAutoIncrement, %function
  97              	CLOCK_resetAutoIncrement:
  98              	.LFB150:
 613:SourceFiles\asw/swc_clock_control.c **** }
 614:SourceFiles\asw/swc_clock_control.c **** /**
 615:SourceFiles\asw/swc_clock_control.c ****  * @brief Exit function from ISAUTOINCREMENT widget state to reset flag for increment at every 250 
 616:SourceFiles\asw/swc_clock_control.c ****  */
 617:SourceFiles\asw/swc_clock_control.c **** static void CLOCK_resetAutoIncrement()
 618:SourceFiles\asw/swc_clock_control.c **** {
  99              		.loc 1 618 0
 100              		.cfi_startproc
 101              		@ args = 0, pretend = 0, frame = 0
 102              		@ frame_needed = 0, uses_anonymous_args = 0
 103              		@ link register save eliminated.
 619:SourceFiles\asw/swc_clock_control.c ****     RESETFLAG(autoIncrement_st);
 104              		.loc 1 619 0
 105 0000 0022     		movs	r2, #0
 106 0002 014B     		ldr	r3, .L11
 107 0004 5A70     		strb	r2, [r3, #1]
 108 0006 7047     		bx	lr
 109              	.L12:
 110              		.align	2
 111              	.L11:
 112 0008 00000000 		.word	.LANCHOR0
 113              		.cfi_endproc
 114              	.LFE150:
 115              		.size	CLOCK_resetAutoIncrement, .-CLOCK_resetAutoIncrement
 116              		.section	.text.CLOCK__dispatch_wrapper,"ax",%progbits
 117              		.align	2
 118              		.thumb
 119              		.thumb_func
 120              		.type	CLOCK__dispatch_wrapper, %function
 121              	CLOCK__dispatch_wrapper:
 122              	.LFB133:
ARM GAS  C:\Users\JASON\AppData\Local\Temp\cct5bgFA.s 			page 14


 352:SourceFiles\asw/swc_clock_control.c ****     //Read the state object (container)
 123              		.loc 1 352 0
 124              		.cfi_startproc
 125              		@ args = 0, pretend = 0, frame = 336
 126              		@ frame_needed = 0, uses_anonymous_args = 0
 127              	.LVL0:
 128 0000 F0B5     		push	{r4, r5, r6, r7, lr}
 129              		.cfi_def_cfa_offset 20
 130              		.cfi_offset 4, -20
 131              		.cfi_offset 5, -16
 132              		.cfi_offset 6, -12
 133              		.cfi_offset 7, -8
 134              		.cfi_offset 14, -4
 135 0002 D7B0     		sub	sp, sp, #348
 136              		.cfi_def_cfa_offset 368
 137 0004 0746     		mov	r7, r0
 138 0006 0E46     		mov	r6, r1
 139              	.LVL1:
 140              	.LBB70:
 141              	.LBB71:
 142              		.file 2 ".\\SourceFiles\\rte/sc_clock.h"
   1:.\SourceFiles\rte/sc_clock.h **** 
   2:.\SourceFiles\rte/sc_clock.h **** 
   3:.\SourceFiles\rte/sc_clock.h **** /**
   4:.\SourceFiles\rte/sc_clock.h **** *  file    SC_CLOCK_signal.h
   5:.\SourceFiles\rte/sc_clock.h **** *
   6:.\SourceFiles\rte/sc_clock.h **** *  brief   signal base class for signal sc_clock
   7:.\SourceFiles\rte/sc_clock.h **** *
   8:.\SourceFiles\rte/sc_clock.h **** *  author  Autogenerated, Peter Fromm       <peter.fromm@h-da.de>
   9:.\SourceFiles\rte/sc_clock.h **** *
  10:.\SourceFiles\rte/sc_clock.h **** *
  11:.\SourceFiles\rte/sc_clock.h **** */
  12:.\SourceFiles\rte/sc_clock.h **** 
  13:.\SourceFiles\rte/sc_clock.h **** /*
  14:.\SourceFiles\rte/sc_clock.h **** * description: Signalclass of the clock containig the hours and minutes.
  15:.\SourceFiles\rte/sc_clock.h **** * name: sc_CLOCK
  16:.\SourceFiles\rte/sc_clock.h **** * shortname: CLOCK
  17:.\SourceFiles\rte/sc_clock.h **** */
  18:.\SourceFiles\rte/sc_clock.h **** 
  19:.\SourceFiles\rte/sc_clock.h **** #ifndef SC_CLOCK_SIGNAL_H_INCLUDED
  20:.\SourceFiles\rte/sc_clock.h **** #define SC_CLOCK_SIGNAL_H_INCLUDED
  21:.\SourceFiles\rte/sc_clock.h **** 
  22:.\SourceFiles\rte/sc_clock.h **** /*================================================[ public includes  ]=============================
  23:.\SourceFiles\rte/sc_clock.h **** #include "global.h"
  24:.\SourceFiles\rte/sc_clock.h **** #include "project.h"
  25:.\SourceFiles\rte/sc_clock.h **** #include "rte.h"
  26:.\SourceFiles\rte/sc_clock.h **** #include "rte_types.h"
  27:.\SourceFiles\rte/sc_clock.h **** 
  28:.\SourceFiles\rte/sc_clock.h **** #include "sc_clock_type.h"
  29:.\SourceFiles\rte/sc_clock.h **** 
  30:.\SourceFiles\rte/sc_clock.h **** 
  31:.\SourceFiles\rte/sc_clock.h **** /**************************************************************************************************
  32:.\SourceFiles\rte/sc_clock.h **** /* The driver API block																						*/
  33:.\SourceFiles\rte/sc_clock.h **** /**************************************************************************************************
  34:.\SourceFiles\rte/sc_clock.h ****                                                                                                    
  35:.\SourceFiles\rte/sc_clock.h **** /**
  36:.\SourceFiles\rte/sc_clock.h ****  *  Definition of function types for driver interfaces.
ARM GAS  C:\Users\JASON\AppData\Local\Temp\cct5bgFA.s 			page 15


  37:.\SourceFiles\rte/sc_clock.h ****  *  I-Port
  38:.\SourceFiles\rte/sc_clock.h ****  */
  39:.\SourceFiles\rte/sc_clock.h **** typedef RC_t (*SC_CLOCK_driverIn_t)(SC_CLOCK_data_t * const);
  40:.\SourceFiles\rte/sc_clock.h **** 
  41:.\SourceFiles\rte/sc_clock.h **** /**
  42:.\SourceFiles\rte/sc_clock.h ****  *  Definition of function types for driver interfaces.
  43:.\SourceFiles\rte/sc_clock.h ****  *  O-Port
  44:.\SourceFiles\rte/sc_clock.h ****  */
  45:.\SourceFiles\rte/sc_clock.h **** typedef RC_t (*SC_CLOCK_driverOut_t)( const SC_CLOCK_data_t * const);
  46:.\SourceFiles\rte/sc_clock.h **** 
  47:.\SourceFiles\rte/sc_clock.h **** 
  48:.\SourceFiles\rte/sc_clock.h **** /**************************************************************************************************
  49:.\SourceFiles\rte/sc_clock.h **** /* The signal configuration API block																				*/
  50:.\SourceFiles\rte/sc_clock.h **** /**************************************************************************************************
  51:.\SourceFiles\rte/sc_clock.h **** 
  52:.\SourceFiles\rte/sc_clock.h **** /**
  53:.\SourceFiles\rte/sc_clock.h ****  * Instances of the struct SC_CLOCK_cfg_t represent the signal object configuration.
  54:.\SourceFiles\rte/sc_clock.h ****  */
  55:.\SourceFiles\rte/sc_clock.h **** struct SC_CLOCK_cfg_s
  56:.\SourceFiles\rte/sc_clock.h **** {
  57:.\SourceFiles\rte/sc_clock.h ****     /**
  58:.\SourceFiles\rte/sc_clock.h ****      * Function pointer to the input driver
  59:.\SourceFiles\rte/sc_clock.h ****      */
  60:.\SourceFiles\rte/sc_clock.h ****     SC_CLOCK_driverIn_t const inDriver;
  61:.\SourceFiles\rte/sc_clock.h **** 
  62:.\SourceFiles\rte/sc_clock.h ****     /**
  63:.\SourceFiles\rte/sc_clock.h ****      * Function pointer to the output driver table
  64:.\SourceFiles\rte/sc_clock.h ****      */
  65:.\SourceFiles\rte/sc_clock.h ****    SC_CLOCK_driverOut_t const outDriver;
  66:.\SourceFiles\rte/sc_clock.h ****    
  67:.\SourceFiles\rte/sc_clock.h ****     /**
  68:.\SourceFiles\rte/sc_clock.h ****      * Event onUpdate
  69:.\SourceFiles\rte/sc_clock.h ****      */
  70:.\SourceFiles\rte/sc_clock.h ****     EventMaskType const evOnUpdate;
  71:.\SourceFiles\rte/sc_clock.h ****     
  72:.\SourceFiles\rte/sc_clock.h ****     
  73:.\SourceFiles\rte/sc_clock.h ****     /**
  74:.\SourceFiles\rte/sc_clock.h ****      * Event onError
  75:.\SourceFiles\rte/sc_clock.h ****      */
  76:.\SourceFiles\rte/sc_clock.h ****     EventMaskType const evOnError;
  77:.\SourceFiles\rte/sc_clock.h ****     
  78:.\SourceFiles\rte/sc_clock.h ****     /**
  79:.\SourceFiles\rte/sc_clock.h ****      * Task Count onUpdate
  80:.\SourceFiles\rte/sc_clock.h ****      */
  81:.\SourceFiles\rte/sc_clock.h ****     size_t const onUpdateTaskCount;
  82:.\SourceFiles\rte/sc_clock.h **** 
  83:.\SourceFiles\rte/sc_clock.h ****     /**
  84:.\SourceFiles\rte/sc_clock.h ****      * Task List onUpdate
  85:.\SourceFiles\rte/sc_clock.h ****      */
  86:.\SourceFiles\rte/sc_clock.h ****     TaskTypeArray* const onUpdateTasks;
  87:.\SourceFiles\rte/sc_clock.h ****     
  88:.\SourceFiles\rte/sc_clock.h ****     /**
  89:.\SourceFiles\rte/sc_clock.h ****      * Task Count onError
  90:.\SourceFiles\rte/sc_clock.h ****      */
  91:.\SourceFiles\rte/sc_clock.h ****     size_t const onErrorTaskCount;
  92:.\SourceFiles\rte/sc_clock.h **** 
  93:.\SourceFiles\rte/sc_clock.h ****     /**
ARM GAS  C:\Users\JASON\AppData\Local\Temp\cct5bgFA.s 			page 16


  94:.\SourceFiles\rte/sc_clock.h ****      * Task List onError
  95:.\SourceFiles\rte/sc_clock.h ****      */
  96:.\SourceFiles\rte/sc_clock.h ****     TaskTypeArray* const onErrorTasks;
  97:.\SourceFiles\rte/sc_clock.h **** 	
  98:.\SourceFiles\rte/sc_clock.h **** 	
  99:.\SourceFiles\rte/sc_clock.h **** 	/**
 100:.\SourceFiles\rte/sc_clock.h **** 	 * Ressourse is active? We need an additional boolean as a ressource value 0 is valid.
 101:.\SourceFiles\rte/sc_clock.h **** 	 */
 102:.\SourceFiles\rte/sc_clock.h **** 	 boolean_t const resourceActive;
 103:.\SourceFiles\rte/sc_clock.h **** 	 
 104:.\SourceFiles\rte/sc_clock.h **** 	/**
 105:.\SourceFiles\rte/sc_clock.h **** 	 * Ressourse 
 106:.\SourceFiles\rte/sc_clock.h **** 	 */
 107:.\SourceFiles\rte/sc_clock.h **** 	 ResourceType const resource;
 108:.\SourceFiles\rte/sc_clock.h **** 
 109:.\SourceFiles\rte/sc_clock.h **** };                                                                                                 
 110:.\SourceFiles\rte/sc_clock.h **** typedef const struct SC_CLOCK_cfg_s SC_CLOCK_cfg_t;
 111:.\SourceFiles\rte/sc_clock.h ****                               
 112:.\SourceFiles\rte/sc_clock.h **** /**************************************************************************************************
 113:.\SourceFiles\rte/sc_clock.h **** /* The data interface block																							*/
 114:.\SourceFiles\rte/sc_clock.h **** /**************************************************************************************************
 115:.\SourceFiles\rte/sc_clock.h **** 
 116:.\SourceFiles\rte/sc_clock.h ****                                                                                                    
 117:.\SourceFiles\rte/sc_clock.h **** 							  
 118:.\SourceFiles\rte/sc_clock.h **** /**
 119:.\SourceFiles\rte/sc_clock.h ****  * Instances of the struct SC_CLOCK_t represent the signal objects.
 120:.\SourceFiles\rte/sc_clock.h ****  * A signal object contains the current application value 'value' as well as relevant meta data.
 121:.\SourceFiles\rte/sc_clock.h ****  */
 122:.\SourceFiles\rte/sc_clock.h **** struct SC_CLOCK_s
 123:.\SourceFiles\rte/sc_clock.h **** {                                                                                                  
 124:.\SourceFiles\rte/sc_clock.h **** 
 125:.\SourceFiles\rte/sc_clock.h **** 	/**
 126:.\SourceFiles\rte/sc_clock.h **** 	 * Data buffer for the application value
 127:.\SourceFiles\rte/sc_clock.h **** 	 */
 128:.\SourceFiles\rte/sc_clock.h ****     SC_CLOCK_data_t value;
 129:.\SourceFiles\rte/sc_clock.h **** 
 130:.\SourceFiles\rte/sc_clock.h ****     /**
 131:.\SourceFiles\rte/sc_clock.h ****      * Current signal status
 132:.\SourceFiles\rte/sc_clock.h ****      */
 133:.\SourceFiles\rte/sc_clock.h ****     RTE_signalStatus_t status;
 134:.\SourceFiles\rte/sc_clock.h **** 
 135:.\SourceFiles\rte/sc_clock.h ****     /**
 136:.\SourceFiles\rte/sc_clock.h ****      * Current age of the signal (in calling cycles)
 137:.\SourceFiles\rte/sc_clock.h ****      */
 138:.\SourceFiles\rte/sc_clock.h ****     uint32_t age;
 139:.\SourceFiles\rte/sc_clock.h **** 
 140:.\SourceFiles\rte/sc_clock.h ****     /**
 141:.\SourceFiles\rte/sc_clock.h ****      * Pointer to the signal configuration
 142:.\SourceFiles\rte/sc_clock.h ****      */
 143:.\SourceFiles\rte/sc_clock.h **** 	const SC_CLOCK_cfg_t * const    pSigCfg;
 144:.\SourceFiles\rte/sc_clock.h **** 
 145:.\SourceFiles\rte/sc_clock.h **** };                                                                                                 
 146:.\SourceFiles\rte/sc_clock.h **** typedef struct SC_CLOCK_s SC_CLOCK_t;
 147:.\SourceFiles\rte/sc_clock.h **** 
 148:.\SourceFiles\rte/sc_clock.h **** /**************************************************************************************************
 149:.\SourceFiles\rte/sc_clock.h **** /* Signal initialisation   																							*/
 150:.\SourceFiles\rte/sc_clock.h **** /**************************************************************************************************
ARM GAS  C:\Users\JASON\AppData\Local\Temp\cct5bgFA.s 			page 17


 151:.\SourceFiles\rte/sc_clock.h **** 
 152:.\SourceFiles\rte/sc_clock.h **** /**
 153:.\SourceFiles\rte/sc_clock.h ****  * Initializes a signal instance with a passed init value.
 154:.\SourceFiles\rte/sc_clock.h ****  * Depending on the configured conversion or scaling function the raw_value will be calculated.
 155:.\SourceFiles\rte/sc_clock.h ****  * Signal status will change from RTE_SIGNALSTATUS_STARTUP to RTE_SIGNALSTATUS_INITIALIZED.
 156:.\SourceFiles\rte/sc_clock.h ****  *
 157:.\SourceFiles\rte/sc_clock.h ****  * @param  SC_CLOCK_t * const signal: Pointer to the signal object which will be initialised
 158:.\SourceFiles\rte/sc_clock.h ****  * @param const sc_clock_data_t * const value: Pointer to initial value of the application data
 159:.\SourceFiles\rte/sc_clock.h ****  * @return RC_t: standard return code, currently only RC_SUCCESS
 160:.\SourceFiles\rte/sc_clock.h ****  *
 161:.\SourceFiles\rte/sc_clock.h ****  **/
 162:.\SourceFiles\rte/sc_clock.h **** inline RC_t RTE_SC_CLOCK_init( SC_CLOCK_t * const signal, const SC_CLOCK_data_t * const value )
 163:.\SourceFiles\rte/sc_clock.h **** {                                                                                                  
 164:.\SourceFiles\rte/sc_clock.h **** 
 165:.\SourceFiles\rte/sc_clock.h ****    RC_t ret = RC_SUCCESS;
 166:.\SourceFiles\rte/sc_clock.h **** 
 167:.\SourceFiles\rte/sc_clock.h ****    //Set value and raw value
 168:.\SourceFiles\rte/sc_clock.h ****    signal->value  = *value;
 169:.\SourceFiles\rte/sc_clock.h ****    signal->age    = 0;
 170:.\SourceFiles\rte/sc_clock.h ****    signal->status = RTE_SIGNALSTATUS_INITIALIZED;
 171:.\SourceFiles\rte/sc_clock.h **** 
 172:.\SourceFiles\rte/sc_clock.h ****    return ret;
 173:.\SourceFiles\rte/sc_clock.h **** }
 174:.\SourceFiles\rte/sc_clock.h **** 
 175:.\SourceFiles\rte/sc_clock.h **** /**************************************************************************************************
 176:.\SourceFiles\rte/sc_clock.h **** /* Status and timeout control																						*/
 177:.\SourceFiles\rte/sc_clock.h **** /**************************************************************************************************
 178:.\SourceFiles\rte/sc_clock.h **** 
 179:.\SourceFiles\rte/sc_clock.h **** /**
 180:.\SourceFiles\rte/sc_clock.h ****  *  Returns the current signal status of the passed signal instance.
 181:.\SourceFiles\rte/sc_clock.h ****  *
 182:.\SourceFiles\rte/sc_clock.h ****  * @param  SC_CLOCK_t * const signal: Pointer to the signal object
 183:.\SourceFiles\rte/sc_clock.h ****  * @return  sig_status_t: The current signal status
 184:.\SourceFiles\rte/sc_clock.h ****  *
 185:.\SourceFiles\rte/sc_clock.h ****  **/
 186:.\SourceFiles\rte/sc_clock.h **** inline RTE_signalStatus_t RTE_SC_CLOCK_getStatus( const SC_CLOCK_t * const signal )
 187:.\SourceFiles\rte/sc_clock.h **** {
 188:.\SourceFiles\rte/sc_clock.h ****    return signal->status;
 189:.\SourceFiles\rte/sc_clock.h **** }
 190:.\SourceFiles\rte/sc_clock.h **** 
 191:.\SourceFiles\rte/sc_clock.h **** 
 192:.\SourceFiles\rte/sc_clock.h **** /**
 193:.\SourceFiles\rte/sc_clock.h ****  *  Sets a new signal status of the passed signal instance by passing the new status.
 194:.\SourceFiles\rte/sc_clock.h ****  *
 195:.\SourceFiles\rte/sc_clock.h ****  * @param  SC_CLOCK_t * const signal: Pointer to the signal object
 196:.\SourceFiles\rte/sc_clock.h ****  * @param  const sig_status_t status: New signal status
 197:.\SourceFiles\rte/sc_clock.h ****  * @return RC_t: standard return code, currently only RC_SUCCESS
 198:.\SourceFiles\rte/sc_clock.h ****  *
 199:.\SourceFiles\rte/sc_clock.h ****  */
 200:.\SourceFiles\rte/sc_clock.h **** inline RC_t RTE_SC_CLOCK_setStatus( SC_CLOCK_t * const signal, const RTE_signalStatus_t status )
 201:.\SourceFiles\rte/sc_clock.h **** {
 202:.\SourceFiles\rte/sc_clock.h ****    signal->status = status;
 203:.\SourceFiles\rte/sc_clock.h ****    size_t taskNum=0;
 204:.\SourceFiles\rte/sc_clock.h ****    
 205:.\SourceFiles\rte/sc_clock.h ****    //Fire error events in case of invalid state
 206:.\SourceFiles\rte/sc_clock.h ****    if (signal->status == RTE_SIGNALSTATUS_INVALID)
 207:.\SourceFiles\rte/sc_clock.h ****    {
ARM GAS  C:\Users\JASON\AppData\Local\Temp\cct5bgFA.s 			page 18


 208:.\SourceFiles\rte/sc_clock.h **** 	    //Pointer to the Taskarray, containing the tasks receiving the onUpdate events
 209:.\SourceFiles\rte/sc_clock.h **** 		TaskTypeArray* pTaskArray = signal->pSigCfg->onErrorTasks;
 210:.\SourceFiles\rte/sc_clock.h **** 
 211:.\SourceFiles\rte/sc_clock.h **** 		if (NULL!=signal->pSigCfg->evOnError && NULL != pTaskArray){
 212:.\SourceFiles\rte/sc_clock.h **** 			for( taskNum=0 ; taskNum < signal->pSigCfg->onErrorTaskCount ;taskNum++){
 213:.\SourceFiles\rte/sc_clock.h **** 				TaskType task = (*pTaskArray)[taskNum];
 214:.\SourceFiles\rte/sc_clock.h **** 				SetEvent( task, signal->pSigCfg->evOnError);
 215:.\SourceFiles\rte/sc_clock.h **** 			}
 216:.\SourceFiles\rte/sc_clock.h **** 		}
 217:.\SourceFiles\rte/sc_clock.h ****    }
 218:.\SourceFiles\rte/sc_clock.h ****    
 219:.\SourceFiles\rte/sc_clock.h ****    return RC_SUCCESS;
 220:.\SourceFiles\rte/sc_clock.h **** }
 221:.\SourceFiles\rte/sc_clock.h **** 
 222:.\SourceFiles\rte/sc_clock.h **** 
 223:.\SourceFiles\rte/sc_clock.h **** /**
 224:.\SourceFiles\rte/sc_clock.h ****  * Returns the count of refreshing trials (refresh, set or set_raw) that failed.
 225:.\SourceFiles\rte/sc_clock.h ****  * Prerquisite: The signal is refreshed cyclically
 226:.\SourceFiles\rte/sc_clock.h ****  *
 227:.\SourceFiles\rte/sc_clock.h ****  * @param  SC_CLOCK_t * const signal: Pointer to the signal object
 228:.\SourceFiles\rte/sc_clock.h ****  * @return uint32_t: Number of cycles since the signal has been updated for the last time
 229:.\SourceFiles\rte/sc_clock.h ****  */
 230:.\SourceFiles\rte/sc_clock.h **** inline uint32_t RTE_SC_CLOCK_getAge( const SC_CLOCK_t * const signal )
 231:.\SourceFiles\rte/sc_clock.h **** {
 232:.\SourceFiles\rte/sc_clock.h ****    return signal->age;
 233:.\SourceFiles\rte/sc_clock.h **** }
 234:.\SourceFiles\rte/sc_clock.h **** 
 235:.\SourceFiles\rte/sc_clock.h **** /**
 236:.\SourceFiles\rte/sc_clock.h ****  * Should be called by application or driver if no new value can be provided.
 237:.\SourceFiles\rte/sc_clock.h ****  * @param  SC_CLOCK_t * const signal: Pointer to the signal object
 238:.\SourceFiles\rte/sc_clock.h ****  * @param uint32_t increment: incrementvalue, typically in [ms]
 239:.\SourceFiles\rte/sc_clock.h ****  * @return void
 240:.\SourceFiles\rte/sc_clock.h ****  */
 241:.\SourceFiles\rte/sc_clock.h **** inline void RTE_SC_CLOCK_incAge(  SC_CLOCK_t * const signal , uint32_t increment)
 242:.\SourceFiles\rte/sc_clock.h **** {
 243:.\SourceFiles\rte/sc_clock.h **** 	   //Hack....
 244:.\SourceFiles\rte/sc_clock.h **** 	   if ( 0xFFFF0000 > (signal->age + increment) )
 245:.\SourceFiles\rte/sc_clock.h **** 	   {
 246:.\SourceFiles\rte/sc_clock.h **** 	      signal->age += increment;
 247:.\SourceFiles\rte/sc_clock.h **** 	   }
 248:.\SourceFiles\rte/sc_clock.h **** }
 249:.\SourceFiles\rte/sc_clock.h **** 
 250:.\SourceFiles\rte/sc_clock.h **** 
 251:.\SourceFiles\rte/sc_clock.h **** /**************************************************************************************************
 252:.\SourceFiles\rte/sc_clock.h **** /* Application Data read/write Interface																			*/
 253:.\SourceFiles\rte/sc_clock.h **** /**************************************************************************************************
 254:.\SourceFiles\rte/sc_clock.h **** 
 255:.\SourceFiles\rte/sc_clock.h **** /**
 256:.\SourceFiles\rte/sc_clock.h ****  * Returns the current application value of the passed signal instance.
 257:.\SourceFiles\rte/sc_clock.h ****  *
 258:.\SourceFiles\rte/sc_clock.h ****  * @param  SC_CLOCK_t * const signal: Pointer to the signal object
 259:.\SourceFiles\rte/sc_clock.h ****  * @return sc_clock_data_t: current value of the application data buffer
 260:.\SourceFiles\rte/sc_clock.h ****  *
 261:.\SourceFiles\rte/sc_clock.h ****  **/
 262:.\SourceFiles\rte/sc_clock.h **** inline SC_CLOCK_data_t RTE_SC_CLOCK_get( const SC_CLOCK_t * const signal )
 263:.\SourceFiles\rte/sc_clock.h **** {               
 264:.\SourceFiles\rte/sc_clock.h ****    //Todo: Critical region cannot be protected using return values																						
ARM GAS  C:\Users\JASON\AppData\Local\Temp\cct5bgFA.s 			page 19


 265:.\SourceFiles\rte/sc_clock.h ****    return signal->value;                                                                           
 143              		.loc 2 265 0
 144 0008 DFF86CE2 		ldr	lr, .L35
 145 000c 48AC     		add	r4, sp, #288
 146 000e 7546     		mov	r5, lr
 147 0010 0FCD     		ldmia	r5!, {r0, r1, r2, r3}
 148              	.LVL2:
 149 0012 0FC4     		stmia	r4!, {r0, r1, r2, r3}
 150 0014 0FCD     		ldmia	r5!, {r0, r1, r2, r3}
 151 0016 0FC4     		stmia	r4!, {r0, r1, r2, r3}
 152 0018 0FCD     		ldmia	r5!, {r0, r1, r2, r3}
 153 001a 0FC4     		stmia	r4!, {r0, r1, r2, r3}
 154 001c 95E80300 		ldmia	r5, {r0, r1}
 155 0020 84E80300 		stmia	r4, {r0, r1}
 156              	.LVL3:
 157              	.LBE71:
 158              	.LBE70:
 357:SourceFiles\asw/swc_clock_control.c ****     
 159              		.loc 1 357 0
 160 0024 8DF82C61 		strb	r6, [sp, #300]
 161              	.LVL4:
 162 0028 02AC     		add	r4, sp, #8
 163 002a 48AD     		add	r5, sp, #288
 164 002c 0FCD     		ldmia	r5!, {r0, r1, r2, r3}
 165 002e 0FC4     		stmia	r4!, {r0, r1, r2, r3}
 166 0030 0FCD     		ldmia	r5!, {r0, r1, r2, r3}
 167 0032 0FC4     		stmia	r4!, {r0, r1, r2, r3}
 168 0034 0FCD     		ldmia	r5!, {r0, r1, r2, r3}
 169 0036 0FC4     		stmia	r4!, {r0, r1, r2, r3}
 170 0038 95E80300 		ldmia	r5, {r0, r1}
 171 003c 84E80300 		stmia	r4, {r0, r1}
 172              	.LVL5:
 173              	.LBB72:
 174              	.LBB73:
 266:.\SourceFiles\rte/sc_clock.h **** }                                                                                                  
 267:.\SourceFiles\rte/sc_clock.h ****                                                                                                    
 268:.\SourceFiles\rte/sc_clock.h **** /**
 269:.\SourceFiles\rte/sc_clock.h ****  * Returns the current application value of the passed signal instance threadsafe.
 270:.\SourceFiles\rte/sc_clock.h ****  *
 271:.\SourceFiles\rte/sc_clock.h ****  * @param  SC_CLOCK_t * const signal: Pointer to the signal object
 272:.\SourceFiles\rte/sc_clock.h ****  * @param  SC_CLOCK_data_t* data: Pointer to the return data Pointer to the signal object
 273:.\SourceFiles\rte/sc_clock.h ****  * @return RC_SUCCESS
 274:.\SourceFiles\rte/sc_clock.h ****  *
 275:.\SourceFiles\rte/sc_clock.h ****  **/
 276:.\SourceFiles\rte/sc_clock.h **** inline RC_t RTE_SC_CLOCK_getThreadSafe( const SC_CLOCK_t * const signal, SC_CLOCK_data_t * const da
 277:.\SourceFiles\rte/sc_clock.h **** {    
 278:.\SourceFiles\rte/sc_clock.h ****    if (TRUE == signal->pSigCfg->resourceActive) GetResource(signal->pSigCfg->resource);
 279:.\SourceFiles\rte/sc_clock.h ****    *data = signal->value;
 280:.\SourceFiles\rte/sc_clock.h ****    if (TRUE == signal->pSigCfg->resourceActive) ReleaseResource(signal->pSigCfg->resource);        
 281:.\SourceFiles\rte/sc_clock.h **** 
 282:.\SourceFiles\rte/sc_clock.h ****    return RC_SUCCESS;                                                                   
 283:.\SourceFiles\rte/sc_clock.h ****    
 284:.\SourceFiles\rte/sc_clock.h **** }                                                                                                  
 285:.\SourceFiles\rte/sc_clock.h ****                                                                                                    
 286:.\SourceFiles\rte/sc_clock.h **** /**
 287:.\SourceFiles\rte/sc_clock.h ****  * Sets a new application value to the passed signal instance by passing the new value.
 288:.\SourceFiles\rte/sc_clock.h ****  * The corresponding driver raw value will be calculated immediately by using the default conversio
ARM GAS  C:\Users\JASON\AppData\Local\Temp\cct5bgFA.s 			page 20


 289:.\SourceFiles\rte/sc_clock.h ****  * signal specific scaling function.
 290:.\SourceFiles\rte/sc_clock.h ****  * The signal age will be set to 0 and the new status will be 'RTE_SIGNALSTATUS_VALID'.
 291:.\SourceFiles\rte/sc_clock.h ****  *
 292:.\SourceFiles\rte/sc_clock.h ****  * @param  SC_CLOCK_t * const signal: Pointer to the signal object
 293:.\SourceFiles\rte/sc_clock.h ****  * @param  sc_clock_data_t const value: value for the application data buffer
 294:.\SourceFiles\rte/sc_clock.h ****  * @return RC_t: standard return code, currently only RC_SUCCESS
 295:.\SourceFiles\rte/sc_clock.h ****  *
 296:.\SourceFiles\rte/sc_clock.h ****  **/
 297:.\SourceFiles\rte/sc_clock.h **** inline RC_t RTE_SC_CLOCK_set(SC_CLOCK_t * const signal, const SC_CLOCK_data_t value  )
 298:.\SourceFiles\rte/sc_clock.h **** {
 299:.\SourceFiles\rte/sc_clock.h **** 
 300:.\SourceFiles\rte/sc_clock.h ****    RC_t ret = RC_SUCCESS;
 301:.\SourceFiles\rte/sc_clock.h ****    size_t taskNum=0;
 302:.\SourceFiles\rte/sc_clock.h **** 
 303:.\SourceFiles\rte/sc_clock.h **** 
 304:.\SourceFiles\rte/sc_clock.h ****    if (TRUE == signal->pSigCfg->resourceActive) GetResource(signal->pSigCfg->resource);
 175              		.loc 2 304 0
 176 0040 DEF84030 		ldr	r3, [lr, #64]
 177 0044 93F82020 		ldrb	r2, [r3, #32]	@ zero_extendqisi2
 178 0048 012A     		cmp	r2, #1
 179 004a 02D1     		bne	.L14
 180 004c 586A     		ldr	r0, [r3, #36]
 181 004e FFF7FEFF 		bl	EE_oo_GetResource
 182              	.LVL6:
 183              	.L14:
 305:.\SourceFiles\rte/sc_clock.h ****    signal->value  = value;
 184              		.loc 2 305 0
 185 0052 DFF824E2 		ldr	lr, .L35
 186 0056 7446     		mov	r4, lr
 187 0058 02AD     		add	r5, sp, #8
 188 005a 0FCD     		ldmia	r5!, {r0, r1, r2, r3}
 189 005c 0FC4     		stmia	r4!, {r0, r1, r2, r3}
 190 005e 0FCD     		ldmia	r5!, {r0, r1, r2, r3}
 191 0060 0FC4     		stmia	r4!, {r0, r1, r2, r3}
 192 0062 0FCD     		ldmia	r5!, {r0, r1, r2, r3}
 193 0064 0FC4     		stmia	r4!, {r0, r1, r2, r3}
 194 0066 95E80300 		ldmia	r5, {r0, r1}
 195 006a 84E80300 		stmia	r4, {r0, r1}
 306:.\SourceFiles\rte/sc_clock.h ****    signal->age    = 0;
 196              		.loc 2 306 0
 197 006e 0023     		movs	r3, #0
 198 0070 CEF83C30 		str	r3, [lr, #60]
 307:.\SourceFiles\rte/sc_clock.h ****    signal->status = RTE_SIGNALSTATUS_VALID;
 199              		.loc 2 307 0
 200 0074 0223     		movs	r3, #2
 201 0076 8EF83830 		strb	r3, [lr, #56]
 308:.\SourceFiles\rte/sc_clock.h ****    if (TRUE == signal->pSigCfg->resourceActive) ReleaseResource(signal->pSigCfg->resource);
 202              		.loc 2 308 0
 203 007a DEF84030 		ldr	r3, [lr, #64]
 204 007e 93F82020 		ldrb	r2, [r3, #32]	@ zero_extendqisi2
 205 0082 012A     		cmp	r2, #1
 206 0084 02D1     		bne	.L15
 207 0086 586A     		ldr	r0, [r3, #36]
 208 0088 FFF7FEFF 		bl	EE_oo_ReleaseResource
 209              	.LVL7:
 210              	.L15:
 309:.\SourceFiles\rte/sc_clock.h **** 
ARM GAS  C:\Users\JASON\AppData\Local\Temp\cct5bgFA.s 			page 21


 310:.\SourceFiles\rte/sc_clock.h ****    //Pointer to the Taskarray, containing the tasks receiving the onUpdate events
 311:.\SourceFiles\rte/sc_clock.h ****    TaskTypeArray* pTaskArray = signal->pSigCfg->onUpdateTasks;
 211              		.loc 2 311 0
 212 008c 7A4B     		ldr	r3, .L35
 213 008e 1B6C     		ldr	r3, [r3, #64]
 214 0090 5D69     		ldr	r5, [r3, #20]
 215              	.LVL8:
 312:.\SourceFiles\rte/sc_clock.h **** 
 313:.\SourceFiles\rte/sc_clock.h ****    if (NULL!=signal->pSigCfg->evOnUpdate && NULL != pTaskArray){
 216              		.loc 2 313 0
 217 0092 9B68     		ldr	r3, [r3, #8]
 218 0094 73B1     		cbz	r3, .L16
 219 0096 3DB9     		cbnz	r5, .L31
 220 0098 0CE0     		b	.L16
 221              	.LVL9:
 222              	.L18:
 223              	.LBB74:
 314:.\SourceFiles\rte/sc_clock.h ****       for( taskNum=0 ; taskNum < signal->pSigCfg->onUpdateTaskCount ;taskNum++){
 315:.\SourceFiles\rte/sc_clock.h **** 		  
 316:.\SourceFiles\rte/sc_clock.h ****           TaskType task = (*pTaskArray)[taskNum];
 317:.\SourceFiles\rte/sc_clock.h **** 	      SetEvent( task, signal->pSigCfg->evOnUpdate);
 224              		.loc 2 317 0
 225 009a 9968     		ldr	r1, [r3, #8]
 226 009c 55F82400 		ldr	r0, [r5, r4, lsl #2]
 227 00a0 FFF7FEFF 		bl	EE_oo_SetEvent
 228              	.LVL10:
 229              	.LBE74:
 314:.\SourceFiles\rte/sc_clock.h ****       for( taskNum=0 ; taskNum < signal->pSigCfg->onUpdateTaskCount ;taskNum++){
 230              		.loc 2 314 0
 231 00a4 0134     		adds	r4, r4, #1
 232              	.LVL11:
 233 00a6 00E0     		b	.L17
 234              	.LVL12:
 235              	.L31:
 313:.\SourceFiles\rte/sc_clock.h ****       for( taskNum=0 ; taskNum < signal->pSigCfg->onUpdateTaskCount ;taskNum++){
 236              		.loc 2 313 0
 237 00a8 0024     		movs	r4, #0
 238              	.LVL13:
 239              	.L17:
 314:.\SourceFiles\rte/sc_clock.h ****       for( taskNum=0 ; taskNum < signal->pSigCfg->onUpdateTaskCount ;taskNum++){
 240              		.loc 2 314 0
 241 00aa 734B     		ldr	r3, .L35
 242 00ac 1B6C     		ldr	r3, [r3, #64]
 243 00ae 1A69     		ldr	r2, [r3, #16]
 244 00b0 9442     		cmp	r4, r2
 245 00b2 F2D3     		bcc	.L18
 246              	.LVL14:
 247              	.L16:
 248              	.LBE73:
 249              	.LBE72:
 365:SourceFiles\asw/swc_clock_control.c ****     {
 250              		.loc 1 365 0
 251 00b4 012E     		cmp	r6, #1
 252 00b6 6ED1     		bne	.L19
 253              	.LBB75:
 367:SourceFiles\asw/swc_clock_control.c **** 
 254              		.loc 1 367 0
ARM GAS  C:\Users\JASON\AppData\Local\Temp\cct5bgFA.s 			page 22


 255 00b8 9DF83021 		ldrb	r2, [sp, #304]	@ zero_extendqisi2
 256 00bc 56AB     		add	r3, sp, #344
 257 00be 03F8702D 		strb	r2, [r3, #-112]!
 370:SourceFiles\asw/swc_clock_control.c ****                                             CLOCK_StateActions, CLOCK_StateActions_size,
 258              		.loc 1 370 0
 259 00c2 6E48     		ldr	r0, .L35+4
 260 00c4 0193     		str	r3, [sp, #4]
 261 00c6 0097     		str	r7, [sp]
 262 00c8 0223     		movs	r3, #2
 263 00ca 0246     		mov	r2, r0
 264 00cc 0321     		movs	r1, #3
 265 00ce 1830     		adds	r0, r0, #24
 266 00d0 FFF7FEFF 		bl	STATE_processEvent
 267              	.LVL15:
 268              	.LBB76:
 269              	.LBB77:
 265:.\SourceFiles\rte/sc_clock.h **** }                                                                                                  
 270              		.loc 2 265 0
 271 00d4 684E     		ldr	r6, .L35
 272 00d6 1EAC     		add	r4, sp, #120
 273 00d8 3546     		mov	r5, r6
 274 00da 0FCD     		ldmia	r5!, {r0, r1, r2, r3}
 275 00dc 0FC4     		stmia	r4!, {r0, r1, r2, r3}
 276 00de 0FCD     		ldmia	r5!, {r0, r1, r2, r3}
 277 00e0 0FC4     		stmia	r4!, {r0, r1, r2, r3}
 278 00e2 0FCD     		ldmia	r5!, {r0, r1, r2, r3}
 279 00e4 0FC4     		stmia	r4!, {r0, r1, r2, r3}
 280 00e6 95E80300 		ldmia	r5, {r0, r1}
 281 00ea 84E80300 		stmia	r4, {r0, r1}
 282              	.LVL16:
 283              	.LBE77:
 284              	.LBE76:
 375:SourceFiles\asw/swc_clock_control.c ****         
 285              		.loc 1 375 0
 286 00ee 48AC     		add	r4, sp, #288
 287 00f0 1EAD     		add	r5, sp, #120
 288 00f2 0FCD     		ldmia	r5!, {r0, r1, r2, r3}
 289 00f4 0FC4     		stmia	r4!, {r0, r1, r2, r3}
 290 00f6 0FCD     		ldmia	r5!, {r0, r1, r2, r3}
 291 00f8 0FC4     		stmia	r4!, {r0, r1, r2, r3}
 292 00fa 0FCD     		ldmia	r5!, {r0, r1, r2, r3}
 293 00fc 0FC4     		stmia	r4!, {r0, r1, r2, r3}
 294 00fe 95E80300 		ldmia	r5, {r0, r1}
 295 0102 84E80300 		stmia	r4, {r0, r1}
 377:SourceFiles\asw/swc_clock_control.c **** 
 296              		.loc 1 377 0
 297 0106 9DF8E830 		ldrb	r3, [sp, #232]	@ zero_extendqisi2
 298 010a 8DF83031 		strb	r3, [sp, #304]
 299              	.LVL17:
 300 010e 10AC     		add	r4, sp, #64
 301 0110 48AD     		add	r5, sp, #288
 302 0112 0FCD     		ldmia	r5!, {r0, r1, r2, r3}
 303 0114 0FC4     		stmia	r4!, {r0, r1, r2, r3}
 304 0116 0FCD     		ldmia	r5!, {r0, r1, r2, r3}
 305 0118 0FC4     		stmia	r4!, {r0, r1, r2, r3}
 306 011a 0FCD     		ldmia	r5!, {r0, r1, r2, r3}
 307 011c 0FC4     		stmia	r4!, {r0, r1, r2, r3}
ARM GAS  C:\Users\JASON\AppData\Local\Temp\cct5bgFA.s 			page 23


 308 011e 95E80300 		ldmia	r5, {r0, r1}
 309 0122 84E80300 		stmia	r4, {r0, r1}
 310              	.LVL18:
 311              	.LBB78:
 312              	.LBB79:
 304:.\SourceFiles\rte/sc_clock.h ****    signal->value  = value;
 313              		.loc 2 304 0
 314 0126 336C     		ldr	r3, [r6, #64]
 315 0128 93F82020 		ldrb	r2, [r3, #32]	@ zero_extendqisi2
 316 012c 012A     		cmp	r2, #1
 317 012e 02D1     		bne	.L20
 318 0130 586A     		ldr	r0, [r3, #36]
 319 0132 FFF7FEFF 		bl	EE_oo_GetResource
 320              	.LVL19:
 321              	.L20:
 305:.\SourceFiles\rte/sc_clock.h ****    signal->age    = 0;
 322              		.loc 2 305 0
 323 0136 504E     		ldr	r6, .L35
 324 0138 3446     		mov	r4, r6
 325 013a 10AD     		add	r5, sp, #64
 326 013c 0FCD     		ldmia	r5!, {r0, r1, r2, r3}
 327 013e 0FC4     		stmia	r4!, {r0, r1, r2, r3}
 328 0140 0FCD     		ldmia	r5!, {r0, r1, r2, r3}
 329 0142 0FC4     		stmia	r4!, {r0, r1, r2, r3}
 330 0144 0FCD     		ldmia	r5!, {r0, r1, r2, r3}
 331 0146 0FC4     		stmia	r4!, {r0, r1, r2, r3}
 332 0148 95E80300 		ldmia	r5, {r0, r1}
 333 014c 84E80300 		stmia	r4, {r0, r1}
 306:.\SourceFiles\rte/sc_clock.h ****    signal->status = RTE_SIGNALSTATUS_VALID;
 334              		.loc 2 306 0
 335 0150 0023     		movs	r3, #0
 336 0152 F363     		str	r3, [r6, #60]
 307:.\SourceFiles\rte/sc_clock.h ****    if (TRUE == signal->pSigCfg->resourceActive) ReleaseResource(signal->pSigCfg->resource);
 337              		.loc 2 307 0
 338 0154 0223     		movs	r3, #2
 339 0156 86F83830 		strb	r3, [r6, #56]
 308:.\SourceFiles\rte/sc_clock.h **** 
 340              		.loc 2 308 0
 341 015a 336C     		ldr	r3, [r6, #64]
 342 015c 93F82020 		ldrb	r2, [r3, #32]	@ zero_extendqisi2
 343 0160 012A     		cmp	r2, #1
 344 0162 02D1     		bne	.L21
 345 0164 586A     		ldr	r0, [r3, #36]
 346 0166 FFF7FEFF 		bl	EE_oo_ReleaseResource
 347              	.LVL20:
 348              	.L21:
 311:.\SourceFiles\rte/sc_clock.h **** 
 349              		.loc 2 311 0
 350 016a 434B     		ldr	r3, .L35
 351 016c 1B6C     		ldr	r3, [r3, #64]
 352 016e 5D69     		ldr	r5, [r3, #20]
 353              	.LVL21:
 313:.\SourceFiles\rte/sc_clock.h ****       for( taskNum=0 ; taskNum < signal->pSigCfg->onUpdateTaskCount ;taskNum++){
 354              		.loc 2 313 0
 355 0170 9B68     		ldr	r3, [r3, #8]
 356 0172 002B     		cmp	r3, #0
 357 0174 7ED0     		beq	.L13
ARM GAS  C:\Users\JASON\AppData\Local\Temp\cct5bgFA.s 			page 24


 358 0176 3DB9     		cbnz	r5, .L32
 359 0178 7CE0     		b	.L13
 360              	.LVL22:
 361              	.L24:
 362              	.LBB80:
 363              		.loc 2 317 0
 364 017a 9968     		ldr	r1, [r3, #8]
 365 017c 55F82400 		ldr	r0, [r5, r4, lsl #2]
 366 0180 FFF7FEFF 		bl	EE_oo_SetEvent
 367              	.LVL23:
 368              	.LBE80:
 314:.\SourceFiles\rte/sc_clock.h **** 		  
 369              		.loc 2 314 0
 370 0184 0134     		adds	r4, r4, #1
 371              	.LVL24:
 372 0186 00E0     		b	.L23
 373              	.LVL25:
 374              	.L32:
 313:.\SourceFiles\rte/sc_clock.h ****       for( taskNum=0 ; taskNum < signal->pSigCfg->onUpdateTaskCount ;taskNum++){
 375              		.loc 2 313 0
 376 0188 0024     		movs	r4, #0
 377              	.LVL26:
 378              	.L23:
 314:.\SourceFiles\rte/sc_clock.h **** 		  
 379              		.loc 2 314 0
 380 018a 3B4B     		ldr	r3, .L35
 381 018c 1B6C     		ldr	r3, [r3, #64]
 382 018e 1A69     		ldr	r2, [r3, #16]
 383 0190 9442     		cmp	r4, r2
 384 0192 F2D3     		bcc	.L24
 385 0194 6EE0     		b	.L13
 386              	.LVL27:
 387              	.L19:
 388              	.LBE79:
 389              	.LBE78:
 390              	.LBE75:
 382:SourceFiles\asw/swc_clock_control.c ****     {
 391              		.loc 1 382 0
 392 0196 022E     		cmp	r6, #2
 393 0198 6CD1     		bne	.L13
 394              	.LBB81:
 384:SourceFiles\asw/swc_clock_control.c ****         
 395              		.loc 1 384 0 discriminator 2
 396 019a 9DF84421 		ldrb	r2, [sp, #324]	@ zero_extendqisi2
 397 019e 56AB     		add	r3, sp, #344
 398 01a0 03F8E02D 		strb	r2, [r3, #-224]!
 387:SourceFiles\asw/swc_clock_control.c ****                                             CLOCK_StateActions, CLOCK_StateActions_size,
 399              		.loc 1 387 0 discriminator 2
 400 01a4 3548     		ldr	r0, .L35+4
 401 01a6 0193     		str	r3, [sp, #4]
 402 01a8 0097     		str	r7, [sp]
 403 01aa 0223     		movs	r3, #2
 404 01ac 0246     		mov	r2, r0
 405 01ae 0321     		movs	r1, #3
 406 01b0 1830     		adds	r0, r0, #24
 407 01b2 FFF7FEFF 		bl	STATE_processEvent
 408              	.LVL28:
ARM GAS  C:\Users\JASON\AppData\Local\Temp\cct5bgFA.s 			page 25


 409              	.LBB82:
 410              	.LBB83:
 265:.\SourceFiles\rte/sc_clock.h **** }                                                                                                  
 411              		.loc 2 265 0 discriminator 2
 412 01b6 304E     		ldr	r6, .L35
 413 01b8 3AAC     		add	r4, sp, #232
 414 01ba 3546     		mov	r5, r6
 415 01bc 0FCD     		ldmia	r5!, {r0, r1, r2, r3}
 416 01be 0FC4     		stmia	r4!, {r0, r1, r2, r3}
 417 01c0 0FCD     		ldmia	r5!, {r0, r1, r2, r3}
 418 01c2 0FC4     		stmia	r4!, {r0, r1, r2, r3}
 419 01c4 0FCD     		ldmia	r5!, {r0, r1, r2, r3}
 420 01c6 0FC4     		stmia	r4!, {r0, r1, r2, r3}
 421 01c8 95E80300 		ldmia	r5, {r0, r1}
 422 01cc 84E80300 		stmia	r4, {r0, r1}
 423              	.LVL29:
 424              	.LBE83:
 425              	.LBE82:
 392:SourceFiles\asw/swc_clock_control.c ****         
 426              		.loc 1 392 0 discriminator 2
 427 01d0 48AC     		add	r4, sp, #288
 428 01d2 3AAD     		add	r5, sp, #232
 429 01d4 0FCD     		ldmia	r5!, {r0, r1, r2, r3}
 430 01d6 0FC4     		stmia	r4!, {r0, r1, r2, r3}
 431 01d8 0FCD     		ldmia	r5!, {r0, r1, r2, r3}
 432 01da 0FC4     		stmia	r4!, {r0, r1, r2, r3}
 433 01dc 0FCD     		ldmia	r5!, {r0, r1, r2, r3}
 434 01de 0FC4     		stmia	r4!, {r0, r1, r2, r3}
 435 01e0 95E80300 		ldmia	r5, {r0, r1}
 436 01e4 84E80300 		stmia	r4, {r0, r1}
 394:SourceFiles\asw/swc_clock_control.c ****         
 437              		.loc 1 394 0 discriminator 2
 438 01e8 9DF87830 		ldrb	r3, [sp, #120]	@ zero_extendqisi2
 439 01ec 8DF84431 		strb	r3, [sp, #324]
 440              	.LVL30:
 441 01f0 2CAC     		add	r4, sp, #176
 442 01f2 48AD     		add	r5, sp, #288
 443 01f4 0FCD     		ldmia	r5!, {r0, r1, r2, r3}
 444 01f6 0FC4     		stmia	r4!, {r0, r1, r2, r3}
 445 01f8 0FCD     		ldmia	r5!, {r0, r1, r2, r3}
 446 01fa 0FC4     		stmia	r4!, {r0, r1, r2, r3}
 447 01fc 0FCD     		ldmia	r5!, {r0, r1, r2, r3}
 448 01fe 0FC4     		stmia	r4!, {r0, r1, r2, r3}
 449 0200 95E80300 		ldmia	r5, {r0, r1}
 450 0204 84E80300 		stmia	r4, {r0, r1}
 451              	.LVL31:
 452              	.LBB84:
 453              	.LBB85:
 304:.\SourceFiles\rte/sc_clock.h ****    signal->value  = value;
 454              		.loc 2 304 0 discriminator 2
 455 0208 336C     		ldr	r3, [r6, #64]
 456 020a 93F82020 		ldrb	r2, [r3, #32]	@ zero_extendqisi2
 457 020e 012A     		cmp	r2, #1
 458 0210 02D1     		bne	.L26
 304:.\SourceFiles\rte/sc_clock.h ****    signal->value  = value;
 459              		.loc 2 304 0 is_stmt 0
 460 0212 586A     		ldr	r0, [r3, #36]
ARM GAS  C:\Users\JASON\AppData\Local\Temp\cct5bgFA.s 			page 26


 461 0214 FFF7FEFF 		bl	EE_oo_GetResource
 462              	.LVL32:
 463              	.L26:
 305:.\SourceFiles\rte/sc_clock.h ****    signal->age    = 0;
 464              		.loc 2 305 0 is_stmt 1
 465 0218 174E     		ldr	r6, .L35
 466 021a 3446     		mov	r4, r6
 467 021c 2CAD     		add	r5, sp, #176
 468 021e 0FCD     		ldmia	r5!, {r0, r1, r2, r3}
 469 0220 0FC4     		stmia	r4!, {r0, r1, r2, r3}
 470 0222 0FCD     		ldmia	r5!, {r0, r1, r2, r3}
 471 0224 0FC4     		stmia	r4!, {r0, r1, r2, r3}
 472 0226 0FCD     		ldmia	r5!, {r0, r1, r2, r3}
 473 0228 0FC4     		stmia	r4!, {r0, r1, r2, r3}
 474 022a 95E80300 		ldmia	r5, {r0, r1}
 475 022e 84E80300 		stmia	r4, {r0, r1}
 306:.\SourceFiles\rte/sc_clock.h ****    signal->status = RTE_SIGNALSTATUS_VALID;
 476              		.loc 2 306 0
 477 0232 0023     		movs	r3, #0
 478 0234 F363     		str	r3, [r6, #60]
 307:.\SourceFiles\rte/sc_clock.h ****    if (TRUE == signal->pSigCfg->resourceActive) ReleaseResource(signal->pSigCfg->resource);
 479              		.loc 2 307 0
 480 0236 0223     		movs	r3, #2
 481 0238 86F83830 		strb	r3, [r6, #56]
 308:.\SourceFiles\rte/sc_clock.h **** 
 482              		.loc 2 308 0
 483 023c 336C     		ldr	r3, [r6, #64]
 484 023e 93F82020 		ldrb	r2, [r3, #32]	@ zero_extendqisi2
 485 0242 012A     		cmp	r2, #1
 486 0244 02D1     		bne	.L27
 487 0246 586A     		ldr	r0, [r3, #36]
 488 0248 FFF7FEFF 		bl	EE_oo_ReleaseResource
 489              	.LVL33:
 490              	.L27:
 311:.\SourceFiles\rte/sc_clock.h **** 
 491              		.loc 2 311 0
 492 024c 0A4B     		ldr	r3, .L35
 493 024e 1B6C     		ldr	r3, [r3, #64]
 494 0250 5D69     		ldr	r5, [r3, #20]
 495              	.LVL34:
 313:.\SourceFiles\rte/sc_clock.h ****       for( taskNum=0 ; taskNum < signal->pSigCfg->onUpdateTaskCount ;taskNum++){
 496              		.loc 2 313 0
 497 0252 9B68     		ldr	r3, [r3, #8]
 498 0254 73B1     		cbz	r3, .L13
 499 0256 3DB9     		cbnz	r5, .L33
 500 0258 0CE0     		b	.L13
 501              	.LVL35:
 502              	.L30:
 503              	.LBB86:
 504              		.loc 2 317 0
 505 025a 9968     		ldr	r1, [r3, #8]
 506 025c 55F82400 		ldr	r0, [r5, r4, lsl #2]
 507 0260 FFF7FEFF 		bl	EE_oo_SetEvent
 508              	.LVL36:
 509              	.LBE86:
 314:.\SourceFiles\rte/sc_clock.h **** 		  
 510              		.loc 2 314 0
ARM GAS  C:\Users\JASON\AppData\Local\Temp\cct5bgFA.s 			page 27


 511 0264 0134     		adds	r4, r4, #1
 512              	.LVL37:
 513 0266 00E0     		b	.L29
 514              	.LVL38:
 515              	.L33:
 313:.\SourceFiles\rte/sc_clock.h ****       for( taskNum=0 ; taskNum < signal->pSigCfg->onUpdateTaskCount ;taskNum++){
 516              		.loc 2 313 0
 517 0268 0024     		movs	r4, #0
 518              	.LVL39:
 519              	.L29:
 314:.\SourceFiles\rte/sc_clock.h **** 		  
 520              		.loc 2 314 0
 521 026a 034B     		ldr	r3, .L35
 522 026c 1B6C     		ldr	r3, [r3, #64]
 523 026e 1A69     		ldr	r2, [r3, #16]
 524 0270 9442     		cmp	r4, r2
 525 0272 F2D3     		bcc	.L30
 526              	.LVL40:
 527              	.L13:
 528              	.LBE85:
 529              	.LBE84:
 530              	.LBE81:
 399:SourceFiles\asw/swc_clock_control.c **** /**
 531              		.loc 1 399 0
 532 0274 57B0     		add	sp, sp, #348
 533              		.cfi_def_cfa_offset 20
 534              		@ sp needed
 535 0276 F0BD     		pop	{r4, r5, r6, r7, pc}
 536              	.L36:
 537              		.align	2
 538              	.L35:
 539 0278 00000000 		.word	SO_CLOCK_signal
 540 027c 00000000 		.word	.LANCHOR1
 541              		.cfi_endproc
 542              	.LFE133:
 543              		.size	CLOCK__dispatch_wrapper, .-CLOCK__dispatch_wrapper
 544              		.section	.text.CLOCK__dispatch_250MS_Hours,"ax",%progbits
 545              		.align	2
 546              		.thumb
 547              		.thumb_func
 548              		.type	CLOCK__dispatch_250MS_Hours, %function
 549              	CLOCK__dispatch_250MS_Hours:
 550              	.LFB141:
 471:SourceFiles\asw/swc_clock_control.c ****     UART_LOG_PutString("CLOCK__dispatch_250MS_Hours\n");
 551              		.loc 1 471 0
 552              		.cfi_startproc
 553              		@ args = 0, pretend = 0, frame = 0
 554              		@ frame_needed = 0, uses_anonymous_args = 0
 555 0000 08B5     		push	{r3, lr}
 556              		.cfi_def_cfa_offset 8
 557              		.cfi_offset 3, -8
 558              		.cfi_offset 14, -4
 472:SourceFiles\asw/swc_clock_control.c ****     CLOCK__dispatch_wrapper(EV_250MS, CLOCK_HOURWIDGET);
 559              		.loc 1 472 0
 560 0002 0448     		ldr	r0, .L39
 561 0004 FFF7FEFF 		bl	UART_LOG_PutString
 562              	.LVL41:
ARM GAS  C:\Users\JASON\AppData\Local\Temp\cct5bgFA.s 			page 28


 473:SourceFiles\asw/swc_clock_control.c **** }
 563              		.loc 1 473 0
 564 0008 0121     		movs	r1, #1
 565 000a 0420     		movs	r0, #4
 566 000c FFF7FEFF 		bl	CLOCK__dispatch_wrapper
 567              	.LVL42:
 568 0010 08BD     		pop	{r3, pc}
 569              	.L40:
 570 0012 00BF     		.align	2
 571              	.L39:
 572 0014 00000000 		.word	.LC0
 573              		.cfi_endproc
 574              	.LFE141:
 575              		.size	CLOCK__dispatch_250MS_Hours, .-CLOCK__dispatch_250MS_Hours
 576              		.section	.text.CLOCK__dispatch_KR_Hours,"ax",%progbits
 577              		.align	2
 578              		.thumb
 579              		.thumb_func
 580              		.type	CLOCK__dispatch_KR_Hours, %function
 581              	CLOCK__dispatch_KR_Hours:
 582              	.LFB135:
 412:SourceFiles\asw/swc_clock_control.c ****     UART_LOG_PutString("CLOCK__dispatch_KR_Hours\n");
 583              		.loc 1 412 0
 584              		.cfi_startproc
 585              		@ args = 0, pretend = 0, frame = 0
 586              		@ frame_needed = 0, uses_anonymous_args = 0
 587 0000 08B5     		push	{r3, lr}
 588              		.cfi_def_cfa_offset 8
 589              		.cfi_offset 3, -8
 590              		.cfi_offset 14, -4
 413:SourceFiles\asw/swc_clock_control.c ****     CLOCK__dispatch_wrapper(EV_KEYRIGHT, CLOCK_HOURWIDGET);
 591              		.loc 1 413 0
 592 0002 0448     		ldr	r0, .L43
 593 0004 FFF7FEFF 		bl	UART_LOG_PutString
 594              	.LVL43:
 414:SourceFiles\asw/swc_clock_control.c **** }
 595              		.loc 1 414 0
 596 0008 0121     		movs	r1, #1
 597 000a 0220     		movs	r0, #2
 598 000c FFF7FEFF 		bl	CLOCK__dispatch_wrapper
 599              	.LVL44:
 600 0010 08BD     		pop	{r3, pc}
 601              	.L44:
 602 0012 00BF     		.align	2
 603              	.L43:
 604 0014 20000000 		.word	.LC1
 605              		.cfi_endproc
 606              	.LFE135:
 607              		.size	CLOCK__dispatch_KR_Hours, .-CLOCK__dispatch_KR_Hours
 608              		.section	.text.CLOCK__dispatch_KL_HoursMin,"ax",%progbits
 609              		.align	2
 610              		.thumb
 611              		.thumb_func
 612              		.type	CLOCK__dispatch_KL_HoursMin, %function
 613              	CLOCK__dispatch_KL_HoursMin:
 614              	.LFB136:
 420:SourceFiles\asw/swc_clock_control.c ****     UART_LOG_PutString("CLOCK__dispatch_KL_HoursMin\n");
ARM GAS  C:\Users\JASON\AppData\Local\Temp\cct5bgFA.s 			page 29


 615              		.loc 1 420 0
 616              		.cfi_startproc
 617              		@ args = 0, pretend = 0, frame = 0
 618              		@ frame_needed = 0, uses_anonymous_args = 0
 619 0000 08B5     		push	{r3, lr}
 620              		.cfi_def_cfa_offset 8
 621              		.cfi_offset 3, -8
 622              		.cfi_offset 14, -4
 421:SourceFiles\asw/swc_clock_control.c ****     CLOCK__dispatch_wrapper(EV_KEYLEFT, CLOCK_HOURWIDGET);
 623              		.loc 1 421 0
 624 0002 0648     		ldr	r0, .L47
 625 0004 FFF7FEFF 		bl	UART_LOG_PutString
 626              	.LVL45:
 422:SourceFiles\asw/swc_clock_control.c ****     CLOCK__dispatch_wrapper(EV_KEYLEFT, CLOCK_MINWIDGET);
 627              		.loc 1 422 0
 628 0008 0121     		movs	r1, #1
 629 000a 0846     		mov	r0, r1
 630 000c FFF7FEFF 		bl	CLOCK__dispatch_wrapper
 631              	.LVL46:
 423:SourceFiles\asw/swc_clock_control.c **** }
 632              		.loc 1 423 0
 633 0010 0221     		movs	r1, #2
 634 0012 0120     		movs	r0, #1
 635 0014 FFF7FEFF 		bl	CLOCK__dispatch_wrapper
 636              	.LVL47:
 637 0018 08BD     		pop	{r3, pc}
 638              	.L48:
 639 001a 00BF     		.align	2
 640              	.L47:
 641 001c 3C000000 		.word	.LC2
 642              		.cfi_endproc
 643              	.LFE136:
 644              		.size	CLOCK__dispatch_KL_HoursMin, .-CLOCK__dispatch_KL_HoursMin
 645              		.section	.text.CLOCK__dispatch_250MS_Min,"ax",%progbits
 646              		.align	2
 647              		.thumb
 648              		.thumb_func
 649              		.type	CLOCK__dispatch_250MS_Min, %function
 650              	CLOCK__dispatch_250MS_Min:
 651              	.LFB142:
 479:SourceFiles\asw/swc_clock_control.c ****     UART_LOG_PutString("CLOCK__dispatch_250MS_Min\n");
 652              		.loc 1 479 0
 653              		.cfi_startproc
 654              		@ args = 0, pretend = 0, frame = 0
 655              		@ frame_needed = 0, uses_anonymous_args = 0
 656 0000 08B5     		push	{r3, lr}
 657              		.cfi_def_cfa_offset 8
 658              		.cfi_offset 3, -8
 659              		.cfi_offset 14, -4
 480:SourceFiles\asw/swc_clock_control.c ****     CLOCK__dispatch_wrapper(EV_250MS, CLOCK_MINWIDGET);
 660              		.loc 1 480 0
 661 0002 0448     		ldr	r0, .L51
 662 0004 FFF7FEFF 		bl	UART_LOG_PutString
 663              	.LVL48:
 481:SourceFiles\asw/swc_clock_control.c ****     
 664              		.loc 1 481 0
 665 0008 0221     		movs	r1, #2
ARM GAS  C:\Users\JASON\AppData\Local\Temp\cct5bgFA.s 			page 30


 666 000a 0420     		movs	r0, #4
 667 000c FFF7FEFF 		bl	CLOCK__dispatch_wrapper
 668              	.LVL49:
 669 0010 08BD     		pop	{r3, pc}
 670              	.L52:
 671 0012 00BF     		.align	2
 672              	.L51:
 673 0014 5C000000 		.word	.LC3
 674              		.cfi_endproc
 675              	.LFE142:
 676              		.size	CLOCK__dispatch_250MS_Min, .-CLOCK__dispatch_250MS_Min
 677              		.section	.text.CLOCK__dispatch_KR_Min,"ax",%progbits
 678              		.align	2
 679              		.thumb
 680              		.thumb_func
 681              		.type	CLOCK__dispatch_KR_Min, %function
 682              	CLOCK__dispatch_KR_Min:
 683              	.LFB138:
 437:SourceFiles\asw/swc_clock_control.c ****     UART_LOG_PutString("CLOCK__dispatch_KR_Minutes\n");
 684              		.loc 1 437 0
 685              		.cfi_startproc
 686              		@ args = 0, pretend = 0, frame = 0
 687              		@ frame_needed = 0, uses_anonymous_args = 0
 688 0000 08B5     		push	{r3, lr}
 689              		.cfi_def_cfa_offset 8
 690              		.cfi_offset 3, -8
 691              		.cfi_offset 14, -4
 438:SourceFiles\asw/swc_clock_control.c ****     CLOCK__dispatch_wrapper(EV_KEYRIGHT, CLOCK_MINWIDGET);    
 692              		.loc 1 438 0
 693 0002 0448     		ldr	r0, .L55
 694 0004 FFF7FEFF 		bl	UART_LOG_PutString
 695              	.LVL50:
 439:SourceFiles\asw/swc_clock_control.c **** }
 696              		.loc 1 439 0
 697 0008 0221     		movs	r1, #2
 698 000a 0846     		mov	r0, r1
 699 000c FFF7FEFF 		bl	CLOCK__dispatch_wrapper
 700              	.LVL51:
 701 0010 08BD     		pop	{r3, pc}
 702              	.L56:
 703 0012 00BF     		.align	2
 704              	.L55:
 705 0014 78000000 		.word	.LC4
 706              		.cfi_endproc
 707              	.LFE138:
 708              		.size	CLOCK__dispatch_KR_Min, .-CLOCK__dispatch_KR_Min
 709              		.section	.text.CLOCK__dispatch_KL_Min,"ax",%progbits
 710              		.align	2
 711              		.thumb
 712              		.thumb_func
 713              		.type	CLOCK__dispatch_KL_Min, %function
 714              	CLOCK__dispatch_KL_Min:
 715              	.LFB137:
 429:SourceFiles\asw/swc_clock_control.c ****     UART_LOG_PutString("CLOCK__dispatch_KL_Minutes\n");
 716              		.loc 1 429 0
 717              		.cfi_startproc
 718              		@ args = 0, pretend = 0, frame = 0
ARM GAS  C:\Users\JASON\AppData\Local\Temp\cct5bgFA.s 			page 31


 719              		@ frame_needed = 0, uses_anonymous_args = 0
 720 0000 08B5     		push	{r3, lr}
 721              		.cfi_def_cfa_offset 8
 722              		.cfi_offset 3, -8
 723              		.cfi_offset 14, -4
 430:SourceFiles\asw/swc_clock_control.c ****     CLOCK__dispatch_wrapper(EV_KEYLEFT, CLOCK_MINWIDGET);  
 724              		.loc 1 430 0
 725 0002 0448     		ldr	r0, .L59
 726 0004 FFF7FEFF 		bl	UART_LOG_PutString
 727              	.LVL52:
 431:SourceFiles\asw/swc_clock_control.c **** }
 728              		.loc 1 431 0
 729 0008 0221     		movs	r1, #2
 730 000a 0120     		movs	r0, #1
 731 000c FFF7FEFF 		bl	CLOCK__dispatch_wrapper
 732              	.LVL53:
 733 0010 08BD     		pop	{r3, pc}
 734              	.L60:
 735 0012 00BF     		.align	2
 736              	.L59:
 737 0014 94000000 		.word	.LC5
 738              		.cfi_endproc
 739              	.LFE137:
 740              		.size	CLOCK__dispatch_KL_Min, .-CLOCK__dispatch_KL_Min
 741              		.section	.text.CLOCK__dispatch_KL_Hours,"ax",%progbits
 742              		.align	2
 743              		.thumb
 744              		.thumb_func
 745              		.type	CLOCK__dispatch_KL_Hours, %function
 746              	CLOCK__dispatch_KL_Hours:
 747              	.LFB134:
 404:SourceFiles\asw/swc_clock_control.c ****     UART_LOG_PutString("CLOCK__dispatch_KL_Hours\n");
 748              		.loc 1 404 0
 749              		.cfi_startproc
 750              		@ args = 0, pretend = 0, frame = 0
 751              		@ frame_needed = 0, uses_anonymous_args = 0
 752 0000 08B5     		push	{r3, lr}
 753              		.cfi_def_cfa_offset 8
 754              		.cfi_offset 3, -8
 755              		.cfi_offset 14, -4
 405:SourceFiles\asw/swc_clock_control.c ****     CLOCK__dispatch_wrapper(EV_KEYLEFT, CLOCK_HOURWIDGET);
 756              		.loc 1 405 0
 757 0002 0448     		ldr	r0, .L63
 758 0004 FFF7FEFF 		bl	UART_LOG_PutString
 759              	.LVL54:
 406:SourceFiles\asw/swc_clock_control.c **** }
 760              		.loc 1 406 0
 761 0008 0121     		movs	r1, #1
 762 000a 0846     		mov	r0, r1
 763 000c FFF7FEFF 		bl	CLOCK__dispatch_wrapper
 764              	.LVL55:
 765 0010 08BD     		pop	{r3, pc}
 766              	.L64:
 767 0012 00BF     		.align	2
 768              	.L63:
 769 0014 B0000000 		.word	.LC6
 770              		.cfi_endproc
ARM GAS  C:\Users\JASON\AppData\Local\Temp\cct5bgFA.s 			page 32


 771              	.LFE134:
 772              		.size	CLOCK__dispatch_KL_Hours, .-CLOCK__dispatch_KL_Hours
 773              		.section	.text.CLOCK__errorHandler,"ax",%progbits
 774              		.align	2
 775              		.thumb
 776              		.thumb_func
 777              		.type	CLOCK__errorHandler, %function
 778              	CLOCK__errorHandler:
 779              	.LFB151:
 620:SourceFiles\asw/swc_clock_control.c **** }
 621:SourceFiles\asw/swc_clock_control.c **** /**
 622:SourceFiles\asw/swc_clock_control.c ****  * @brief Error handler : sets an error event.
 623:SourceFiles\asw/swc_clock_control.c ****  */
 624:SourceFiles\asw/swc_clock_control.c **** static void CLOCK__errorHandler()
 625:SourceFiles\asw/swc_clock_control.c **** {
 780              		.loc 1 625 0
 781              		.cfi_startproc
 782              		@ args = 0, pretend = 0, frame = 0
 783              		@ frame_needed = 0, uses_anonymous_args = 0
 784 0000 38B5     		push	{r3, r4, r5, lr}
 785              		.cfi_def_cfa_offset 16
 786              		.cfi_offset 3, -16
 787              		.cfi_offset 4, -12
 788              		.cfi_offset 5, -8
 789              		.cfi_offset 14, -4
 626:SourceFiles\asw/swc_clock_control.c ****     UART_LOG_PutString("CLOCK__errorHandler\n");
 790              		.loc 1 626 0
 791 0002 1848     		ldr	r0, .L73
 792 0004 FFF7FEFF 		bl	UART_LOG_PutString
 793              	.LVL56:
 794              	.LBB87:
 795              	.LBB88:
 796              		.file 3 ".\\SourceFiles\\rte/sc_event.h"
   1:.\SourceFiles\rte/sc_event.h **** 
   2:.\SourceFiles\rte/sc_event.h **** 
   3:.\SourceFiles\rte/sc_event.h **** /**
   4:.\SourceFiles\rte/sc_event.h **** *  file    SC_EVENT_signal.h
   5:.\SourceFiles\rte/sc_event.h **** *
   6:.\SourceFiles\rte/sc_event.h **** *  brief   signal base class for signal sc_event
   7:.\SourceFiles\rte/sc_event.h **** *
   8:.\SourceFiles\rte/sc_event.h **** *  author  Autogenerated, Peter Fromm       <peter.fromm@h-da.de>
   9:.\SourceFiles\rte/sc_event.h **** *
  10:.\SourceFiles\rte/sc_event.h **** *
  11:.\SourceFiles\rte/sc_event.h **** */
  12:.\SourceFiles\rte/sc_event.h **** 
  13:.\SourceFiles\rte/sc_event.h **** /*
  14:.\SourceFiles\rte/sc_event.h **** * description: Signalclass of the Events.
  15:.\SourceFiles\rte/sc_event.h **** * name: sc_EVENT
  16:.\SourceFiles\rte/sc_event.h **** * shortname: EVENT
  17:.\SourceFiles\rte/sc_event.h **** */
  18:.\SourceFiles\rte/sc_event.h **** 
  19:.\SourceFiles\rte/sc_event.h **** #ifndef SC_EVENT_SIGNAL_H_INCLUDED
  20:.\SourceFiles\rte/sc_event.h **** #define SC_EVENT_SIGNAL_H_INCLUDED
  21:.\SourceFiles\rte/sc_event.h **** 
  22:.\SourceFiles\rte/sc_event.h **** /*================================================[ public includes  ]=============================
  23:.\SourceFiles\rte/sc_event.h **** #include "global.h"
  24:.\SourceFiles\rte/sc_event.h **** #include "project.h"
ARM GAS  C:\Users\JASON\AppData\Local\Temp\cct5bgFA.s 			page 33


  25:.\SourceFiles\rte/sc_event.h **** #include "rte.h"
  26:.\SourceFiles\rte/sc_event.h **** #include "rte_types.h"
  27:.\SourceFiles\rte/sc_event.h **** 
  28:.\SourceFiles\rte/sc_event.h **** #include "sc_event_type.h"
  29:.\SourceFiles\rte/sc_event.h **** 
  30:.\SourceFiles\rte/sc_event.h **** 
  31:.\SourceFiles\rte/sc_event.h **** /**************************************************************************************************
  32:.\SourceFiles\rte/sc_event.h **** /* The driver API block																						*/
  33:.\SourceFiles\rte/sc_event.h **** /**************************************************************************************************
  34:.\SourceFiles\rte/sc_event.h ****                                                                                                    
  35:.\SourceFiles\rte/sc_event.h **** /**
  36:.\SourceFiles\rte/sc_event.h ****  *  Definition of function types for driver interfaces.
  37:.\SourceFiles\rte/sc_event.h ****  *  I-Port
  38:.\SourceFiles\rte/sc_event.h ****  */
  39:.\SourceFiles\rte/sc_event.h **** typedef RC_t (*SC_EVENT_driverIn_t)(SC_EVENT_data_t * const);
  40:.\SourceFiles\rte/sc_event.h **** 
  41:.\SourceFiles\rte/sc_event.h **** /**
  42:.\SourceFiles\rte/sc_event.h ****  *  Definition of function types for driver interfaces.
  43:.\SourceFiles\rte/sc_event.h ****  *  O-Port
  44:.\SourceFiles\rte/sc_event.h ****  */
  45:.\SourceFiles\rte/sc_event.h **** typedef RC_t (*SC_EVENT_driverOut_t)( const SC_EVENT_data_t * const);
  46:.\SourceFiles\rte/sc_event.h **** 
  47:.\SourceFiles\rte/sc_event.h **** 
  48:.\SourceFiles\rte/sc_event.h **** /**************************************************************************************************
  49:.\SourceFiles\rte/sc_event.h **** /* The signal configuration API block																				*/
  50:.\SourceFiles\rte/sc_event.h **** /**************************************************************************************************
  51:.\SourceFiles\rte/sc_event.h **** 
  52:.\SourceFiles\rte/sc_event.h **** /**
  53:.\SourceFiles\rte/sc_event.h ****  * Instances of the struct SC_EVENT_cfg_t represent the signal object configuration.
  54:.\SourceFiles\rte/sc_event.h ****  */
  55:.\SourceFiles\rte/sc_event.h **** struct SC_EVENT_cfg_s
  56:.\SourceFiles\rte/sc_event.h **** {
  57:.\SourceFiles\rte/sc_event.h ****     /**
  58:.\SourceFiles\rte/sc_event.h ****      * Function pointer to the input driver
  59:.\SourceFiles\rte/sc_event.h ****      */
  60:.\SourceFiles\rte/sc_event.h ****     SC_EVENT_driverIn_t const inDriver;
  61:.\SourceFiles\rte/sc_event.h **** 
  62:.\SourceFiles\rte/sc_event.h ****     /**
  63:.\SourceFiles\rte/sc_event.h ****      * Function pointer to the output driver table
  64:.\SourceFiles\rte/sc_event.h ****      */
  65:.\SourceFiles\rte/sc_event.h ****    SC_EVENT_driverOut_t const outDriver;
  66:.\SourceFiles\rte/sc_event.h ****    
  67:.\SourceFiles\rte/sc_event.h ****     /**
  68:.\SourceFiles\rte/sc_event.h ****      * Event onUpdate
  69:.\SourceFiles\rte/sc_event.h ****      */
  70:.\SourceFiles\rte/sc_event.h ****     EventMaskType const evOnUpdate;
  71:.\SourceFiles\rte/sc_event.h ****     
  72:.\SourceFiles\rte/sc_event.h ****     
  73:.\SourceFiles\rte/sc_event.h ****     /**
  74:.\SourceFiles\rte/sc_event.h ****      * Event onError
  75:.\SourceFiles\rte/sc_event.h ****      */
  76:.\SourceFiles\rte/sc_event.h ****     EventMaskType const evOnError;
  77:.\SourceFiles\rte/sc_event.h ****     
  78:.\SourceFiles\rte/sc_event.h ****     /**
  79:.\SourceFiles\rte/sc_event.h ****      * Task Count onUpdate
  80:.\SourceFiles\rte/sc_event.h ****      */
  81:.\SourceFiles\rte/sc_event.h ****     size_t const onUpdateTaskCount;
ARM GAS  C:\Users\JASON\AppData\Local\Temp\cct5bgFA.s 			page 34


  82:.\SourceFiles\rte/sc_event.h **** 
  83:.\SourceFiles\rte/sc_event.h ****     /**
  84:.\SourceFiles\rte/sc_event.h ****      * Task List onUpdate
  85:.\SourceFiles\rte/sc_event.h ****      */
  86:.\SourceFiles\rte/sc_event.h ****     TaskTypeArray* const onUpdateTasks;
  87:.\SourceFiles\rte/sc_event.h ****     
  88:.\SourceFiles\rte/sc_event.h ****     /**
  89:.\SourceFiles\rte/sc_event.h ****      * Task Count onError
  90:.\SourceFiles\rte/sc_event.h ****      */
  91:.\SourceFiles\rte/sc_event.h ****     size_t const onErrorTaskCount;
  92:.\SourceFiles\rte/sc_event.h **** 
  93:.\SourceFiles\rte/sc_event.h ****     /**
  94:.\SourceFiles\rte/sc_event.h ****      * Task List onError
  95:.\SourceFiles\rte/sc_event.h ****      */
  96:.\SourceFiles\rte/sc_event.h ****     TaskTypeArray* const onErrorTasks;
  97:.\SourceFiles\rte/sc_event.h **** 	
  98:.\SourceFiles\rte/sc_event.h **** 	
  99:.\SourceFiles\rte/sc_event.h **** 	/**
 100:.\SourceFiles\rte/sc_event.h **** 	 * Ressourse is active? We need an additional boolean as a ressource value 0 is valid.
 101:.\SourceFiles\rte/sc_event.h **** 	 */
 102:.\SourceFiles\rte/sc_event.h **** 	 boolean_t const resourceActive;
 103:.\SourceFiles\rte/sc_event.h **** 	 
 104:.\SourceFiles\rte/sc_event.h **** 	/**
 105:.\SourceFiles\rte/sc_event.h **** 	 * Ressourse 
 106:.\SourceFiles\rte/sc_event.h **** 	 */
 107:.\SourceFiles\rte/sc_event.h **** 	 ResourceType const resource;
 108:.\SourceFiles\rte/sc_event.h **** 
 109:.\SourceFiles\rte/sc_event.h **** };                                                                                                 
 110:.\SourceFiles\rte/sc_event.h **** typedef const struct SC_EVENT_cfg_s SC_EVENT_cfg_t;
 111:.\SourceFiles\rte/sc_event.h ****                               
 112:.\SourceFiles\rte/sc_event.h **** /**************************************************************************************************
 113:.\SourceFiles\rte/sc_event.h **** /* The data interface block																							*/
 114:.\SourceFiles\rte/sc_event.h **** /**************************************************************************************************
 115:.\SourceFiles\rte/sc_event.h **** 
 116:.\SourceFiles\rte/sc_event.h ****                                                                                                    
 117:.\SourceFiles\rte/sc_event.h **** 							  
 118:.\SourceFiles\rte/sc_event.h **** /**
 119:.\SourceFiles\rte/sc_event.h ****  * Instances of the struct SC_EVENT_t represent the signal objects.
 120:.\SourceFiles\rte/sc_event.h ****  * A signal object contains the current application value 'value' as well as relevant meta data.
 121:.\SourceFiles\rte/sc_event.h ****  */
 122:.\SourceFiles\rte/sc_event.h **** struct SC_EVENT_s
 123:.\SourceFiles\rte/sc_event.h **** {                                                                                                  
 124:.\SourceFiles\rte/sc_event.h **** 
 125:.\SourceFiles\rte/sc_event.h **** 	/**
 126:.\SourceFiles\rte/sc_event.h **** 	 * Data buffer for the application value
 127:.\SourceFiles\rte/sc_event.h **** 	 */
 128:.\SourceFiles\rte/sc_event.h ****     SC_EVENT_data_t value;
 129:.\SourceFiles\rte/sc_event.h **** 
 130:.\SourceFiles\rte/sc_event.h ****     /**
 131:.\SourceFiles\rte/sc_event.h ****      * Current signal status
 132:.\SourceFiles\rte/sc_event.h ****      */
 133:.\SourceFiles\rte/sc_event.h ****     RTE_signalStatus_t status;
 134:.\SourceFiles\rte/sc_event.h **** 
 135:.\SourceFiles\rte/sc_event.h ****     /**
 136:.\SourceFiles\rte/sc_event.h ****      * Current age of the signal (in calling cycles)
 137:.\SourceFiles\rte/sc_event.h ****      */
 138:.\SourceFiles\rte/sc_event.h ****     uint32_t age;
ARM GAS  C:\Users\JASON\AppData\Local\Temp\cct5bgFA.s 			page 35


 139:.\SourceFiles\rte/sc_event.h **** 
 140:.\SourceFiles\rte/sc_event.h ****     /**
 141:.\SourceFiles\rte/sc_event.h ****      * Pointer to the signal configuration
 142:.\SourceFiles\rte/sc_event.h ****      */
 143:.\SourceFiles\rte/sc_event.h **** 	const SC_EVENT_cfg_t * const    pSigCfg;
 144:.\SourceFiles\rte/sc_event.h **** 
 145:.\SourceFiles\rte/sc_event.h **** };                                                                                                 
 146:.\SourceFiles\rte/sc_event.h **** typedef struct SC_EVENT_s SC_EVENT_t;
 147:.\SourceFiles\rte/sc_event.h **** 
 148:.\SourceFiles\rte/sc_event.h **** /**************************************************************************************************
 149:.\SourceFiles\rte/sc_event.h **** /* Signal initialisation   																							*/
 150:.\SourceFiles\rte/sc_event.h **** /**************************************************************************************************
 151:.\SourceFiles\rte/sc_event.h **** 
 152:.\SourceFiles\rte/sc_event.h **** /**
 153:.\SourceFiles\rte/sc_event.h ****  * Initializes a signal instance with a passed init value.
 154:.\SourceFiles\rte/sc_event.h ****  * Depending on the configured conversion or scaling function the raw_value will be calculated.
 155:.\SourceFiles\rte/sc_event.h ****  * Signal status will change from RTE_SIGNALSTATUS_STARTUP to RTE_SIGNALSTATUS_INITIALIZED.
 156:.\SourceFiles\rte/sc_event.h ****  *
 157:.\SourceFiles\rte/sc_event.h ****  * @param  SC_EVENT_t * const signal: Pointer to the signal object which will be initialised
 158:.\SourceFiles\rte/sc_event.h ****  * @param const sc_event_data_t * const value: Pointer to initial value of the application data
 159:.\SourceFiles\rte/sc_event.h ****  * @return RC_t: standard return code, currently only RC_SUCCESS
 160:.\SourceFiles\rte/sc_event.h ****  *
 161:.\SourceFiles\rte/sc_event.h ****  **/
 162:.\SourceFiles\rte/sc_event.h **** inline RC_t RTE_SC_EVENT_init( SC_EVENT_t * const signal, const SC_EVENT_data_t * const value )
 163:.\SourceFiles\rte/sc_event.h **** {                                                                                                  
 164:.\SourceFiles\rte/sc_event.h **** 
 165:.\SourceFiles\rte/sc_event.h ****    RC_t ret = RC_SUCCESS;
 166:.\SourceFiles\rte/sc_event.h **** 
 167:.\SourceFiles\rte/sc_event.h ****    //Set value and raw value
 168:.\SourceFiles\rte/sc_event.h ****    signal->value  = *value;
 169:.\SourceFiles\rte/sc_event.h ****    signal->age    = 0;
 170:.\SourceFiles\rte/sc_event.h ****    signal->status = RTE_SIGNALSTATUS_INITIALIZED;
 171:.\SourceFiles\rte/sc_event.h **** 
 172:.\SourceFiles\rte/sc_event.h ****    return ret;
 173:.\SourceFiles\rte/sc_event.h **** }
 174:.\SourceFiles\rte/sc_event.h **** 
 175:.\SourceFiles\rte/sc_event.h **** /**************************************************************************************************
 176:.\SourceFiles\rte/sc_event.h **** /* Status and timeout control																						*/
 177:.\SourceFiles\rte/sc_event.h **** /**************************************************************************************************
 178:.\SourceFiles\rte/sc_event.h **** 
 179:.\SourceFiles\rte/sc_event.h **** /**
 180:.\SourceFiles\rte/sc_event.h ****  *  Returns the current signal status of the passed signal instance.
 181:.\SourceFiles\rte/sc_event.h ****  *
 182:.\SourceFiles\rte/sc_event.h ****  * @param  SC_EVENT_t * const signal: Pointer to the signal object
 183:.\SourceFiles\rte/sc_event.h ****  * @return  sig_status_t: The current signal status
 184:.\SourceFiles\rte/sc_event.h ****  *
 185:.\SourceFiles\rte/sc_event.h ****  **/
 186:.\SourceFiles\rte/sc_event.h **** inline RTE_signalStatus_t RTE_SC_EVENT_getStatus( const SC_EVENT_t * const signal )
 187:.\SourceFiles\rte/sc_event.h **** {
 188:.\SourceFiles\rte/sc_event.h ****    return signal->status;
 189:.\SourceFiles\rte/sc_event.h **** }
 190:.\SourceFiles\rte/sc_event.h **** 
 191:.\SourceFiles\rte/sc_event.h **** 
 192:.\SourceFiles\rte/sc_event.h **** /**
 193:.\SourceFiles\rte/sc_event.h ****  *  Sets a new signal status of the passed signal instance by passing the new status.
 194:.\SourceFiles\rte/sc_event.h ****  *
 195:.\SourceFiles\rte/sc_event.h ****  * @param  SC_EVENT_t * const signal: Pointer to the signal object
ARM GAS  C:\Users\JASON\AppData\Local\Temp\cct5bgFA.s 			page 36


 196:.\SourceFiles\rte/sc_event.h ****  * @param  const sig_status_t status: New signal status
 197:.\SourceFiles\rte/sc_event.h ****  * @return RC_t: standard return code, currently only RC_SUCCESS
 198:.\SourceFiles\rte/sc_event.h ****  *
 199:.\SourceFiles\rte/sc_event.h ****  */
 200:.\SourceFiles\rte/sc_event.h **** inline RC_t RTE_SC_EVENT_setStatus( SC_EVENT_t * const signal, const RTE_signalStatus_t status )
 201:.\SourceFiles\rte/sc_event.h **** {
 202:.\SourceFiles\rte/sc_event.h ****    signal->status = status;
 203:.\SourceFiles\rte/sc_event.h ****    size_t taskNum=0;
 204:.\SourceFiles\rte/sc_event.h ****    
 205:.\SourceFiles\rte/sc_event.h ****    //Fire error events in case of invalid state
 206:.\SourceFiles\rte/sc_event.h ****    if (signal->status == RTE_SIGNALSTATUS_INVALID)
 207:.\SourceFiles\rte/sc_event.h ****    {
 208:.\SourceFiles\rte/sc_event.h **** 	    //Pointer to the Taskarray, containing the tasks receiving the onUpdate events
 209:.\SourceFiles\rte/sc_event.h **** 		TaskTypeArray* pTaskArray = signal->pSigCfg->onErrorTasks;
 210:.\SourceFiles\rte/sc_event.h **** 
 211:.\SourceFiles\rte/sc_event.h **** 		if (NULL!=signal->pSigCfg->evOnError && NULL != pTaskArray){
 212:.\SourceFiles\rte/sc_event.h **** 			for( taskNum=0 ; taskNum < signal->pSigCfg->onErrorTaskCount ;taskNum++){
 213:.\SourceFiles\rte/sc_event.h **** 				TaskType task = (*pTaskArray)[taskNum];
 214:.\SourceFiles\rte/sc_event.h **** 				SetEvent( task, signal->pSigCfg->evOnError);
 215:.\SourceFiles\rte/sc_event.h **** 			}
 216:.\SourceFiles\rte/sc_event.h **** 		}
 217:.\SourceFiles\rte/sc_event.h ****    }
 218:.\SourceFiles\rte/sc_event.h ****    
 219:.\SourceFiles\rte/sc_event.h ****    return RC_SUCCESS;
 220:.\SourceFiles\rte/sc_event.h **** }
 221:.\SourceFiles\rte/sc_event.h **** 
 222:.\SourceFiles\rte/sc_event.h **** 
 223:.\SourceFiles\rte/sc_event.h **** /**
 224:.\SourceFiles\rte/sc_event.h ****  * Returns the count of refreshing trials (refresh, set or set_raw) that failed.
 225:.\SourceFiles\rte/sc_event.h ****  * Prerquisite: The signal is refreshed cyclically
 226:.\SourceFiles\rte/sc_event.h ****  *
 227:.\SourceFiles\rte/sc_event.h ****  * @param  SC_EVENT_t * const signal: Pointer to the signal object
 228:.\SourceFiles\rte/sc_event.h ****  * @return uint32_t: Number of cycles since the signal has been updated for the last time
 229:.\SourceFiles\rte/sc_event.h ****  */
 230:.\SourceFiles\rte/sc_event.h **** inline uint32_t RTE_SC_EVENT_getAge( const SC_EVENT_t * const signal )
 231:.\SourceFiles\rte/sc_event.h **** {
 232:.\SourceFiles\rte/sc_event.h ****    return signal->age;
 233:.\SourceFiles\rte/sc_event.h **** }
 234:.\SourceFiles\rte/sc_event.h **** 
 235:.\SourceFiles\rte/sc_event.h **** /**
 236:.\SourceFiles\rte/sc_event.h ****  * Should be called by application or driver if no new value can be provided.
 237:.\SourceFiles\rte/sc_event.h ****  * @param  SC_EVENT_t * const signal: Pointer to the signal object
 238:.\SourceFiles\rte/sc_event.h ****  * @param uint32_t increment: incrementvalue, typically in [ms]
 239:.\SourceFiles\rte/sc_event.h ****  * @return void
 240:.\SourceFiles\rte/sc_event.h ****  */
 241:.\SourceFiles\rte/sc_event.h **** inline void RTE_SC_EVENT_incAge(  SC_EVENT_t * const signal , uint32_t increment)
 242:.\SourceFiles\rte/sc_event.h **** {
 243:.\SourceFiles\rte/sc_event.h **** 	   //Hack....
 244:.\SourceFiles\rte/sc_event.h **** 	   if ( 0xFFFF0000 > (signal->age + increment) )
 245:.\SourceFiles\rte/sc_event.h **** 	   {
 246:.\SourceFiles\rte/sc_event.h **** 	      signal->age += increment;
 247:.\SourceFiles\rte/sc_event.h **** 	   }
 248:.\SourceFiles\rte/sc_event.h **** }
 249:.\SourceFiles\rte/sc_event.h **** 
 250:.\SourceFiles\rte/sc_event.h **** 
 251:.\SourceFiles\rte/sc_event.h **** /**************************************************************************************************
 252:.\SourceFiles\rte/sc_event.h **** /* Application Data read/write Interface																			*/
ARM GAS  C:\Users\JASON\AppData\Local\Temp\cct5bgFA.s 			page 37


 253:.\SourceFiles\rte/sc_event.h **** /**************************************************************************************************
 254:.\SourceFiles\rte/sc_event.h **** 
 255:.\SourceFiles\rte/sc_event.h **** /**
 256:.\SourceFiles\rte/sc_event.h ****  * Returns the current application value of the passed signal instance.
 257:.\SourceFiles\rte/sc_event.h ****  *
 258:.\SourceFiles\rte/sc_event.h ****  * @param  SC_EVENT_t * const signal: Pointer to the signal object
 259:.\SourceFiles\rte/sc_event.h ****  * @return sc_event_data_t: current value of the application data buffer
 260:.\SourceFiles\rte/sc_event.h ****  *
 261:.\SourceFiles\rte/sc_event.h ****  **/
 262:.\SourceFiles\rte/sc_event.h **** inline SC_EVENT_data_t RTE_SC_EVENT_get( const SC_EVENT_t * const signal )
 263:.\SourceFiles\rte/sc_event.h **** {               
 264:.\SourceFiles\rte/sc_event.h ****    //Todo: Critical region cannot be protected using return values																						
 265:.\SourceFiles\rte/sc_event.h ****    return signal->value;                                                                           
 266:.\SourceFiles\rte/sc_event.h **** }                                                                                                  
 267:.\SourceFiles\rte/sc_event.h ****                                                                                                    
 268:.\SourceFiles\rte/sc_event.h **** /**
 269:.\SourceFiles\rte/sc_event.h ****  * Returns the current application value of the passed signal instance threadsafe.
 270:.\SourceFiles\rte/sc_event.h ****  *
 271:.\SourceFiles\rte/sc_event.h ****  * @param  SC_EVENT_t * const signal: Pointer to the signal object
 272:.\SourceFiles\rte/sc_event.h ****  * @param  SC_EVENT_data_t* data: Pointer to the return data Pointer to the signal object
 273:.\SourceFiles\rte/sc_event.h ****  * @return RC_SUCCESS
 274:.\SourceFiles\rte/sc_event.h ****  *
 275:.\SourceFiles\rte/sc_event.h ****  **/
 276:.\SourceFiles\rte/sc_event.h **** inline RC_t RTE_SC_EVENT_getThreadSafe( const SC_EVENT_t * const signal, SC_EVENT_data_t * const da
 277:.\SourceFiles\rte/sc_event.h **** {    
 278:.\SourceFiles\rte/sc_event.h ****    if (TRUE == signal->pSigCfg->resourceActive) GetResource(signal->pSigCfg->resource);
 279:.\SourceFiles\rte/sc_event.h ****    *data = signal->value;
 280:.\SourceFiles\rte/sc_event.h ****    if (TRUE == signal->pSigCfg->resourceActive) ReleaseResource(signal->pSigCfg->resource);        
 281:.\SourceFiles\rte/sc_event.h **** 
 282:.\SourceFiles\rte/sc_event.h ****    return RC_SUCCESS;                                                                   
 283:.\SourceFiles\rte/sc_event.h ****    
 284:.\SourceFiles\rte/sc_event.h **** }                                                                                                  
 285:.\SourceFiles\rte/sc_event.h ****                                                                                                    
 286:.\SourceFiles\rte/sc_event.h **** /**
 287:.\SourceFiles\rte/sc_event.h ****  * Sets a new application value to the passed signal instance by passing the new value.
 288:.\SourceFiles\rte/sc_event.h ****  * The corresponding driver raw value will be calculated immediately by using the default conversio
 289:.\SourceFiles\rte/sc_event.h ****  * signal specific scaling function.
 290:.\SourceFiles\rte/sc_event.h ****  * The signal age will be set to 0 and the new status will be 'RTE_SIGNALSTATUS_VALID'.
 291:.\SourceFiles\rte/sc_event.h ****  *
 292:.\SourceFiles\rte/sc_event.h ****  * @param  SC_EVENT_t * const signal: Pointer to the signal object
 293:.\SourceFiles\rte/sc_event.h ****  * @param  sc_event_data_t const value: value for the application data buffer
 294:.\SourceFiles\rte/sc_event.h ****  * @return RC_t: standard return code, currently only RC_SUCCESS
 295:.\SourceFiles\rte/sc_event.h ****  *
 296:.\SourceFiles\rte/sc_event.h ****  **/
 297:.\SourceFiles\rte/sc_event.h **** inline RC_t RTE_SC_EVENT_set(SC_EVENT_t * const signal, const SC_EVENT_data_t value  )
 298:.\SourceFiles\rte/sc_event.h **** {
 299:.\SourceFiles\rte/sc_event.h **** 
 300:.\SourceFiles\rte/sc_event.h ****    RC_t ret = RC_SUCCESS;
 301:.\SourceFiles\rte/sc_event.h ****    size_t taskNum=0;
 302:.\SourceFiles\rte/sc_event.h **** 
 303:.\SourceFiles\rte/sc_event.h **** 
 304:.\SourceFiles\rte/sc_event.h ****    if (TRUE == signal->pSigCfg->resourceActive) GetResource(signal->pSigCfg->resource);
 797              		.loc 3 304 0
 798 0008 174B     		ldr	r3, .L73+4
 799 000a 9B68     		ldr	r3, [r3, #8]
 800 000c 93F82020 		ldrb	r2, [r3, #32]	@ zero_extendqisi2
 801 0010 012A     		cmp	r2, #1
ARM GAS  C:\Users\JASON\AppData\Local\Temp\cct5bgFA.s 			page 38


 802 0012 02D1     		bne	.L66
 803 0014 586A     		ldr	r0, [r3, #36]
 804 0016 FFF7FEFF 		bl	EE_oo_GetResource
 805              	.LVL57:
 806              	.L66:
 305:.\SourceFiles\rte/sc_event.h ****    signal->value  = value;
 807              		.loc 3 305 0
 808 001a 134B     		ldr	r3, .L73+4
 809 001c 0622     		movs	r2, #6
 810 001e 1A70     		strb	r2, [r3]
 306:.\SourceFiles\rte/sc_event.h ****    signal->age    = 0;
 811              		.loc 3 306 0
 812 0020 0022     		movs	r2, #0
 813 0022 5A60     		str	r2, [r3, #4]
 307:.\SourceFiles\rte/sc_event.h ****    signal->status = RTE_SIGNALSTATUS_VALID;
 814              		.loc 3 307 0
 815 0024 0222     		movs	r2, #2
 816 0026 5A70     		strb	r2, [r3, #1]
 308:.\SourceFiles\rte/sc_event.h ****    if (TRUE == signal->pSigCfg->resourceActive) ReleaseResource(signal->pSigCfg->resource);
 817              		.loc 3 308 0
 818 0028 9B68     		ldr	r3, [r3, #8]
 819 002a 93F82020 		ldrb	r2, [r3, #32]	@ zero_extendqisi2
 820 002e 012A     		cmp	r2, #1
 821 0030 02D1     		bne	.L67
 822 0032 586A     		ldr	r0, [r3, #36]
 823 0034 FFF7FEFF 		bl	EE_oo_ReleaseResource
 824              	.LVL58:
 825              	.L67:
 309:.\SourceFiles\rte/sc_event.h **** 
 310:.\SourceFiles\rte/sc_event.h ****    //Pointer to the Taskarray, containing the tasks receiving the onUpdate events
 311:.\SourceFiles\rte/sc_event.h ****    TaskTypeArray* pTaskArray = signal->pSigCfg->onUpdateTasks;
 826              		.loc 3 311 0
 827 0038 0B4B     		ldr	r3, .L73+4
 828 003a 9B68     		ldr	r3, [r3, #8]
 829 003c 5D69     		ldr	r5, [r3, #20]
 830              	.LVL59:
 312:.\SourceFiles\rte/sc_event.h **** 
 313:.\SourceFiles\rte/sc_event.h ****    if (NULL!=signal->pSigCfg->evOnUpdate && NULL != pTaskArray){
 831              		.loc 3 313 0
 832 003e 9B68     		ldr	r3, [r3, #8]
 833 0040 73B1     		cbz	r3, .L65
 834 0042 3DB9     		cbnz	r5, .L71
 835 0044 38BD     		pop	{r3, r4, r5, pc}
 836              	.LVL60:
 837              	.L70:
 838              	.LBB89:
 314:.\SourceFiles\rte/sc_event.h ****       for( taskNum=0 ; taskNum < signal->pSigCfg->onUpdateTaskCount ;taskNum++){
 315:.\SourceFiles\rte/sc_event.h **** 		  
 316:.\SourceFiles\rte/sc_event.h ****           TaskType task = (*pTaskArray)[taskNum];
 317:.\SourceFiles\rte/sc_event.h **** 	      SetEvent( task, signal->pSigCfg->evOnUpdate);
 839              		.loc 3 317 0
 840 0046 9968     		ldr	r1, [r3, #8]
 841 0048 55F82400 		ldr	r0, [r5, r4, lsl #2]
 842 004c FFF7FEFF 		bl	EE_oo_SetEvent
 843              	.LVL61:
 844              	.LBE89:
 314:.\SourceFiles\rte/sc_event.h ****       for( taskNum=0 ; taskNum < signal->pSigCfg->onUpdateTaskCount ;taskNum++){
ARM GAS  C:\Users\JASON\AppData\Local\Temp\cct5bgFA.s 			page 39


 845              		.loc 3 314 0
 846 0050 0134     		adds	r4, r4, #1
 847              	.LVL62:
 848 0052 00E0     		b	.L69
 849              	.LVL63:
 850              	.L71:
 313:.\SourceFiles\rte/sc_event.h ****       for( taskNum=0 ; taskNum < signal->pSigCfg->onUpdateTaskCount ;taskNum++){
 851              		.loc 3 313 0
 852 0054 0024     		movs	r4, #0
 853              	.LVL64:
 854              	.L69:
 314:.\SourceFiles\rte/sc_event.h ****       for( taskNum=0 ; taskNum < signal->pSigCfg->onUpdateTaskCount ;taskNum++){
 855              		.loc 3 314 0
 856 0056 044B     		ldr	r3, .L73+4
 857 0058 9B68     		ldr	r3, [r3, #8]
 858 005a 1A69     		ldr	r2, [r3, #16]
 859 005c 9442     		cmp	r4, r2
 860 005e F2D3     		bcc	.L70
 861              	.LVL65:
 862              	.L65:
 863 0060 38BD     		pop	{r3, r4, r5, pc}
 864              	.LVL66:
 865              	.L74:
 866 0062 00BF     		.align	2
 867              	.L73:
 868 0064 CC000000 		.word	.LC7
 869 0068 00000000 		.word	SO_EVENT_signal
 870              	.LBE88:
 871              	.LBE87:
 872              		.cfi_endproc
 873              	.LFE151:
 874              		.size	CLOCK__errorHandler, .-CLOCK__errorHandler
 875              		.section	.text.CLOCK__incrementWidget,"ax",%progbits
 876              		.align	2
 877              		.thumb
 878              		.thumb_func
 879              		.type	CLOCK__incrementWidget, %function
 880              	CLOCK__incrementWidget:
 881              	.LFB148:
 582:SourceFiles\asw/swc_clock_control.c ****     UART_LOG_PutString("CLOCK__incrementWidget\n");
 882              		.loc 1 582 0
 883              		.cfi_startproc
 884              		@ args = 0, pretend = 0, frame = 112
 885              		@ frame_needed = 0, uses_anonymous_args = 0
 886 0000 70B5     		push	{r4, r5, r6, lr}
 887              		.cfi_def_cfa_offset 16
 888              		.cfi_offset 4, -16
 889              		.cfi_offset 5, -12
 890              		.cfi_offset 6, -8
 891              		.cfi_offset 14, -4
 892 0002 9CB0     		sub	sp, sp, #112
 893              		.cfi_def_cfa_offset 128
 583:SourceFiles\asw/swc_clock_control.c ****     
 894              		.loc 1 583 0
 895 0004 3F48     		ldr	r0, .L85
 896 0006 FFF7FEFF 		bl	UART_LOG_PutString
 897              	.LVL67:
ARM GAS  C:\Users\JASON\AppData\Local\Temp\cct5bgFA.s 			page 40


 898              	.LBB90:
 899              	.LBB91:
 265:.\SourceFiles\rte/sc_clock.h **** }                                                                                                  
 900              		.loc 2 265 0
 901 000a 0EAC     		add	r4, sp, #56
 902 000c 3E4D     		ldr	r5, .L85+4
 903 000e 0FCD     		ldmia	r5!, {r0, r1, r2, r3}
 904 0010 0FC4     		stmia	r4!, {r0, r1, r2, r3}
 905 0012 0FCD     		ldmia	r5!, {r0, r1, r2, r3}
 906 0014 0FC4     		stmia	r4!, {r0, r1, r2, r3}
 907 0016 0FCD     		ldmia	r5!, {r0, r1, r2, r3}
 908 0018 0FC4     		stmia	r4!, {r0, r1, r2, r3}
 909 001a 95E80300 		ldmia	r5, {r0, r1}
 910 001e 84E80300 		stmia	r4, {r0, r1}
 911              	.LVL68:
 912              	.LBE91:
 913              	.LBE90:
 588:SourceFiles\asw/swc_clock_control.c ****     
 914              		.loc 1 588 0
 915 0022 9DF84830 		ldrb	r3, [sp, #72]	@ zero_extendqisi2
 916              	.LVL69:
 591:SourceFiles\asw/swc_clock_control.c ****     {
 917              		.loc 1 591 0
 918 0026 043B     		subs	r3, r3, #4
 919              	.LVL70:
 920 0028 DBB2     		uxtb	r3, r3
 921              	.LVL71:
 922 002a 012B     		cmp	r3, #1
 923 002c 0ED8     		bhi	.L76
 593:SourceFiles\asw/swc_clock_control.c ****     }
 924              		.loc 1 593 0
 925 002e BDF85420 		ldrh	r2, [sp, #84]
 926 0032 0132     		adds	r2, r2, #1
 927 0034 354B     		ldr	r3, .L85+8
 928 0036 83FB0231 		smull	r3, r1, r3, r2
 929 003a D317     		asrs	r3, r2, #31
 930 003c C3EBA103 		rsb	r3, r3, r1, asr #2
 931 0040 03EB4303 		add	r3, r3, r3, lsl #1
 932 0044 D900     		lsls	r1, r3, #3
 933 0046 531A     		subs	r3, r2, r1
 934 0048 ADF85430 		strh	r3, [sp, #84]	@ movhi
 935              	.L76:
 596:SourceFiles\asw/swc_clock_control.c ****     
 936              		.loc 1 596 0
 937 004c 9DF85C30 		ldrb	r3, [sp, #92]	@ zero_extendqisi2
 938              	.LVL72:
 599:SourceFiles\asw/swc_clock_control.c ****     {
 939              		.loc 1 599 0
 940 0050 043B     		subs	r3, r3, #4
 941              	.LVL73:
 942 0052 DBB2     		uxtb	r3, r3
 943              	.LVL74:
 944 0054 012B     		cmp	r3, #1
 945 0056 0FD8     		bhi	.L77
 601:SourceFiles\asw/swc_clock_control.c ****     }
 946              		.loc 1 601 0
 947 0058 BDF86820 		ldrh	r2, [sp, #104]
ARM GAS  C:\Users\JASON\AppData\Local\Temp\cct5bgFA.s 			page 41


 948 005c 0132     		adds	r2, r2, #1
 949 005e 2C48     		ldr	r0, .L85+12
 950 0060 82FB0001 		smull	r0, r1, r2, r0
 951 0064 1144     		add	r1, r1, r2
 952 0066 D317     		asrs	r3, r2, #31
 953 0068 C3EB6113 		rsb	r3, r3, r1, asr #5
 954 006c C3EB0313 		rsb	r3, r3, r3, lsl #4
 955 0070 9900     		lsls	r1, r3, #2
 956 0072 531A     		subs	r3, r2, r1
 957 0074 ADF86830 		strh	r3, [sp, #104]	@ movhi
 958              	.L77:
 959              	.LVL75:
 960 0078 6C46     		mov	r4, sp
 961 007a 0EAD     		add	r5, sp, #56
 962 007c 0FCD     		ldmia	r5!, {r0, r1, r2, r3}
 963 007e 0FC4     		stmia	r4!, {r0, r1, r2, r3}
 964 0080 0FCD     		ldmia	r5!, {r0, r1, r2, r3}
 965 0082 0FC4     		stmia	r4!, {r0, r1, r2, r3}
 966 0084 0FCD     		ldmia	r5!, {r0, r1, r2, r3}
 967 0086 0FC4     		stmia	r4!, {r0, r1, r2, r3}
 968 0088 95E80300 		ldmia	r5, {r0, r1}
 969 008c 84E80300 		stmia	r4, {r0, r1}
 970              	.LVL76:
 971              	.LBB92:
 972              	.LBB93:
 304:.\SourceFiles\rte/sc_clock.h ****    signal->value  = value;
 973              		.loc 2 304 0
 974 0090 1D4B     		ldr	r3, .L85+4
 975 0092 1B6C     		ldr	r3, [r3, #64]
 976 0094 93F82020 		ldrb	r2, [r3, #32]	@ zero_extendqisi2
 977 0098 012A     		cmp	r2, #1
 978 009a 02D1     		bne	.L78
 979 009c 586A     		ldr	r0, [r3, #36]
 980 009e FFF7FEFF 		bl	EE_oo_GetResource
 981              	.LVL77:
 982              	.L78:
 305:.\SourceFiles\rte/sc_clock.h ****    signal->age    = 0;
 983              		.loc 2 305 0
 984 00a2 194E     		ldr	r6, .L85+4
 985 00a4 3446     		mov	r4, r6
 986 00a6 6D46     		mov	r5, sp
 987 00a8 0FCD     		ldmia	r5!, {r0, r1, r2, r3}
 988 00aa 0FC4     		stmia	r4!, {r0, r1, r2, r3}
 989 00ac 0FCD     		ldmia	r5!, {r0, r1, r2, r3}
 990 00ae 0FC4     		stmia	r4!, {r0, r1, r2, r3}
 991 00b0 0FCD     		ldmia	r5!, {r0, r1, r2, r3}
 992 00b2 0FC4     		stmia	r4!, {r0, r1, r2, r3}
 993 00b4 95E80300 		ldmia	r5, {r0, r1}
 994 00b8 84E80300 		stmia	r4, {r0, r1}
 306:.\SourceFiles\rte/sc_clock.h ****    signal->status = RTE_SIGNALSTATUS_VALID;
 995              		.loc 2 306 0
 996 00bc 0023     		movs	r3, #0
 997 00be F363     		str	r3, [r6, #60]
 307:.\SourceFiles\rte/sc_clock.h ****    if (TRUE == signal->pSigCfg->resourceActive) ReleaseResource(signal->pSigCfg->resource);
 998              		.loc 2 307 0
 999 00c0 0223     		movs	r3, #2
 1000 00c2 86F83830 		strb	r3, [r6, #56]
ARM GAS  C:\Users\JASON\AppData\Local\Temp\cct5bgFA.s 			page 42


 308:.\SourceFiles\rte/sc_clock.h **** 
 1001              		.loc 2 308 0
 1002 00c6 336C     		ldr	r3, [r6, #64]
 1003 00c8 93F82020 		ldrb	r2, [r3, #32]	@ zero_extendqisi2
 1004 00cc 012A     		cmp	r2, #1
 1005 00ce 02D1     		bne	.L79
 1006 00d0 586A     		ldr	r0, [r3, #36]
 1007 00d2 FFF7FEFF 		bl	EE_oo_ReleaseResource
 1008              	.LVL78:
 1009              	.L79:
 311:.\SourceFiles\rte/sc_clock.h **** 
 1010              		.loc 2 311 0
 1011 00d6 0C4B     		ldr	r3, .L85+4
 1012 00d8 1B6C     		ldr	r3, [r3, #64]
 1013 00da 5D69     		ldr	r5, [r3, #20]
 1014              	.LVL79:
 313:.\SourceFiles\rte/sc_clock.h ****       for( taskNum=0 ; taskNum < signal->pSigCfg->onUpdateTaskCount ;taskNum++){
 1015              		.loc 2 313 0
 1016 00dc 9B68     		ldr	r3, [r3, #8]
 1017 00de 73B1     		cbz	r3, .L75
 1018 00e0 3DB9     		cbnz	r5, .L83
 1019 00e2 0CE0     		b	.L75
 1020              	.LVL80:
 1021              	.L82:
 1022              	.LBB94:
 1023              		.loc 2 317 0
 1024 00e4 9968     		ldr	r1, [r3, #8]
 1025 00e6 55F82400 		ldr	r0, [r5, r4, lsl #2]
 1026 00ea FFF7FEFF 		bl	EE_oo_SetEvent
 1027              	.LVL81:
 1028              	.LBE94:
 314:.\SourceFiles\rte/sc_clock.h **** 		  
 1029              		.loc 2 314 0
 1030 00ee 0134     		adds	r4, r4, #1
 1031              	.LVL82:
 1032 00f0 00E0     		b	.L81
 1033              	.LVL83:
 1034              	.L83:
 313:.\SourceFiles\rte/sc_clock.h ****       for( taskNum=0 ; taskNum < signal->pSigCfg->onUpdateTaskCount ;taskNum++){
 1035              		.loc 2 313 0
 1036 00f2 0024     		movs	r4, #0
 1037              	.LVL84:
 1038              	.L81:
 314:.\SourceFiles\rte/sc_clock.h **** 		  
 1039              		.loc 2 314 0
 1040 00f4 044B     		ldr	r3, .L85+4
 1041 00f6 1B6C     		ldr	r3, [r3, #64]
 1042 00f8 1A69     		ldr	r2, [r3, #16]
 1043 00fa 9442     		cmp	r4, r2
 1044 00fc F2D3     		bcc	.L82
 1045              	.LVL85:
 1046              	.L75:
 1047              	.LBE93:
 1048              	.LBE92:
 606:SourceFiles\asw/swc_clock_control.c **** /**
 1049              		.loc 1 606 0
 1050 00fe 1CB0     		add	sp, sp, #112
ARM GAS  C:\Users\JASON\AppData\Local\Temp\cct5bgFA.s 			page 43


 1051              		.cfi_def_cfa_offset 16
 1052              		@ sp needed
 1053 0100 70BD     		pop	{r4, r5, r6, pc}
 1054              	.LVL86:
 1055              	.L86:
 1056 0102 00BF     		.align	2
 1057              	.L85:
 1058 0104 E4000000 		.word	.LC8
 1059 0108 00000000 		.word	SO_CLOCK_signal
 1060 010c ABAAAA2A 		.word	715827883
 1061 0110 89888888 		.word	-2004318071
 1062              		.cfi_endproc
 1063              	.LFE148:
 1064              		.size	CLOCK__incrementWidget, .-CLOCK__incrementWidget
 1065              		.section	.text.CLOCK__setDisplayFonts,"ax",%progbits
 1066              		.align	2
 1067              		.thumb
 1068              		.thumb_func
 1069              		.type	CLOCK__setDisplayFonts, %function
 1070              	CLOCK__setDisplayFonts:
 1071              	.LFB147:
 560:SourceFiles\asw/swc_clock_control.c ****     UART_LOG_PutString("CLOCK__setDisplayFonts\n");
 1072              		.loc 1 560 0
 1073              		.cfi_startproc
 1074              		@ args = 0, pretend = 0, frame = 120
 1075              		@ frame_needed = 0, uses_anonymous_args = 0
 1076 0000 70B5     		push	{r4, r5, r6, lr}
 1077              		.cfi_def_cfa_offset 16
 1078              		.cfi_offset 4, -16
 1079              		.cfi_offset 5, -12
 1080              		.cfi_offset 6, -8
 1081              		.cfi_offset 14, -4
 1082 0002 9EB0     		sub	sp, sp, #120
 1083              		.cfi_def_cfa_offset 136
 561:SourceFiles\asw/swc_clock_control.c ****     
 1084              		.loc 1 561 0
 1085 0004 2F48     		ldr	r0, .L95
 1086 0006 FFF7FEFF 		bl	UART_LOG_PutString
 1087              	.LVL87:
 1088              	.LBB95:
 1089              	.LBB96:
 265:.\SourceFiles\rte/sc_clock.h **** }                                                                                                  
 1090              		.loc 2 265 0
 1091 000a 2F4E     		ldr	r6, .L95+4
 1092 000c 10AC     		add	r4, sp, #64
 1093 000e 3546     		mov	r5, r6
 1094 0010 0FCD     		ldmia	r5!, {r0, r1, r2, r3}
 1095 0012 0FC4     		stmia	r4!, {r0, r1, r2, r3}
 1096 0014 0FCD     		ldmia	r5!, {r0, r1, r2, r3}
 1097 0016 0FC4     		stmia	r4!, {r0, r1, r2, r3}
 1098 0018 0FCD     		ldmia	r5!, {r0, r1, r2, r3}
 1099 001a 0FC4     		stmia	r4!, {r0, r1, r2, r3}
 1100 001c 95E80300 		ldmia	r5, {r0, r1}
 1101 0020 84E80300 		stmia	r4, {r0, r1}
 1102              	.LVL88:
 1103              	.LBE96:
 1104              	.LBE95:
ARM GAS  C:\Users\JASON\AppData\Local\Temp\cct5bgFA.s 			page 44


 568:SourceFiles\asw/swc_clock_control.c ****     font.background = BLACK;
 1105              		.loc 1 568 0
 1106 0024 4FF6FF73 		movw	r3, #65535
 1107 0028 ADF83C30 		strh	r3, [sp, #60]	@ movhi
 569:SourceFiles\asw/swc_clock_control.c ****         
 1108              		.loc 1 569 0
 1109 002c 0023     		movs	r3, #0
 1110 002e ADF83E30 		strh	r3, [sp, #62]	@ movhi
 571:SourceFiles\asw/swc_clock_control.c ****     clock.m_minutes.m_font  = font;
 1111              		.loc 1 571 0
 1112 0032 0F98     		ldr	r0, [sp, #60]	@ unaligned
 1113 0034 CDF85E00 		str	r0, [sp, #94]	@ unaligned
 572:SourceFiles\asw/swc_clock_control.c ****         
 1114              		.loc 1 572 0
 1115 0038 CDF87200 		str	r0, [sp, #114]	@ unaligned
 1116              	.LVL89:
 1117 003c 01AC     		add	r4, sp, #4
 1118 003e 10AD     		add	r5, sp, #64
 1119 0040 0FCD     		ldmia	r5!, {r0, r1, r2, r3}
 1120 0042 0FC4     		stmia	r4!, {r0, r1, r2, r3}
 1121 0044 0FCD     		ldmia	r5!, {r0, r1, r2, r3}
 1122 0046 0FC4     		stmia	r4!, {r0, r1, r2, r3}
 1123 0048 0FCD     		ldmia	r5!, {r0, r1, r2, r3}
 1124 004a 0FC4     		stmia	r4!, {r0, r1, r2, r3}
 1125 004c 95E80300 		ldmia	r5, {r0, r1}
 1126 0050 84E80300 		stmia	r4, {r0, r1}
 1127              	.LVL90:
 1128              	.LBB97:
 1129              	.LBB98:
 304:.\SourceFiles\rte/sc_clock.h ****    signal->value  = value;
 1130              		.loc 2 304 0
 1131 0054 336C     		ldr	r3, [r6, #64]
 1132 0056 93F82020 		ldrb	r2, [r3, #32]	@ zero_extendqisi2
 1133 005a 012A     		cmp	r2, #1
 1134 005c 02D1     		bne	.L88
 1135 005e 586A     		ldr	r0, [r3, #36]
 1136 0060 FFF7FEFF 		bl	EE_oo_GetResource
 1137              	.LVL91:
 1138              	.L88:
 305:.\SourceFiles\rte/sc_clock.h ****    signal->age    = 0;
 1139              		.loc 2 305 0
 1140 0064 184E     		ldr	r6, .L95+4
 1141 0066 3446     		mov	r4, r6
 1142 0068 01AD     		add	r5, sp, #4
 1143 006a 0FCD     		ldmia	r5!, {r0, r1, r2, r3}
 1144 006c 0FC4     		stmia	r4!, {r0, r1, r2, r3}
 1145 006e 0FCD     		ldmia	r5!, {r0, r1, r2, r3}
 1146 0070 0FC4     		stmia	r4!, {r0, r1, r2, r3}
 1147 0072 0FCD     		ldmia	r5!, {r0, r1, r2, r3}
 1148 0074 0FC4     		stmia	r4!, {r0, r1, r2, r3}
 1149 0076 95E80300 		ldmia	r5, {r0, r1}
 1150 007a 84E80300 		stmia	r4, {r0, r1}
 306:.\SourceFiles\rte/sc_clock.h ****    signal->status = RTE_SIGNALSTATUS_VALID;
 1151              		.loc 2 306 0
 1152 007e 0023     		movs	r3, #0
 1153 0080 F363     		str	r3, [r6, #60]
 307:.\SourceFiles\rte/sc_clock.h ****    if (TRUE == signal->pSigCfg->resourceActive) ReleaseResource(signal->pSigCfg->resource);
ARM GAS  C:\Users\JASON\AppData\Local\Temp\cct5bgFA.s 			page 45


 1154              		.loc 2 307 0
 1155 0082 0223     		movs	r3, #2
 1156 0084 86F83830 		strb	r3, [r6, #56]
 308:.\SourceFiles\rte/sc_clock.h **** 
 1157              		.loc 2 308 0
 1158 0088 336C     		ldr	r3, [r6, #64]
 1159 008a 93F82020 		ldrb	r2, [r3, #32]	@ zero_extendqisi2
 1160 008e 012A     		cmp	r2, #1
 1161 0090 02D1     		bne	.L89
 1162 0092 586A     		ldr	r0, [r3, #36]
 1163 0094 FFF7FEFF 		bl	EE_oo_ReleaseResource
 1164              	.LVL92:
 1165              	.L89:
 311:.\SourceFiles\rte/sc_clock.h **** 
 1166              		.loc 2 311 0
 1167 0098 0B4B     		ldr	r3, .L95+4
 1168 009a 1B6C     		ldr	r3, [r3, #64]
 1169 009c 5D69     		ldr	r5, [r3, #20]
 1170              	.LVL93:
 313:.\SourceFiles\rte/sc_clock.h ****       for( taskNum=0 ; taskNum < signal->pSigCfg->onUpdateTaskCount ;taskNum++){
 1171              		.loc 2 313 0
 1172 009e 9B68     		ldr	r3, [r3, #8]
 1173 00a0 73B1     		cbz	r3, .L87
 1174 00a2 3DB9     		cbnz	r5, .L93
 1175 00a4 0CE0     		b	.L87
 1176              	.LVL94:
 1177              	.L92:
 1178              	.LBB99:
 1179              		.loc 2 317 0
 1180 00a6 9968     		ldr	r1, [r3, #8]
 1181 00a8 55F82400 		ldr	r0, [r5, r4, lsl #2]
 1182 00ac FFF7FEFF 		bl	EE_oo_SetEvent
 1183              	.LVL95:
 1184              	.LBE99:
 314:.\SourceFiles\rte/sc_clock.h **** 		  
 1185              		.loc 2 314 0
 1186 00b0 0134     		adds	r4, r4, #1
 1187              	.LVL96:
 1188 00b2 00E0     		b	.L91
 1189              	.LVL97:
 1190              	.L93:
 313:.\SourceFiles\rte/sc_clock.h ****       for( taskNum=0 ; taskNum < signal->pSigCfg->onUpdateTaskCount ;taskNum++){
 1191              		.loc 2 313 0
 1192 00b4 0024     		movs	r4, #0
 1193              	.LVL98:
 1194              	.L91:
 314:.\SourceFiles\rte/sc_clock.h **** 		  
 1195              		.loc 2 314 0
 1196 00b6 044B     		ldr	r3, .L95+4
 1197 00b8 1B6C     		ldr	r3, [r3, #64]
 1198 00ba 1A69     		ldr	r2, [r3, #16]
 1199 00bc 9442     		cmp	r4, r2
 1200 00be F2D3     		bcc	.L92
 1201              	.LVL99:
 1202              	.L87:
 1203              	.LBE98:
 1204              	.LBE97:
ARM GAS  C:\Users\JASON\AppData\Local\Temp\cct5bgFA.s 			page 46


 576:SourceFiles\asw/swc_clock_control.c **** /**
 1205              		.loc 1 576 0
 1206 00c0 1EB0     		add	sp, sp, #120
 1207              		.cfi_def_cfa_offset 16
 1208              		@ sp needed
 1209 00c2 70BD     		pop	{r4, r5, r6, pc}
 1210              	.LVL100:
 1211              	.L96:
 1212              		.align	2
 1213              	.L95:
 1214 00c4 FC000000 		.word	.LC9
 1215 00c8 00000000 		.word	SO_CLOCK_signal
 1216              		.cfi_endproc
 1217              	.LFE147:
 1218              		.size	CLOCK__setDisplayFonts, .-CLOCK__setDisplayFonts
 1219              		.section	.text.CLOCK__setEditFonts,"ax",%progbits
 1220              		.align	2
 1221              		.thumb
 1222              		.thumb_func
 1223              		.type	CLOCK__setEditFonts, %function
 1224              	CLOCK__setEditFonts:
 1225              	.LFB146:
 525:SourceFiles\asw/swc_clock_control.c ****     UART_LOG_PutString("CLOCK__setEditFonts\n");
 1226              		.loc 1 525 0
 1227              		.cfi_startproc
 1228              		@ args = 0, pretend = 0, frame = 120
 1229              		@ frame_needed = 0, uses_anonymous_args = 0
 1230 0000 70B5     		push	{r4, r5, r6, lr}
 1231              		.cfi_def_cfa_offset 16
 1232              		.cfi_offset 4, -16
 1233              		.cfi_offset 5, -12
 1234              		.cfi_offset 6, -8
 1235              		.cfi_offset 14, -4
 1236 0002 9EB0     		sub	sp, sp, #120
 1237              		.cfi_def_cfa_offset 136
 526:SourceFiles\asw/swc_clock_control.c ****     
 1238              		.loc 1 526 0
 1239 0004 3848     		ldr	r0, .L107
 1240 0006 FFF7FEFF 		bl	UART_LOG_PutString
 1241              	.LVL101:
 1242              	.LBB100:
 1243              	.LBB101:
 265:.\SourceFiles\rte/sc_clock.h **** }                                                                                                  
 1244              		.loc 2 265 0
 1245 000a 10AC     		add	r4, sp, #64
 1246 000c 374D     		ldr	r5, .L107+4
 1247 000e 0FCD     		ldmia	r5!, {r0, r1, r2, r3}
 1248 0010 0FC4     		stmia	r4!, {r0, r1, r2, r3}
 1249 0012 0FCD     		ldmia	r5!, {r0, r1, r2, r3}
 1250 0014 0FC4     		stmia	r4!, {r0, r1, r2, r3}
 1251 0016 0FCD     		ldmia	r5!, {r0, r1, r2, r3}
 1252 0018 0FC4     		stmia	r4!, {r0, r1, r2, r3}
 1253 001a 95E80300 		ldmia	r5, {r0, r1}
 1254 001e 84E80300 		stmia	r4, {r0, r1}
 1255              	.LVL102:
 1256              	.LBE101:
 1257              	.LBE100:
ARM GAS  C:\Users\JASON\AppData\Local\Temp\cct5bgFA.s 			page 47


 534:SourceFiles\asw/swc_clock_control.c ****     activeFont.background   = WHITE;
 1258              		.loc 1 534 0
 1259 0022 0023     		movs	r3, #0
 1260 0024 ADF83C30 		strh	r3, [sp, #60]	@ movhi
 535:SourceFiles\asw/swc_clock_control.c ****     
 1261              		.loc 1 535 0
 1262 0028 4FF6FF72 		movw	r2, #65535
 1263 002c ADF83E20 		strh	r2, [sp, #62]	@ movhi
 537:SourceFiles\asw/swc_clock_control.c ****     inactiveFont.background = BLACK;
 1264              		.loc 1 537 0
 1265 0030 ADF83820 		strh	r2, [sp, #56]	@ movhi
 538:SourceFiles\asw/swc_clock_control.c ****         
 1266              		.loc 1 538 0
 1267 0034 ADF83A30 		strh	r3, [sp, #58]	@ movhi
 540:SourceFiles\asw/swc_clock_control.c ****     {
 1268              		.loc 1 540 0
 1269 0038 9DF84C30 		ldrb	r3, [sp, #76]	@ zero_extendqisi2
 1270 003c 012B     		cmp	r3, #1
 1271 003e 05D1     		bne	.L98
 542:SourceFiles\asw/swc_clock_control.c ****         clock.m_minutes.m_font      = inactiveFont;
 1272              		.loc 1 542 0
 1273 0040 0F98     		ldr	r0, [sp, #60]	@ unaligned
 1274 0042 CDF85E00 		str	r0, [sp, #94]	@ unaligned
 543:SourceFiles\asw/swc_clock_control.c ****     }
 1275              		.loc 1 543 0
 1276 0046 0E98     		ldr	r0, [sp, #56]	@ unaligned
 1277 0048 CDF87200 		str	r0, [sp, #114]	@ unaligned
 1278              	.L98:
 546:SourceFiles\asw/swc_clock_control.c ****     {
 1279              		.loc 1 546 0
 1280 004c 022B     		cmp	r3, #2
 1281 004e 05D1     		bne	.L99
 548:SourceFiles\asw/swc_clock_control.c ****         clock.m_minutes.m_font      = activeFont;
 1282              		.loc 1 548 0
 1283 0050 0E98     		ldr	r0, [sp, #56]	@ unaligned
 1284 0052 CDF85E00 		str	r0, [sp, #94]	@ unaligned
 549:SourceFiles\asw/swc_clock_control.c ****     }
 1285              		.loc 1 549 0
 1286 0056 0F98     		ldr	r0, [sp, #60]	@ unaligned
 1287 0058 CDF87200 		str	r0, [sp, #114]	@ unaligned
 1288              	.L99:
 1289              	.LVL103:
 1290 005c 6C46     		mov	r4, sp
 1291 005e 10AD     		add	r5, sp, #64
 1292 0060 0FCD     		ldmia	r5!, {r0, r1, r2, r3}
 1293 0062 0FC4     		stmia	r4!, {r0, r1, r2, r3}
 1294 0064 0FCD     		ldmia	r5!, {r0, r1, r2, r3}
 1295 0066 0FC4     		stmia	r4!, {r0, r1, r2, r3}
 1296 0068 0FCD     		ldmia	r5!, {r0, r1, r2, r3}
 1297 006a 0FC4     		stmia	r4!, {r0, r1, r2, r3}
 1298 006c 95E80300 		ldmia	r5, {r0, r1}
 1299 0070 84E80300 		stmia	r4, {r0, r1}
 1300              	.LVL104:
 1301              	.LBB102:
 1302              	.LBB103:
 304:.\SourceFiles\rte/sc_clock.h ****    signal->value  = value;
 1303              		.loc 2 304 0
ARM GAS  C:\Users\JASON\AppData\Local\Temp\cct5bgFA.s 			page 48


 1304 0074 1D4B     		ldr	r3, .L107+4
 1305 0076 1B6C     		ldr	r3, [r3, #64]
 1306 0078 93F82020 		ldrb	r2, [r3, #32]	@ zero_extendqisi2
 1307 007c 012A     		cmp	r2, #1
 1308 007e 02D1     		bne	.L100
 1309 0080 586A     		ldr	r0, [r3, #36]
 1310 0082 FFF7FEFF 		bl	EE_oo_GetResource
 1311              	.LVL105:
 1312              	.L100:
 305:.\SourceFiles\rte/sc_clock.h ****    signal->age    = 0;
 1313              		.loc 2 305 0
 1314 0086 194E     		ldr	r6, .L107+4
 1315 0088 3446     		mov	r4, r6
 1316 008a 6D46     		mov	r5, sp
 1317 008c 0FCD     		ldmia	r5!, {r0, r1, r2, r3}
 1318 008e 0FC4     		stmia	r4!, {r0, r1, r2, r3}
 1319 0090 0FCD     		ldmia	r5!, {r0, r1, r2, r3}
 1320 0092 0FC4     		stmia	r4!, {r0, r1, r2, r3}
 1321 0094 0FCD     		ldmia	r5!, {r0, r1, r2, r3}
 1322 0096 0FC4     		stmia	r4!, {r0, r1, r2, r3}
 1323 0098 95E80300 		ldmia	r5, {r0, r1}
 1324 009c 84E80300 		stmia	r4, {r0, r1}
 306:.\SourceFiles\rte/sc_clock.h ****    signal->status = RTE_SIGNALSTATUS_VALID;
 1325              		.loc 2 306 0
 1326 00a0 0023     		movs	r3, #0
 1327 00a2 F363     		str	r3, [r6, #60]
 307:.\SourceFiles\rte/sc_clock.h ****    if (TRUE == signal->pSigCfg->resourceActive) ReleaseResource(signal->pSigCfg->resource);
 1328              		.loc 2 307 0
 1329 00a4 0223     		movs	r3, #2
 1330 00a6 86F83830 		strb	r3, [r6, #56]
 308:.\SourceFiles\rte/sc_clock.h **** 
 1331              		.loc 2 308 0
 1332 00aa 336C     		ldr	r3, [r6, #64]
 1333 00ac 93F82020 		ldrb	r2, [r3, #32]	@ zero_extendqisi2
 1334 00b0 012A     		cmp	r2, #1
 1335 00b2 02D1     		bne	.L101
 1336 00b4 586A     		ldr	r0, [r3, #36]
 1337 00b6 FFF7FEFF 		bl	EE_oo_ReleaseResource
 1338              	.LVL106:
 1339              	.L101:
 311:.\SourceFiles\rte/sc_clock.h **** 
 1340              		.loc 2 311 0
 1341 00ba 0C4B     		ldr	r3, .L107+4
 1342 00bc 1B6C     		ldr	r3, [r3, #64]
 1343 00be 5D69     		ldr	r5, [r3, #20]
 1344              	.LVL107:
 313:.\SourceFiles\rte/sc_clock.h ****       for( taskNum=0 ; taskNum < signal->pSigCfg->onUpdateTaskCount ;taskNum++){
 1345              		.loc 2 313 0
 1346 00c0 9B68     		ldr	r3, [r3, #8]
 1347 00c2 73B1     		cbz	r3, .L97
 1348 00c4 3DB9     		cbnz	r5, .L105
 1349 00c6 0CE0     		b	.L97
 1350              	.LVL108:
 1351              	.L104:
 1352              	.LBB104:
 1353              		.loc 2 317 0
 1354 00c8 9968     		ldr	r1, [r3, #8]
ARM GAS  C:\Users\JASON\AppData\Local\Temp\cct5bgFA.s 			page 49


 1355 00ca 55F82400 		ldr	r0, [r5, r4, lsl #2]
 1356 00ce FFF7FEFF 		bl	EE_oo_SetEvent
 1357              	.LVL109:
 1358              	.LBE104:
 314:.\SourceFiles\rte/sc_clock.h **** 		  
 1359              		.loc 2 314 0
 1360 00d2 0134     		adds	r4, r4, #1
 1361              	.LVL110:
 1362 00d4 00E0     		b	.L103
 1363              	.LVL111:
 1364              	.L105:
 313:.\SourceFiles\rte/sc_clock.h ****       for( taskNum=0 ; taskNum < signal->pSigCfg->onUpdateTaskCount ;taskNum++){
 1365              		.loc 2 313 0
 1366 00d6 0024     		movs	r4, #0
 1367              	.LVL112:
 1368              	.L103:
 314:.\SourceFiles\rte/sc_clock.h **** 		  
 1369              		.loc 2 314 0
 1370 00d8 044B     		ldr	r3, .L107+4
 1371 00da 1B6C     		ldr	r3, [r3, #64]
 1372 00dc 1A69     		ldr	r2, [r3, #16]
 1373 00de 9442     		cmp	r4, r2
 1374 00e0 F2D3     		bcc	.L104
 1375              	.LVL113:
 1376              	.L97:
 1377              	.LBE103:
 1378              	.LBE102:
 554:SourceFiles\asw/swc_clock_control.c **** /**
 1379              		.loc 1 554 0
 1380 00e2 1EB0     		add	sp, sp, #120
 1381              		.cfi_def_cfa_offset 16
 1382              		@ sp needed
 1383 00e4 70BD     		pop	{r4, r5, r6, pc}
 1384              	.LVL114:
 1385              	.L108:
 1386 00e6 00BF     		.align	2
 1387              	.L107:
 1388 00e8 14010000 		.word	.LC10
 1389 00ec 00000000 		.word	SO_CLOCK_signal
 1390              		.cfi_endproc
 1391              	.LFE146:
 1392              		.size	CLOCK__setEditFonts, .-CLOCK__setEditFonts
 1393              		.section	.text.CLOCK__dispatch_KRLP_Hours,"ax",%progbits
 1394              		.align	2
 1395              		.thumb
 1396              		.thumb_func
 1397              		.type	CLOCK__dispatch_KRLP_Hours, %function
 1398              	CLOCK__dispatch_KRLP_Hours:
 1399              	.LFB139:
 445:SourceFiles\asw/swc_clock_control.c ****     UART_LOG_PutString("CLOCK__dispatch_KRLP_Hours\n");
 1400              		.loc 1 445 0
 1401              		.cfi_startproc
 1402              		@ args = 0, pretend = 0, frame = 0
 1403              		@ frame_needed = 0, uses_anonymous_args = 0
 1404 0000 38B5     		push	{r3, r4, r5, lr}
 1405              		.cfi_def_cfa_offset 16
 1406              		.cfi_offset 3, -16
ARM GAS  C:\Users\JASON\AppData\Local\Temp\cct5bgFA.s 			page 50


 1407              		.cfi_offset 4, -12
 1408              		.cfi_offset 5, -8
 1409              		.cfi_offset 14, -4
 446:SourceFiles\asw/swc_clock_control.c ****     CLOCK__dispatch_wrapper(EV_KEYRIGHTLONGPRESS, CLOCK_HOURWIDGET);
 1410              		.loc 1 446 0
 1411 0002 1A48     		ldr	r0, .L117
 1412 0004 FFF7FEFF 		bl	UART_LOG_PutString
 1413              	.LVL115:
 447:SourceFiles\asw/swc_clock_control.c ****     
 1414              		.loc 1 447 0
 1415 0008 0121     		movs	r1, #1
 1416 000a 0320     		movs	r0, #3
 1417 000c FFF7FEFF 		bl	CLOCK__dispatch_wrapper
 1418              	.LVL116:
 1419              	.LBB105:
 1420              	.LBB106:
 304:.\SourceFiles\rte/sc_event.h ****    signal->value  = value;
 1421              		.loc 3 304 0
 1422 0010 174B     		ldr	r3, .L117+4
 1423 0012 9B68     		ldr	r3, [r3, #8]
 1424 0014 93F82020 		ldrb	r2, [r3, #32]	@ zero_extendqisi2
 1425 0018 012A     		cmp	r2, #1
 1426 001a 02D1     		bne	.L110
 1427 001c 586A     		ldr	r0, [r3, #36]
 1428 001e FFF7FEFF 		bl	EE_oo_GetResource
 1429              	.LVL117:
 1430              	.L110:
 305:.\SourceFiles\rte/sc_event.h ****    signal->age    = 0;
 1431              		.loc 3 305 0
 1432 0022 134B     		ldr	r3, .L117+4
 1433 0024 0422     		movs	r2, #4
 1434 0026 1A70     		strb	r2, [r3]
 306:.\SourceFiles\rte/sc_event.h ****    signal->status = RTE_SIGNALSTATUS_VALID;
 1435              		.loc 3 306 0
 1436 0028 0022     		movs	r2, #0
 1437 002a 5A60     		str	r2, [r3, #4]
 307:.\SourceFiles\rte/sc_event.h ****    if (TRUE == signal->pSigCfg->resourceActive) ReleaseResource(signal->pSigCfg->resource);
 1438              		.loc 3 307 0
 1439 002c 0222     		movs	r2, #2
 1440 002e 5A70     		strb	r2, [r3, #1]
 308:.\SourceFiles\rte/sc_event.h **** 
 1441              		.loc 3 308 0
 1442 0030 9B68     		ldr	r3, [r3, #8]
 1443 0032 93F82020 		ldrb	r2, [r3, #32]	@ zero_extendqisi2
 1444 0036 012A     		cmp	r2, #1
 1445 0038 02D1     		bne	.L111
 1446 003a 586A     		ldr	r0, [r3, #36]
 1447 003c FFF7FEFF 		bl	EE_oo_ReleaseResource
 1448              	.LVL118:
 1449              	.L111:
 311:.\SourceFiles\rte/sc_event.h **** 
 1450              		.loc 3 311 0
 1451 0040 0B4B     		ldr	r3, .L117+4
 1452 0042 9B68     		ldr	r3, [r3, #8]
 1453 0044 5D69     		ldr	r5, [r3, #20]
 1454              	.LVL119:
 313:.\SourceFiles\rte/sc_event.h ****       for( taskNum=0 ; taskNum < signal->pSigCfg->onUpdateTaskCount ;taskNum++){
ARM GAS  C:\Users\JASON\AppData\Local\Temp\cct5bgFA.s 			page 51


 1455              		.loc 3 313 0
 1456 0046 9B68     		ldr	r3, [r3, #8]
 1457 0048 73B1     		cbz	r3, .L109
 1458 004a 3DB9     		cbnz	r5, .L115
 1459 004c 38BD     		pop	{r3, r4, r5, pc}
 1460              	.LVL120:
 1461              	.L114:
 1462              	.LBB107:
 1463              		.loc 3 317 0
 1464 004e 9968     		ldr	r1, [r3, #8]
 1465 0050 55F82400 		ldr	r0, [r5, r4, lsl #2]
 1466 0054 FFF7FEFF 		bl	EE_oo_SetEvent
 1467              	.LVL121:
 1468              	.LBE107:
 314:.\SourceFiles\rte/sc_event.h **** 		  
 1469              		.loc 3 314 0
 1470 0058 0134     		adds	r4, r4, #1
 1471              	.LVL122:
 1472 005a 00E0     		b	.L113
 1473              	.LVL123:
 1474              	.L115:
 313:.\SourceFiles\rte/sc_event.h ****       for( taskNum=0 ; taskNum < signal->pSigCfg->onUpdateTaskCount ;taskNum++){
 1475              		.loc 3 313 0
 1476 005c 0024     		movs	r4, #0
 1477              	.LVL124:
 1478              	.L113:
 314:.\SourceFiles\rte/sc_event.h **** 		  
 1479              		.loc 3 314 0
 1480 005e 044B     		ldr	r3, .L117+4
 1481 0060 9B68     		ldr	r3, [r3, #8]
 1482 0062 1A69     		ldr	r2, [r3, #16]
 1483 0064 9442     		cmp	r4, r2
 1484 0066 F2D3     		bcc	.L114
 1485              	.LVL125:
 1486              	.L109:
 1487 0068 38BD     		pop	{r3, r4, r5, pc}
 1488              	.LVL126:
 1489              	.L118:
 1490 006a 00BF     		.align	2
 1491              	.L117:
 1492 006c 2C010000 		.word	.LC11
 1493 0070 00000000 		.word	SO_EVENT_signal
 1494              	.LBE106:
 1495              	.LBE105:
 1496              		.cfi_endproc
 1497              	.LFE139:
 1498              		.size	CLOCK__dispatch_KRLP_Hours, .-CLOCK__dispatch_KRLP_Hours
 1499              		.section	.text.CLOCK__dispatch_KRLP_Min,"ax",%progbits
 1500              		.align	2
 1501              		.thumb
 1502              		.thumb_func
 1503              		.type	CLOCK__dispatch_KRLP_Min, %function
 1504              	CLOCK__dispatch_KRLP_Min:
 1505              	.LFB140:
 458:SourceFiles\asw/swc_clock_control.c ****     UART_LOG_PutString("CLOCK__dispatch_KRLP_Min\n");
 1506              		.loc 1 458 0
 1507              		.cfi_startproc
ARM GAS  C:\Users\JASON\AppData\Local\Temp\cct5bgFA.s 			page 52


 1508              		@ args = 0, pretend = 0, frame = 0
 1509              		@ frame_needed = 0, uses_anonymous_args = 0
 1510 0000 38B5     		push	{r3, r4, r5, lr}
 1511              		.cfi_def_cfa_offset 16
 1512              		.cfi_offset 3, -16
 1513              		.cfi_offset 4, -12
 1514              		.cfi_offset 5, -8
 1515              		.cfi_offset 14, -4
 459:SourceFiles\asw/swc_clock_control.c ****     CLOCK__dispatch_wrapper(EV_KEYRIGHTLONGPRESS, CLOCK_MINWIDGET);
 1516              		.loc 1 459 0
 1517 0002 1A48     		ldr	r0, .L127
 1518 0004 FFF7FEFF 		bl	UART_LOG_PutString
 1519              	.LVL127:
 460:SourceFiles\asw/swc_clock_control.c ****     
 1520              		.loc 1 460 0
 1521 0008 0221     		movs	r1, #2
 1522 000a 0320     		movs	r0, #3
 1523 000c FFF7FEFF 		bl	CLOCK__dispatch_wrapper
 1524              	.LVL128:
 1525              	.LBB108:
 1526              	.LBB109:
 304:.\SourceFiles\rte/sc_event.h ****    signal->value  = value;
 1527              		.loc 3 304 0
 1528 0010 174B     		ldr	r3, .L127+4
 1529 0012 9B68     		ldr	r3, [r3, #8]
 1530 0014 93F82020 		ldrb	r2, [r3, #32]	@ zero_extendqisi2
 1531 0018 012A     		cmp	r2, #1
 1532 001a 02D1     		bne	.L120
 1533 001c 586A     		ldr	r0, [r3, #36]
 1534 001e FFF7FEFF 		bl	EE_oo_GetResource
 1535              	.LVL129:
 1536              	.L120:
 305:.\SourceFiles\rte/sc_event.h ****    signal->age    = 0;
 1537              		.loc 3 305 0
 1538 0022 134B     		ldr	r3, .L127+4
 1539 0024 0422     		movs	r2, #4
 1540 0026 1A70     		strb	r2, [r3]
 306:.\SourceFiles\rte/sc_event.h ****    signal->status = RTE_SIGNALSTATUS_VALID;
 1541              		.loc 3 306 0
 1542 0028 0022     		movs	r2, #0
 1543 002a 5A60     		str	r2, [r3, #4]
 307:.\SourceFiles\rte/sc_event.h ****    if (TRUE == signal->pSigCfg->resourceActive) ReleaseResource(signal->pSigCfg->resource);
 1544              		.loc 3 307 0
 1545 002c 0222     		movs	r2, #2
 1546 002e 5A70     		strb	r2, [r3, #1]
 308:.\SourceFiles\rte/sc_event.h **** 
 1547              		.loc 3 308 0
 1548 0030 9B68     		ldr	r3, [r3, #8]
 1549 0032 93F82020 		ldrb	r2, [r3, #32]	@ zero_extendqisi2
 1550 0036 012A     		cmp	r2, #1
 1551 0038 02D1     		bne	.L121
 1552 003a 586A     		ldr	r0, [r3, #36]
 1553 003c FFF7FEFF 		bl	EE_oo_ReleaseResource
 1554              	.LVL130:
 1555              	.L121:
 311:.\SourceFiles\rte/sc_event.h **** 
 1556              		.loc 3 311 0
ARM GAS  C:\Users\JASON\AppData\Local\Temp\cct5bgFA.s 			page 53


 1557 0040 0B4B     		ldr	r3, .L127+4
 1558 0042 9B68     		ldr	r3, [r3, #8]
 1559 0044 5D69     		ldr	r5, [r3, #20]
 1560              	.LVL131:
 313:.\SourceFiles\rte/sc_event.h ****       for( taskNum=0 ; taskNum < signal->pSigCfg->onUpdateTaskCount ;taskNum++){
 1561              		.loc 3 313 0
 1562 0046 9B68     		ldr	r3, [r3, #8]
 1563 0048 73B1     		cbz	r3, .L119
 1564 004a 3DB9     		cbnz	r5, .L125
 1565 004c 38BD     		pop	{r3, r4, r5, pc}
 1566              	.LVL132:
 1567              	.L124:
 1568              	.LBB110:
 1569              		.loc 3 317 0
 1570 004e 9968     		ldr	r1, [r3, #8]
 1571 0050 55F82400 		ldr	r0, [r5, r4, lsl #2]
 1572 0054 FFF7FEFF 		bl	EE_oo_SetEvent
 1573              	.LVL133:
 1574              	.LBE110:
 314:.\SourceFiles\rte/sc_event.h **** 		  
 1575              		.loc 3 314 0
 1576 0058 0134     		adds	r4, r4, #1
 1577              	.LVL134:
 1578 005a 00E0     		b	.L123
 1579              	.LVL135:
 1580              	.L125:
 313:.\SourceFiles\rte/sc_event.h ****       for( taskNum=0 ; taskNum < signal->pSigCfg->onUpdateTaskCount ;taskNum++){
 1581              		.loc 3 313 0
 1582 005c 0024     		movs	r4, #0
 1583              	.LVL136:
 1584              	.L123:
 314:.\SourceFiles\rte/sc_event.h **** 		  
 1585              		.loc 3 314 0
 1586 005e 044B     		ldr	r3, .L127+4
 1587 0060 9B68     		ldr	r3, [r3, #8]
 1588 0062 1A69     		ldr	r2, [r3, #16]
 1589 0064 9442     		cmp	r4, r2
 1590 0066 F2D3     		bcc	.L124
 1591              	.LVL137:
 1592              	.L119:
 1593 0068 38BD     		pop	{r3, r4, r5, pc}
 1594              	.LVL138:
 1595              	.L128:
 1596 006a 00BF     		.align	2
 1597              	.L127:
 1598 006c 48010000 		.word	.LC12
 1599 0070 00000000 		.word	SO_EVENT_signal
 1600              	.LBE109:
 1601              	.LBE108:
 1602              		.cfi_endproc
 1603              	.LFE140:
 1604              		.size	CLOCK__dispatch_KRLP_Min, .-CLOCK__dispatch_KRLP_Min
 1605              		.section	.text.CLOCK__increment1Minute,"ax",%progbits
 1606              		.align	2
 1607              		.thumb
 1608              		.thumb_func
 1609              		.type	CLOCK__increment1Minute, %function
ARM GAS  C:\Users\JASON\AppData\Local\Temp\cct5bgFA.s 			page 54


 1610              	CLOCK__increment1Minute:
 1611              	.LFB143:
 488:SourceFiles\asw/swc_clock_control.c ****     UART_LOG_PutString("CLOCK__increment1Minute\n");
 1612              		.loc 1 488 0
 1613              		.cfi_startproc
 1614              		@ args = 0, pretend = 0, frame = 112
 1615              		@ frame_needed = 0, uses_anonymous_args = 0
 1616 0000 70B5     		push	{r4, r5, r6, lr}
 1617              		.cfi_def_cfa_offset 16
 1618              		.cfi_offset 4, -16
 1619              		.cfi_offset 5, -12
 1620              		.cfi_offset 6, -8
 1621              		.cfi_offset 14, -4
 1622 0002 9CB0     		sub	sp, sp, #112
 1623              		.cfi_def_cfa_offset 128
 489:SourceFiles\asw/swc_clock_control.c **** 	
 1624              		.loc 1 489 0
 1625 0004 3A48     		ldr	r0, .L138
 1626 0006 FFF7FEFF 		bl	UART_LOG_PutString
 1627              	.LVL139:
 1628              	.LBB111:
 1629              	.LBB112:
 265:.\SourceFiles\rte/sc_clock.h **** }                                                                                                  
 1630              		.loc 2 265 0
 1631 000a 0EAC     		add	r4, sp, #56
 1632 000c 394D     		ldr	r5, .L138+4
 1633 000e 0FCD     		ldmia	r5!, {r0, r1, r2, r3}
 1634 0010 0FC4     		stmia	r4!, {r0, r1, r2, r3}
 1635 0012 0FCD     		ldmia	r5!, {r0, r1, r2, r3}
 1636 0014 0FC4     		stmia	r4!, {r0, r1, r2, r3}
 1637 0016 0FCD     		ldmia	r5!, {r0, r1, r2, r3}
 1638 0018 0FC4     		stmia	r4!, {r0, r1, r2, r3}
 1639 001a 95E80300 		ldmia	r5, {r0, r1}
 1640 001e 84E80300 		stmia	r4, {r0, r1}
 1641              	.LVL140:
 1642              	.LBE112:
 1643              	.LBE111:
 494:SourceFiles\asw/swc_clock_control.c **** 	uint16_t mm = clock.m_minutes.m_value;
 1644              		.loc 1 494 0
 1645 0022 BDF85410 		ldrh	r1, [sp, #84]
 1646              	.LVL141:
 495:SourceFiles\asw/swc_clock_control.c **** 	
 1647              		.loc 1 495 0
 1648 0026 BDF86820 		ldrh	r2, [sp, #104]
 1649              	.LVL142:
 497:SourceFiles\asw/swc_clock_control.c **** 	hh = (mm == 0)? ((hh + 1) % 24) : hh;
 1650              		.loc 1 497 0
 1651 002a 0132     		adds	r2, r2, #1
 1652              	.LVL143:
 1653 002c 324C     		ldr	r4, .L138+8
 1654 002e 82FB0445 		smull	r4, r5, r2, r4
 1655 0032 5019     		adds	r0, r2, r5
 1656 0034 D317     		asrs	r3, r2, #31
 1657 0036 C3EB6013 		rsb	r3, r3, r0, asr #5
 1658 003a C3EB0313 		rsb	r3, r3, r3, lsl #4
 1659 003e 9800     		lsls	r0, r3, #2
 1660 0040 131A     		subs	r3, r2, r0
ARM GAS  C:\Users\JASON\AppData\Local\Temp\cct5bgFA.s 			page 55


 1661 0042 9BB2     		uxth	r3, r3
 1662              	.LVL144:
 498:SourceFiles\asw/swc_clock_control.c **** 	
 1663              		.loc 1 498 0
 1664 0044 5BB9     		cbnz	r3, .L130
 498:SourceFiles\asw/swc_clock_control.c **** 	
 1665              		.loc 1 498 0 is_stmt 0 discriminator 1
 1666 0046 4A1C     		adds	r2, r1, #1
 1667 0048 2C49     		ldr	r1, .L138+12
 1668              	.LVL145:
 1669 004a 81FB0210 		smull	r1, r0, r1, r2
 1670 004e D117     		asrs	r1, r2, #31
 1671 0050 C1EBA001 		rsb	r1, r1, r0, asr #2
 1672 0054 01EB4101 		add	r1, r1, r1, lsl #1
 1673 0058 C800     		lsls	r0, r1, #3
 1674 005a 111A     		subs	r1, r2, r0
 1675 005c 89B2     		uxth	r1, r1
 1676              	.LVL146:
 1677              	.L130:
 501:SourceFiles\asw/swc_clock_control.c **** 	clock.m_minutes.m_value	= mm;
 1678              		.loc 1 501 0 is_stmt 1 discriminator 4
 1679 005e ADF85410 		strh	r1, [sp, #84]	@ movhi
 502:SourceFiles\asw/swc_clock_control.c **** 	
 1680              		.loc 1 502 0 discriminator 4
 1681 0062 ADF86830 		strh	r3, [sp, #104]	@ movhi
 1682              	.LVL147:
 1683 0066 6C46     		mov	r4, sp
 1684 0068 0EAD     		add	r5, sp, #56
 1685 006a 0FCD     		ldmia	r5!, {r0, r1, r2, r3}
 1686              	.LVL148:
 1687 006c 0FC4     		stmia	r4!, {r0, r1, r2, r3}
 1688 006e 0FCD     		ldmia	r5!, {r0, r1, r2, r3}
 1689 0070 0FC4     		stmia	r4!, {r0, r1, r2, r3}
 1690 0072 0FCD     		ldmia	r5!, {r0, r1, r2, r3}
 1691 0074 0FC4     		stmia	r4!, {r0, r1, r2, r3}
 1692 0076 95E80300 		ldmia	r5, {r0, r1}
 1693 007a 84E80300 		stmia	r4, {r0, r1}
 1694              	.LVL149:
 1695              	.LBB113:
 1696              	.LBB114:
 304:.\SourceFiles\rte/sc_clock.h ****    signal->value  = value;
 1697              		.loc 2 304 0 discriminator 4
 1698 007e 1D4B     		ldr	r3, .L138+4
 1699 0080 1B6C     		ldr	r3, [r3, #64]
 1700 0082 93F82020 		ldrb	r2, [r3, #32]	@ zero_extendqisi2
 1701 0086 012A     		cmp	r2, #1
 1702 0088 02D1     		bne	.L131
 304:.\SourceFiles\rte/sc_clock.h ****    signal->value  = value;
 1703              		.loc 2 304 0 is_stmt 0
 1704 008a 586A     		ldr	r0, [r3, #36]
 1705 008c FFF7FEFF 		bl	EE_oo_GetResource
 1706              	.LVL150:
 1707              	.L131:
 305:.\SourceFiles\rte/sc_clock.h ****    signal->age    = 0;
 1708              		.loc 2 305 0 is_stmt 1
 1709 0090 184E     		ldr	r6, .L138+4
 1710 0092 3446     		mov	r4, r6
ARM GAS  C:\Users\JASON\AppData\Local\Temp\cct5bgFA.s 			page 56


 1711 0094 6D46     		mov	r5, sp
 1712 0096 0FCD     		ldmia	r5!, {r0, r1, r2, r3}
 1713 0098 0FC4     		stmia	r4!, {r0, r1, r2, r3}
 1714 009a 0FCD     		ldmia	r5!, {r0, r1, r2, r3}
 1715 009c 0FC4     		stmia	r4!, {r0, r1, r2, r3}
 1716 009e 0FCD     		ldmia	r5!, {r0, r1, r2, r3}
 1717 00a0 0FC4     		stmia	r4!, {r0, r1, r2, r3}
 1718 00a2 95E80300 		ldmia	r5, {r0, r1}
 1719 00a6 84E80300 		stmia	r4, {r0, r1}
 306:.\SourceFiles\rte/sc_clock.h ****    signal->status = RTE_SIGNALSTATUS_VALID;
 1720              		.loc 2 306 0
 1721 00aa 0023     		movs	r3, #0
 1722 00ac F363     		str	r3, [r6, #60]
 307:.\SourceFiles\rte/sc_clock.h ****    if (TRUE == signal->pSigCfg->resourceActive) ReleaseResource(signal->pSigCfg->resource);
 1723              		.loc 2 307 0
 1724 00ae 0223     		movs	r3, #2
 1725 00b0 86F83830 		strb	r3, [r6, #56]
 308:.\SourceFiles\rte/sc_clock.h **** 
 1726              		.loc 2 308 0
 1727 00b4 336C     		ldr	r3, [r6, #64]
 1728 00b6 93F82020 		ldrb	r2, [r3, #32]	@ zero_extendqisi2
 1729 00ba 012A     		cmp	r2, #1
 1730 00bc 02D1     		bne	.L132
 1731 00be 586A     		ldr	r0, [r3, #36]
 1732 00c0 FFF7FEFF 		bl	EE_oo_ReleaseResource
 1733              	.LVL151:
 1734              	.L132:
 311:.\SourceFiles\rte/sc_clock.h **** 
 1735              		.loc 2 311 0
 1736 00c4 0B4B     		ldr	r3, .L138+4
 1737 00c6 1B6C     		ldr	r3, [r3, #64]
 1738 00c8 5D69     		ldr	r5, [r3, #20]
 1739              	.LVL152:
 313:.\SourceFiles\rte/sc_clock.h ****       for( taskNum=0 ; taskNum < signal->pSigCfg->onUpdateTaskCount ;taskNum++){
 1740              		.loc 2 313 0
 1741 00ca 9B68     		ldr	r3, [r3, #8]
 1742 00cc 73B1     		cbz	r3, .L129
 1743 00ce 3DB9     		cbnz	r5, .L136
 1744 00d0 0CE0     		b	.L129
 1745              	.LVL153:
 1746              	.L135:
 1747              	.LBB115:
 1748              		.loc 2 317 0
 1749 00d2 9968     		ldr	r1, [r3, #8]
 1750 00d4 55F82400 		ldr	r0, [r5, r4, lsl #2]
 1751 00d8 FFF7FEFF 		bl	EE_oo_SetEvent
 1752              	.LVL154:
 1753              	.LBE115:
 314:.\SourceFiles\rte/sc_clock.h **** 		  
 1754              		.loc 2 314 0
 1755 00dc 0134     		adds	r4, r4, #1
 1756              	.LVL155:
 1757 00de 00E0     		b	.L134
 1758              	.LVL156:
 1759              	.L136:
 313:.\SourceFiles\rte/sc_clock.h ****       for( taskNum=0 ; taskNum < signal->pSigCfg->onUpdateTaskCount ;taskNum++){
 1760              		.loc 2 313 0
ARM GAS  C:\Users\JASON\AppData\Local\Temp\cct5bgFA.s 			page 57


 1761 00e0 0024     		movs	r4, #0
 1762              	.LVL157:
 1763              	.L134:
 314:.\SourceFiles\rte/sc_clock.h **** 		  
 1764              		.loc 2 314 0
 1765 00e2 044B     		ldr	r3, .L138+4
 1766 00e4 1B6C     		ldr	r3, [r3, #64]
 1767 00e6 1A69     		ldr	r2, [r3, #16]
 1768 00e8 9442     		cmp	r4, r2
 1769 00ea F2D3     		bcc	.L135
 1770              	.LVL158:
 1771              	.L129:
 1772              	.LBE114:
 1773              	.LBE113:
 505:SourceFiles\asw/swc_clock_control.c **** /**
 1774              		.loc 1 505 0
 1775 00ec 1CB0     		add	sp, sp, #112
 1776              		.cfi_def_cfa_offset 16
 1777              		@ sp needed
 1778 00ee 70BD     		pop	{r4, r5, r6, pc}
 1779              	.LVL159:
 1780              	.L139:
 1781              		.align	2
 1782              	.L138:
 1783 00f0 64010000 		.word	.LC13
 1784 00f4 00000000 		.word	SO_CLOCK_signal
 1785 00f8 89888888 		.word	-2004318071
 1786 00fc ABAAAA2A 		.word	715827883
 1787              		.cfi_endproc
 1788              	.LFE143:
 1789              		.size	CLOCK__increment1Minute, .-CLOCK__increment1Minute
 1790              		.section	.text.CLOCK__errorHandlerRoutine,"ax",%progbits
 1791              		.align	2
 1792              		.thumb
 1793              		.thumb_func
 1794              		.type	CLOCK__errorHandlerRoutine, %function
 1795              	CLOCK__errorHandlerRoutine:
 1796              	.LFB152:
 627:SourceFiles\asw/swc_clock_control.c ****     
 628:SourceFiles\asw/swc_clock_control.c ****     // Set an error event.
 629:SourceFiles\asw/swc_clock_control.c ****     SC_EVENT_data_t ev = {EV_ERROR};
 630:SourceFiles\asw/swc_clock_control.c ****     RTE_SC_EVENT_set(&SO_EVENT_signal, ev);
 631:SourceFiles\asw/swc_clock_control.c **** }
 632:SourceFiles\asw/swc_clock_control.c **** /**
 633:SourceFiles\asw/swc_clock_control.c ****  * @brief Error handler routine : handling of error is done here.
 634:SourceFiles\asw/swc_clock_control.c ****  */
 635:SourceFiles\asw/swc_clock_control.c **** static void CLOCK__errorHandlerRoutine()
 636:SourceFiles\asw/swc_clock_control.c **** {
 1797              		.loc 1 636 0
 1798              		.cfi_startproc
 1799              		@ args = 0, pretend = 0, frame = 136
 1800              		@ frame_needed = 0, uses_anonymous_args = 0
 1801 0000 70B5     		push	{r4, r5, r6, lr}
 1802              		.cfi_def_cfa_offset 16
 1803              		.cfi_offset 4, -16
 1804              		.cfi_offset 5, -12
 1805              		.cfi_offset 6, -8
ARM GAS  C:\Users\JASON\AppData\Local\Temp\cct5bgFA.s 			page 58


 1806              		.cfi_offset 14, -4
 1807 0002 A2B0     		sub	sp, sp, #136
 1808              		.cfi_def_cfa_offset 152
 637:SourceFiles\asw/swc_clock_control.c ****     UART_LOG_PutString("CLOCK__errorHandlerRoutine\n");
 1809              		.loc 1 637 0
 1810 0004 3C48     		ldr	r0, .L148
 1811 0006 FFF7FEFF 		bl	UART_LOG_PutString
 1812              	.LVL160:
 1813              	.LBB116:
 1814              	.LBB117:
 265:.\SourceFiles\rte/sc_clock.h **** }                                                                                                  
 1815              		.loc 2 265 0
 1816 000a 3C4E     		ldr	r6, .L148+4
 1817 000c 14AC     		add	r4, sp, #80
 1818 000e 3546     		mov	r5, r6
 1819 0010 0FCD     		ldmia	r5!, {r0, r1, r2, r3}
 1820 0012 0FC4     		stmia	r4!, {r0, r1, r2, r3}
 1821 0014 0FCD     		ldmia	r5!, {r0, r1, r2, r3}
 1822 0016 0FC4     		stmia	r4!, {r0, r1, r2, r3}
 1823 0018 0FCD     		ldmia	r5!, {r0, r1, r2, r3}
 1824 001a 0FC4     		stmia	r4!, {r0, r1, r2, r3}
 1825 001c 95E80300 		ldmia	r5, {r0, r1}
 1826 0020 84E80300 		stmia	r4, {r0, r1}
 1827              	.LVL161:
 1828              	.LBE117:
 1829              	.LBE116:
 638:SourceFiles\asw/swc_clock_control.c ****     
 639:SourceFiles\asw/swc_clock_control.c ****     // Read the clock object
 640:SourceFiles\asw/swc_clock_control.c ****     SC_CLOCK_data_t clock   =   RTE_SC_CLOCK_get(&SO_CLOCK_signal);
 641:SourceFiles\asw/swc_clock_control.c ****     
 642:SourceFiles\asw/swc_clock_control.c ****     clock.m_containerState  =   STATE_CLOCK_C_ISDISPLAYING; // Set container state to ISDISPLAY.
 1830              		.loc 1 642 0
 1831 0024 0023     		movs	r3, #0
 1832 0026 8DF85030 		strb	r3, [sp, #80]
 643:SourceFiles\asw/swc_clock_control.c ****     clock.m_activeWidget    =   CLOCK_NONE; // No active widget.
 1833              		.loc 1 643 0
 1834 002a 8DF85C30 		strb	r3, [sp, #92]
 644:SourceFiles\asw/swc_clock_control.c ****     
 645:SourceFiles\asw/swc_clock_control.c ****     CLOCK_widget_t widget;
 646:SourceFiles\asw/swc_clock_control.c ****     widget.m_state          =   STATE_CLOCK_W_ISDISPLAYING; //Set widget state to ISDISPLAY.
 1835              		.loc 1 646 0
 1836 002e 0322     		movs	r2, #3
 1837 0030 8DF83C20 		strb	r2, [sp, #60]
 647:SourceFiles\asw/swc_clock_control.c ****     
 648:SourceFiles\asw/swc_clock_control.c ****     CLOCK_font_t font;
 649:SourceFiles\asw/swc_clock_control.c ****     font.foreground         =   WHITE;
 1838              		.loc 1 649 0
 1839 0034 4FF6FF72 		movw	r2, #65535
 1840 0038 ADF83820 		strh	r2, [sp, #56]	@ movhi
 650:SourceFiles\asw/swc_clock_control.c ****     font.background         =   BLACK;
 1841              		.loc 1 650 0
 1842 003c ADF83A30 		strh	r3, [sp, #58]	@ movhi
 651:SourceFiles\asw/swc_clock_control.c ****     widget.m_font           =   font;
 1843              		.loc 1 651 0
 1844 0040 0E98     		ldr	r0, [sp, #56]	@ unaligned
 1845 0042 CDF84A00 		str	r0, [sp, #74]	@ unaligned
 652:SourceFiles\asw/swc_clock_control.c ****     
ARM GAS  C:\Users\JASON\AppData\Local\Temp\cct5bgFA.s 			page 59


 653:SourceFiles\asw/swc_clock_control.c ****     // retain the hours and minutes values before the error occured.
 654:SourceFiles\asw/swc_clock_control.c ****     widget.m_value          =   clock.m_hours.m_value;
 1846              		.loc 1 654 0
 1847 0046 BDF86C30 		ldrh	r3, [sp, #108]
 1848 004a ADF84830 		strh	r3, [sp, #72]	@ movhi
 655:SourceFiles\asw/swc_clock_control.c ****     clock.m_hours           =   widget;
 1849              		.loc 1 655 0
 1850 004e 18AC     		add	r4, sp, #96
 1851 0050 0FAD     		add	r5, sp, #60
 1852 0052 0FCD     		ldmia	r5!, {r0, r1, r2, r3}
 1853 0054 0FC4     		stmia	r4!, {r0, r1, r2, r3}
 1854 0056 2B68     		ldr	r3, [r5]
 1855 0058 2360     		str	r3, [r4]
 656:SourceFiles\asw/swc_clock_control.c ****     widget.m_value          =   clock.m_minutes.m_value;
 1856              		.loc 1 656 0
 1857 005a BDF88030 		ldrh	r3, [sp, #128]
 1858 005e ADF84830 		strh	r3, [sp, #72]	@ movhi
 657:SourceFiles\asw/swc_clock_control.c ****     clock.m_minutes         =   widget;
 1859              		.loc 1 657 0
 1860 0062 1DAC     		add	r4, sp, #116
 1861 0064 0FAD     		add	r5, sp, #60
 1862 0066 0FCD     		ldmia	r5!, {r0, r1, r2, r3}
 1863 0068 0FC4     		stmia	r4!, {r0, r1, r2, r3}
 1864 006a 2B68     		ldr	r3, [r5]
 1865 006c 2360     		str	r3, [r4]
 1866              	.LVL162:
 1867 006e 6C46     		mov	r4, sp
 1868 0070 14AD     		add	r5, sp, #80
 1869 0072 0FCD     		ldmia	r5!, {r0, r1, r2, r3}
 1870 0074 0FC4     		stmia	r4!, {r0, r1, r2, r3}
 1871 0076 0FCD     		ldmia	r5!, {r0, r1, r2, r3}
 1872 0078 0FC4     		stmia	r4!, {r0, r1, r2, r3}
 1873 007a 0FCD     		ldmia	r5!, {r0, r1, r2, r3}
 1874 007c 0FC4     		stmia	r4!, {r0, r1, r2, r3}
 1875 007e 95E80300 		ldmia	r5, {r0, r1}
 1876 0082 84E80300 		stmia	r4, {r0, r1}
 1877              	.LVL163:
 1878              	.LBB118:
 1879              	.LBB119:
 304:.\SourceFiles\rte/sc_clock.h ****    signal->value  = value;
 1880              		.loc 2 304 0
 1881 0086 336C     		ldr	r3, [r6, #64]
 1882 0088 93F82020 		ldrb	r2, [r3, #32]	@ zero_extendqisi2
 1883 008c 012A     		cmp	r2, #1
 1884 008e 02D1     		bne	.L141
 1885 0090 586A     		ldr	r0, [r3, #36]
 1886 0092 FFF7FEFF 		bl	EE_oo_GetResource
 1887              	.LVL164:
 1888              	.L141:
 305:.\SourceFiles\rte/sc_clock.h ****    signal->age    = 0;
 1889              		.loc 2 305 0
 1890 0096 194E     		ldr	r6, .L148+4
 1891 0098 3446     		mov	r4, r6
 1892 009a 6D46     		mov	r5, sp
 1893 009c 0FCD     		ldmia	r5!, {r0, r1, r2, r3}
 1894 009e 0FC4     		stmia	r4!, {r0, r1, r2, r3}
 1895 00a0 0FCD     		ldmia	r5!, {r0, r1, r2, r3}
ARM GAS  C:\Users\JASON\AppData\Local\Temp\cct5bgFA.s 			page 60


 1896 00a2 0FC4     		stmia	r4!, {r0, r1, r2, r3}
 1897 00a4 0FCD     		ldmia	r5!, {r0, r1, r2, r3}
 1898 00a6 0FC4     		stmia	r4!, {r0, r1, r2, r3}
 1899 00a8 95E80300 		ldmia	r5, {r0, r1}
 1900 00ac 84E80300 		stmia	r4, {r0, r1}
 306:.\SourceFiles\rte/sc_clock.h ****    signal->status = RTE_SIGNALSTATUS_VALID;
 1901              		.loc 2 306 0
 1902 00b0 0023     		movs	r3, #0
 1903 00b2 F363     		str	r3, [r6, #60]
 307:.\SourceFiles\rte/sc_clock.h ****    if (TRUE == signal->pSigCfg->resourceActive) ReleaseResource(signal->pSigCfg->resource);
 1904              		.loc 2 307 0
 1905 00b4 0223     		movs	r3, #2
 1906 00b6 86F83830 		strb	r3, [r6, #56]
 308:.\SourceFiles\rte/sc_clock.h **** 
 1907              		.loc 2 308 0
 1908 00ba 336C     		ldr	r3, [r6, #64]
 1909 00bc 93F82020 		ldrb	r2, [r3, #32]	@ zero_extendqisi2
 1910 00c0 012A     		cmp	r2, #1
 1911 00c2 02D1     		bne	.L142
 1912 00c4 586A     		ldr	r0, [r3, #36]
 1913 00c6 FFF7FEFF 		bl	EE_oo_ReleaseResource
 1914              	.LVL165:
 1915              	.L142:
 311:.\SourceFiles\rte/sc_clock.h **** 
 1916              		.loc 2 311 0
 1917 00ca 0C4B     		ldr	r3, .L148+4
 1918 00cc 1B6C     		ldr	r3, [r3, #64]
 1919 00ce 5D69     		ldr	r5, [r3, #20]
 1920              	.LVL166:
 313:.\SourceFiles\rte/sc_clock.h ****       for( taskNum=0 ; taskNum < signal->pSigCfg->onUpdateTaskCount ;taskNum++){
 1921              		.loc 2 313 0
 1922 00d0 9B68     		ldr	r3, [r3, #8]
 1923 00d2 73B1     		cbz	r3, .L140
 1924 00d4 3DB9     		cbnz	r5, .L146
 1925 00d6 0CE0     		b	.L140
 1926              	.LVL167:
 1927              	.L145:
 1928              	.LBB120:
 1929              		.loc 2 317 0
 1930 00d8 9968     		ldr	r1, [r3, #8]
 1931 00da 55F82400 		ldr	r0, [r5, r4, lsl #2]
 1932 00de FFF7FEFF 		bl	EE_oo_SetEvent
 1933              	.LVL168:
 1934              	.LBE120:
 314:.\SourceFiles\rte/sc_clock.h **** 		  
 1935              		.loc 2 314 0
 1936 00e2 0134     		adds	r4, r4, #1
 1937              	.LVL169:
 1938 00e4 00E0     		b	.L144
 1939              	.LVL170:
 1940              	.L146:
 313:.\SourceFiles\rte/sc_clock.h ****       for( taskNum=0 ; taskNum < signal->pSigCfg->onUpdateTaskCount ;taskNum++){
 1941              		.loc 2 313 0
 1942 00e6 0024     		movs	r4, #0
 1943              	.LVL171:
 1944              	.L144:
 314:.\SourceFiles\rte/sc_clock.h **** 		  
ARM GAS  C:\Users\JASON\AppData\Local\Temp\cct5bgFA.s 			page 61


 1945              		.loc 2 314 0
 1946 00e8 044B     		ldr	r3, .L148+4
 1947 00ea 1B6C     		ldr	r3, [r3, #64]
 1948 00ec 1A69     		ldr	r2, [r3, #16]
 1949 00ee 9442     		cmp	r4, r2
 1950 00f0 F2D3     		bcc	.L145
 1951              	.LVL172:
 1952              	.L140:
 1953              	.LBE119:
 1954              	.LBE118:
 658:SourceFiles\asw/swc_clock_control.c ****     
 659:SourceFiles\asw/swc_clock_control.c ****     // Set the clock object after re-initatilzation when error occured.
 660:SourceFiles\asw/swc_clock_control.c ****     RTE_SC_CLOCK_set(&SO_CLOCK_signal, clock);
 661:SourceFiles\asw/swc_clock_control.c **** }
 1955              		.loc 1 661 0
 1956 00f2 22B0     		add	sp, sp, #136
 1957              		.cfi_def_cfa_offset 16
 1958              		@ sp needed
 1959 00f4 70BD     		pop	{r4, r5, r6, pc}
 1960              	.LVL173:
 1961              	.L149:
 1962 00f6 00BF     		.align	2
 1963              	.L148:
 1964 00f8 80010000 		.word	.LC14
 1965 00fc 00000000 		.word	SO_CLOCK_signal
 1966              		.cfi_endproc
 1967              	.LFE152:
 1968              		.size	CLOCK__errorHandlerRoutine, .-CLOCK__errorHandlerRoutine
 1969              		.section	.text.CLOCK_CONTROL__run,"ax",%progbits
 1970              		.align	2
 1971              		.global	CLOCK_CONTROL__run
 1972              		.thumb
 1973              		.thumb_func
 1974              		.type	CLOCK_CONTROL__run, %function
 1975              	CLOCK_CONTROL__run:
 1976              	.LFB131:
 237:SourceFiles\asw/swc_clock_control.c **** 	
 1977              		.loc 1 237 0
 1978              		.cfi_startproc
 1979              		@ args = 0, pretend = 0, frame = 176
 1980              		@ frame_needed = 0, uses_anonymous_args = 0
 1981              	.LVL174:
 1982 0000 70B5     		push	{r4, r5, r6, lr}
 1983              		.cfi_def_cfa_offset 16
 1984              		.cfi_offset 4, -16
 1985              		.cfi_offset 5, -12
 1986              		.cfi_offset 6, -8
 1987              		.cfi_offset 14, -4
 1988 0002 AEB0     		sub	sp, sp, #184
 1989              		.cfi_def_cfa_offset 200
 1990              	.LVL175:
 1991              	.LBB121:
 1992              	.LBB122:
 265:.\SourceFiles\rte/sc_clock.h **** }                                                                                                  
 1993              		.loc 2 265 0
 1994 0004 20AC     		add	r4, sp, #128
 1995 0006 4E4D     		ldr	r5, .L160
ARM GAS  C:\Users\JASON\AppData\Local\Temp\cct5bgFA.s 			page 62


 1996 0008 0FCD     		ldmia	r5!, {r0, r1, r2, r3}
 1997              	.LVL176:
 1998 000a 0FC4     		stmia	r4!, {r0, r1, r2, r3}
 1999 000c 0FCD     		ldmia	r5!, {r0, r1, r2, r3}
 2000 000e 0FC4     		stmia	r4!, {r0, r1, r2, r3}
 2001 0010 0FCD     		ldmia	r5!, {r0, r1, r2, r3}
 2002 0012 0FC4     		stmia	r4!, {r0, r1, r2, r3}
 2003 0014 95E80300 		ldmia	r5, {r0, r1}
 2004 0018 84E80300 		stmia	r4, {r0, r1}
 2005              	.LVL177:
 2006              	.LBE122:
 2007              	.LBE121:
 245:SourceFiles\asw/swc_clock_control.c ****     {
 2008              		.loc 1 245 0
 2009 001c 494B     		ldr	r3, .L160+4
 2010 001e 1A78     		ldrb	r2, [r3]	@ zero_extendqisi2
 2011 0020 062A     		cmp	r2, #6
 2012 0022 02D1     		bne	.L151
 248:SourceFiles\asw/swc_clock_control.c ****     }
 2013              		.loc 1 248 0
 2014 0024 FFF7FEFF 		bl	CLOCK__errorHandlerRoutine
 2015              	.LVL178:
 2016 0028 6CE0     		b	.L152
 2017              	.L151:
 2018              	.LBB123:
 253:SourceFiles\asw/swc_clock_control.c ****         //Call the state machine and process the event
 2019              		.loc 1 253 0
 2020 002a 9DF88010 		ldrb	r1, [sp, #128]	@ zero_extendqisi2
 2021 002e 2EAB     		add	r3, sp, #184
 2022 0030 03F8A91D 		strb	r1, [r3, #-169]!
 255:SourceFiles\asw/swc_clock_control.c ****                                         CLOCK_StateActions, CLOCK_StateActions_size,
 2023              		.loc 1 255 0
 2024 0034 4448     		ldr	r0, .L160+8
 2025 0036 0193     		str	r3, [sp, #4]
 2026 0038 0092     		str	r2, [sp]
 2027 003a 0223     		movs	r3, #2
 2028 003c 0246     		mov	r2, r0
 2029 003e 0321     		movs	r1, #3
 2030 0040 3C30     		adds	r0, r0, #60
 2031 0042 FFF7FEFF 		bl	STATE_processEvent
 2032              	.LVL179:
 2033              	.LBB124:
 2034              	.LBB125:
 265:.\SourceFiles\rte/sc_clock.h **** }                                                                                                  
 2035              		.loc 2 265 0
 2036 0046 3E4E     		ldr	r6, .L160
 2037 0048 12AC     		add	r4, sp, #72
 2038 004a 3546     		mov	r5, r6
 2039 004c 0FCD     		ldmia	r5!, {r0, r1, r2, r3}
 2040 004e 0FC4     		stmia	r4!, {r0, r1, r2, r3}
 2041 0050 0FCD     		ldmia	r5!, {r0, r1, r2, r3}
 2042 0052 0FC4     		stmia	r4!, {r0, r1, r2, r3}
 2043 0054 0FCD     		ldmia	r5!, {r0, r1, r2, r3}
 2044 0056 0FC4     		stmia	r4!, {r0, r1, r2, r3}
 2045 0058 95E80300 		ldmia	r5, {r0, r1}
 2046 005c 84E80300 		stmia	r4, {r0, r1}
 2047              	.LVL180:
ARM GAS  C:\Users\JASON\AppData\Local\Temp\cct5bgFA.s 			page 63


 2048              	.LBE125:
 2049              	.LBE124:
 259:SourceFiles\asw/swc_clock_control.c ****         clock.m_containerState = state; 
 2050              		.loc 1 259 0
 2051 0060 20AC     		add	r4, sp, #128
 2052 0062 12AD     		add	r5, sp, #72
 2053 0064 0FCD     		ldmia	r5!, {r0, r1, r2, r3}
 2054 0066 0FC4     		stmia	r4!, {r0, r1, r2, r3}
 2055 0068 0FCD     		ldmia	r5!, {r0, r1, r2, r3}
 2056 006a 0FC4     		stmia	r4!, {r0, r1, r2, r3}
 2057 006c 0FCD     		ldmia	r5!, {r0, r1, r2, r3}
 2058 006e 0FC4     		stmia	r4!, {r0, r1, r2, r3}
 2059 0070 95E80300 		ldmia	r5, {r0, r1}
 2060 0074 84E80300 		stmia	r4, {r0, r1}
 260:SourceFiles\asw/swc_clock_control.c ****         RTE_SC_CLOCK_set(&SO_CLOCK_signal, clock);
 2061              		.loc 1 260 0
 2062 0078 9DF80F30 		ldrb	r3, [sp, #15]	@ zero_extendqisi2
 2063 007c 8DF88030 		strb	r3, [sp, #128]
 2064              	.LVL181:
 2065 0080 04AC     		add	r4, sp, #16
 2066 0082 20AD     		add	r5, sp, #128
 2067 0084 0FCD     		ldmia	r5!, {r0, r1, r2, r3}
 2068 0086 0FC4     		stmia	r4!, {r0, r1, r2, r3}
 2069 0088 0FCD     		ldmia	r5!, {r0, r1, r2, r3}
 2070 008a 0FC4     		stmia	r4!, {r0, r1, r2, r3}
 2071 008c 0FCD     		ldmia	r5!, {r0, r1, r2, r3}
 2072 008e 0FC4     		stmia	r4!, {r0, r1, r2, r3}
 2073 0090 95E80300 		ldmia	r5, {r0, r1}
 2074 0094 84E80300 		stmia	r4, {r0, r1}
 2075              	.LVL182:
 2076              	.LBB126:
 2077              	.LBB127:
 304:.\SourceFiles\rte/sc_clock.h ****    signal->value  = value;
 2078              		.loc 2 304 0
 2079 0098 336C     		ldr	r3, [r6, #64]
 2080 009a 93F82020 		ldrb	r2, [r3, #32]	@ zero_extendqisi2
 2081 009e 012A     		cmp	r2, #1
 2082 00a0 02D1     		bne	.L153
 2083 00a2 586A     		ldr	r0, [r3, #36]
 2084 00a4 FFF7FEFF 		bl	EE_oo_GetResource
 2085              	.LVL183:
 2086              	.L153:
 305:.\SourceFiles\rte/sc_clock.h ****    signal->age    = 0;
 2087              		.loc 2 305 0
 2088 00a8 254E     		ldr	r6, .L160
 2089 00aa 3446     		mov	r4, r6
 2090 00ac 04AD     		add	r5, sp, #16
 2091 00ae 0FCD     		ldmia	r5!, {r0, r1, r2, r3}
 2092 00b0 0FC4     		stmia	r4!, {r0, r1, r2, r3}
 2093 00b2 0FCD     		ldmia	r5!, {r0, r1, r2, r3}
 2094 00b4 0FC4     		stmia	r4!, {r0, r1, r2, r3}
 2095 00b6 0FCD     		ldmia	r5!, {r0, r1, r2, r3}
 2096 00b8 0FC4     		stmia	r4!, {r0, r1, r2, r3}
 2097 00ba 95E80300 		ldmia	r5, {r0, r1}
 2098 00be 84E80300 		stmia	r4, {r0, r1}
 306:.\SourceFiles\rte/sc_clock.h ****    signal->status = RTE_SIGNALSTATUS_VALID;
 2099              		.loc 2 306 0
ARM GAS  C:\Users\JASON\AppData\Local\Temp\cct5bgFA.s 			page 64


 2100 00c2 0023     		movs	r3, #0
 2101 00c4 F363     		str	r3, [r6, #60]
 307:.\SourceFiles\rte/sc_clock.h ****    if (TRUE == signal->pSigCfg->resourceActive) ReleaseResource(signal->pSigCfg->resource);
 2102              		.loc 2 307 0
 2103 00c6 0223     		movs	r3, #2
 2104 00c8 86F83830 		strb	r3, [r6, #56]
 308:.\SourceFiles\rte/sc_clock.h **** 
 2105              		.loc 2 308 0
 2106 00cc 336C     		ldr	r3, [r6, #64]
 2107 00ce 93F82020 		ldrb	r2, [r3, #32]	@ zero_extendqisi2
 2108 00d2 012A     		cmp	r2, #1
 2109 00d4 02D1     		bne	.L154
 2110 00d6 586A     		ldr	r0, [r3, #36]
 2111 00d8 FFF7FEFF 		bl	EE_oo_ReleaseResource
 2112              	.LVL184:
 2113              	.L154:
 311:.\SourceFiles\rte/sc_clock.h **** 
 2114              		.loc 2 311 0
 2115 00dc 184B     		ldr	r3, .L160
 2116 00de 1B6C     		ldr	r3, [r3, #64]
 2117 00e0 5D69     		ldr	r5, [r3, #20]
 2118              	.LVL185:
 313:.\SourceFiles\rte/sc_clock.h ****       for( taskNum=0 ; taskNum < signal->pSigCfg->onUpdateTaskCount ;taskNum++){
 2119              		.loc 2 313 0
 2120 00e2 9B68     		ldr	r3, [r3, #8]
 2121 00e4 73B1     		cbz	r3, .L152
 2122 00e6 3DB9     		cbnz	r5, .L158
 2123 00e8 0CE0     		b	.L152
 2124              	.LVL186:
 2125              	.L157:
 2126              	.LBB128:
 2127              		.loc 2 317 0
 2128 00ea 9968     		ldr	r1, [r3, #8]
 2129 00ec 55F82400 		ldr	r0, [r5, r4, lsl #2]
 2130 00f0 FFF7FEFF 		bl	EE_oo_SetEvent
 2131              	.LVL187:
 2132              	.LBE128:
 314:.\SourceFiles\rte/sc_clock.h **** 		  
 2133              		.loc 2 314 0
 2134 00f4 0134     		adds	r4, r4, #1
 2135              	.LVL188:
 2136 00f6 00E0     		b	.L156
 2137              	.LVL189:
 2138              	.L158:
 313:.\SourceFiles\rte/sc_clock.h ****       for( taskNum=0 ; taskNum < signal->pSigCfg->onUpdateTaskCount ;taskNum++){
 2139              		.loc 2 313 0
 2140 00f8 0024     		movs	r4, #0
 2141              	.LVL190:
 2142              	.L156:
 314:.\SourceFiles\rte/sc_clock.h **** 		  
 2143              		.loc 2 314 0
 2144 00fa 114B     		ldr	r3, .L160
 2145 00fc 1B6C     		ldr	r3, [r3, #64]
 2146 00fe 1A69     		ldr	r2, [r3, #16]
 2147 0100 9442     		cmp	r4, r2
 2148 0102 F2D3     		bcc	.L157
 2149              	.LVL191:
ARM GAS  C:\Users\JASON\AppData\Local\Temp\cct5bgFA.s 			page 65


 2150              	.L152:
 2151              	.LBE127:
 2152              	.LBE126:
 2153              	.LBE123:
 268:SourceFiles\asw/swc_clock_control.c ****     intToASCII((uint32_t)clock.m_hours.m_value, (uint8_t*)&asciiConvert, 2);
 2154              		.loc 1 268 0
 2155 0104 1148     		ldr	r0, .L160+12
 2156 0106 FFF7FEFF 		bl	UART_LOG_PutString
 2157              	.LVL192:
 269:SourceFiles\asw/swc_clock_control.c ****     UART_LOG_PutString(asciiConvert);
 2158              		.loc 1 269 0
 2159 010a 114C     		ldr	r4, .L160+16
 2160 010c 0222     		movs	r2, #2
 2161 010e 2146     		mov	r1, r4
 2162 0110 BDF89C00 		ldrh	r0, [sp, #156]
 2163 0114 FFF7FEFF 		bl	intToASCII
 2164              	.LVL193:
 270:SourceFiles\asw/swc_clock_control.c ****     UART_LOG_PutChar(':');
 2165              		.loc 1 270 0
 2166 0118 2046     		mov	r0, r4
 2167 011a FFF7FEFF 		bl	UART_LOG_PutString
 2168              	.LVL194:
 271:SourceFiles\asw/swc_clock_control.c ****     intToASCII((uint32_t)clock.m_minutes.m_value, (uint8_t*)&asciiConvert, 2);
 2169              		.loc 1 271 0
 2170 011e 3A20     		movs	r0, #58
 2171 0120 FFF7FEFF 		bl	UART_LOG_PutChar
 2172              	.LVL195:
 272:SourceFiles\asw/swc_clock_control.c ****     UART_LOG_PutString(asciiConvert);
 2173              		.loc 1 272 0
 2174 0124 0222     		movs	r2, #2
 2175 0126 2146     		mov	r1, r4
 2176 0128 BDF8B000 		ldrh	r0, [sp, #176]
 2177 012c FFF7FEFF 		bl	intToASCII
 2178              	.LVL196:
 273:SourceFiles\asw/swc_clock_control.c ****     UART_LOG_PutString("\n\n\n");
 2179              		.loc 1 273 0
 2180 0130 2046     		mov	r0, r4
 2181 0132 FFF7FEFF 		bl	UART_LOG_PutString
 2182              	.LVL197:
 274:SourceFiles\asw/swc_clock_control.c ****     
 2183              		.loc 1 274 0
 2184 0136 0748     		ldr	r0, .L160+20
 2185 0138 FFF7FEFF 		bl	UART_LOG_PutString
 2186              	.LVL198:
 277:SourceFiles\asw/swc_clock_control.c **** 
 2187              		.loc 1 277 0
 2188 013c 2EB0     		add	sp, sp, #184
 2189              		.cfi_def_cfa_offset 16
 2190              		@ sp needed
 2191 013e 70BD     		pop	{r4, r5, r6, pc}
 2192              	.L161:
 2193              		.align	2
 2194              	.L160:
 2195 0140 00000000 		.word	SO_CLOCK_signal
 2196 0144 00000000 		.word	SO_EVENT_signal
 2197 0148 00000000 		.word	.LANCHOR1
 2198 014c 9C010000 		.word	.LC15
ARM GAS  C:\Users\JASON\AppData\Local\Temp\cct5bgFA.s 			page 66


 2199 0150 04000000 		.word	.LANCHOR0+4
 2200 0154 A0010000 		.word	.LC16
 2201              		.cfi_endproc
 2202              	.LFE131:
 2203              		.size	CLOCK_CONTROL__run, .-CLOCK_CONTROL__run
 2204              		.section	.text.CLOCK_CONTROL_init_run,"ax",%progbits
 2205              		.align	2
 2206              		.global	CLOCK_CONTROL_init_run
 2207              		.thumb
 2208              		.thumb_func
 2209              		.type	CLOCK_CONTROL_init_run, %function
 2210              	CLOCK_CONTROL_init_run:
 2211              	.LFB132:
 290:SourceFiles\asw/swc_clock_control.c **** 	
 2212              		.loc 1 290 0
 2213              		.cfi_startproc
 2214              		@ args = 0, pretend = 0, frame = 144
 2215              		@ frame_needed = 0, uses_anonymous_args = 0
 2216              	.LVL199:
 2217 0000 F0B5     		push	{r4, r5, r6, r7, lr}
 2218              		.cfi_def_cfa_offset 20
 2219              		.cfi_offset 4, -20
 2220              		.cfi_offset 5, -16
 2221              		.cfi_offset 6, -12
 2222              		.cfi_offset 7, -8
 2223              		.cfi_offset 14, -4
 2224 0002 A5B0     		sub	sp, sp, #148
 2225              		.cfi_def_cfa_offset 168
 295:SourceFiles\asw/swc_clock_control.c ****     clock.m_stateActions    =   (STATE_ActionPtr_t*)                    0;
 2226              		.loc 1 295 0
 2227 0004 424E     		ldr	r6, .L170
 2228 0006 06F13C03 		add	r3, r6, #60
 2229 000a 1793     		str	r3, [sp, #92]
 296:SourceFiles\asw/swc_clock_control.c ****     clock.m_activeWidget    =                                           CLOCK_NONE;
 2230              		.loc 1 296 0
 2231 000c 0023     		movs	r3, #0
 2232 000e 1893     		str	r3, [sp, #96]
 297:SourceFiles\asw/swc_clock_control.c ****     
 2233              		.loc 1 297 0
 2234 0010 8DF86430 		strb	r3, [sp, #100]
 301:SourceFiles\asw/swc_clock_control.c ****     widget.m_transitions    =   (STATE_stateInnerTransitionTable_t*)    CLOCK_Widget_Transitions;
 2235              		.loc 1 301 0
 2236 0014 0322     		movs	r2, #3
 2237 0016 8DF84420 		strb	r2, [sp, #68]
 302:SourceFiles\asw/swc_clock_control.c ****     widget.m_stateActions   =   (STATE_stateAction_t*)                  CLOCK_StateActions;
 2238              		.loc 1 302 0
 2239 001a 06F11802 		add	r2, r6, #24
 2240 001e 1292     		str	r2, [sp, #72]
 303:SourceFiles\asw/swc_clock_control.c ****     widget.m_value          =                                           0;
 2241              		.loc 1 303 0
 2242 0020 1396     		str	r6, [sp, #76]
 304:SourceFiles\asw/swc_clock_control.c ****     
 2243              		.loc 1 304 0
 2244 0022 ADF85030 		strh	r3, [sp, #80]	@ movhi
 308:SourceFiles\asw/swc_clock_control.c ****     font.background         =   BLACK;
 2245              		.loc 1 308 0
 2246 0026 4FF6FF72 		movw	r2, #65535
ARM GAS  C:\Users\JASON\AppData\Local\Temp\cct5bgFA.s 			page 67


 2247 002a ADF84020 		strh	r2, [sp, #64]	@ movhi
 309:SourceFiles\asw/swc_clock_control.c ****     
 2248              		.loc 1 309 0
 2249 002e ADF84230 		strh	r3, [sp, #66]	@ movhi
 311:SourceFiles\asw/swc_clock_control.c ****     
 2250              		.loc 1 311 0
 2251 0032 24AF     		add	r7, sp, #144
 2252 0034 57F8500D 		ldr	r0, [r7, #-80]!	@ unaligned
 2253              	.LVL200:
 2254 0038 CDF85200 		str	r0, [sp, #82]	@ unaligned
 313:SourceFiles\asw/swc_clock_control.c ****     
 2255              		.loc 1 313 0
 2256 003c 1AAC     		add	r4, sp, #104
 2257 003e 11AD     		add	r5, sp, #68
 2258 0040 0FCD     		ldmia	r5!, {r0, r1, r2, r3}
 2259 0042 0FC4     		stmia	r4!, {r0, r1, r2, r3}
 2260 0044 2B68     		ldr	r3, [r5]
 2261 0046 2360     		str	r3, [r4]
 323:SourceFiles\asw/swc_clock_control.c ****     
 2262              		.loc 1 323 0
 2263 0048 3868     		ldr	r0, [r7]	@ unaligned
 2264 004a CDF85200 		str	r0, [sp, #82]	@ unaligned
 325:SourceFiles\asw/swc_clock_control.c ****     
 2265              		.loc 1 325 0
 2266 004e 1FAC     		add	r4, sp, #124
 2267 0050 11AD     		add	r5, sp, #68
 2268 0052 0FCD     		ldmia	r5!, {r0, r1, r2, r3}
 2269 0054 0FC4     		stmia	r4!, {r0, r1, r2, r3}
 2270 0056 2B68     		ldr	r3, [r5]
 2271 0058 2360     		str	r3, [r4]
 329:SourceFiles\asw/swc_clock_control.c ****     
 2272              		.loc 1 329 0
 2273 005a 0DF13F02 		add	r2, sp, #63
 2274 005e 0221     		movs	r1, #2
 2275 0060 3046     		mov	r0, r6
 2276 0062 FFF7FEFF 		bl	STATE_initState
 2277              	.LVL201:
 331:SourceFiles\asw/swc_clock_control.c ****     
 2278              		.loc 1 331 0
 2279 0066 9DF83F30 		ldrb	r3, [sp, #63]	@ zero_extendqisi2
 2280 006a 8DF85830 		strb	r3, [sp, #88]
 2281              	.LVL202:
 2282 006e 01AC     		add	r4, sp, #4
 2283 0070 16AD     		add	r5, sp, #88
 2284 0072 0FCD     		ldmia	r5!, {r0, r1, r2, r3}
 2285 0074 0FC4     		stmia	r4!, {r0, r1, r2, r3}
 2286 0076 0FCD     		ldmia	r5!, {r0, r1, r2, r3}
 2287 0078 0FC4     		stmia	r4!, {r0, r1, r2, r3}
 2288 007a 0FCD     		ldmia	r5!, {r0, r1, r2, r3}
 2289 007c 0FC4     		stmia	r4!, {r0, r1, r2, r3}
 2290 007e 95E80300 		ldmia	r5, {r0, r1}
 2291 0082 84E80300 		stmia	r4, {r0, r1}
 2292              	.LVL203:
 2293              	.LBB129:
 2294              	.LBB130:
 304:.\SourceFiles\rte/sc_clock.h ****    signal->value  = value;
 2295              		.loc 2 304 0
ARM GAS  C:\Users\JASON\AppData\Local\Temp\cct5bgFA.s 			page 68


 2296 0086 234B     		ldr	r3, .L170+4
 2297 0088 1B6C     		ldr	r3, [r3, #64]
 2298 008a 93F82020 		ldrb	r2, [r3, #32]	@ zero_extendqisi2
 2299 008e 012A     		cmp	r2, #1
 2300 0090 02D1     		bne	.L163
 2301 0092 586A     		ldr	r0, [r3, #36]
 2302 0094 FFF7FEFF 		bl	EE_oo_GetResource
 2303              	.LVL204:
 2304              	.L163:
 305:.\SourceFiles\rte/sc_clock.h ****    signal->age    = 0;
 2305              		.loc 2 305 0
 2306 0098 1E4E     		ldr	r6, .L170+4
 2307 009a 3446     		mov	r4, r6
 2308 009c 01AD     		add	r5, sp, #4
 2309 009e 0FCD     		ldmia	r5!, {r0, r1, r2, r3}
 2310 00a0 0FC4     		stmia	r4!, {r0, r1, r2, r3}
 2311 00a2 0FCD     		ldmia	r5!, {r0, r1, r2, r3}
 2312 00a4 0FC4     		stmia	r4!, {r0, r1, r2, r3}
 2313 00a6 0FCD     		ldmia	r5!, {r0, r1, r2, r3}
 2314 00a8 0FC4     		stmia	r4!, {r0, r1, r2, r3}
 2315 00aa 95E80300 		ldmia	r5, {r0, r1}
 2316 00ae 84E80300 		stmia	r4, {r0, r1}
 306:.\SourceFiles\rte/sc_clock.h ****    signal->status = RTE_SIGNALSTATUS_VALID;
 2317              		.loc 2 306 0
 2318 00b2 0023     		movs	r3, #0
 2319 00b4 F363     		str	r3, [r6, #60]
 307:.\SourceFiles\rte/sc_clock.h ****    if (TRUE == signal->pSigCfg->resourceActive) ReleaseResource(signal->pSigCfg->resource);
 2320              		.loc 2 307 0
 2321 00b6 0223     		movs	r3, #2
 2322 00b8 86F83830 		strb	r3, [r6, #56]
 308:.\SourceFiles\rte/sc_clock.h **** 
 2323              		.loc 2 308 0
 2324 00bc 336C     		ldr	r3, [r6, #64]
 2325 00be 93F82020 		ldrb	r2, [r3, #32]	@ zero_extendqisi2
 2326 00c2 012A     		cmp	r2, #1
 2327 00c4 02D1     		bne	.L164
 2328 00c6 586A     		ldr	r0, [r3, #36]
 2329 00c8 FFF7FEFF 		bl	EE_oo_ReleaseResource
 2330              	.LVL205:
 2331              	.L164:
 311:.\SourceFiles\rte/sc_clock.h **** 
 2332              		.loc 2 311 0
 2333 00cc 114B     		ldr	r3, .L170+4
 2334 00ce 1B6C     		ldr	r3, [r3, #64]
 2335 00d0 5D69     		ldr	r5, [r3, #20]
 2336              	.LVL206:
 313:.\SourceFiles\rte/sc_clock.h ****       for( taskNum=0 ; taskNum < signal->pSigCfg->onUpdateTaskCount ;taskNum++){
 2337              		.loc 2 313 0
 2338 00d2 9B68     		ldr	r3, [r3, #8]
 2339 00d4 73B1     		cbz	r3, .L165
 2340 00d6 3DB9     		cbnz	r5, .L168
 2341 00d8 0CE0     		b	.L165
 2342              	.LVL207:
 2343              	.L167:
 2344              	.LBB131:
 2345              		.loc 2 317 0
 2346 00da 9968     		ldr	r1, [r3, #8]
ARM GAS  C:\Users\JASON\AppData\Local\Temp\cct5bgFA.s 			page 69


 2347 00dc 55F82400 		ldr	r0, [r5, r4, lsl #2]
 2348 00e0 FFF7FEFF 		bl	EE_oo_SetEvent
 2349              	.LVL208:
 2350              	.LBE131:
 314:.\SourceFiles\rte/sc_clock.h **** 		  
 2351              		.loc 2 314 0
 2352 00e4 0134     		adds	r4, r4, #1
 2353              	.LVL209:
 2354 00e6 00E0     		b	.L166
 2355              	.LVL210:
 2356              	.L168:
 313:.\SourceFiles\rte/sc_clock.h ****       for( taskNum=0 ; taskNum < signal->pSigCfg->onUpdateTaskCount ;taskNum++){
 2357              		.loc 2 313 0
 2358 00e8 0024     		movs	r4, #0
 2359              	.LVL211:
 2360              	.L166:
 314:.\SourceFiles\rte/sc_clock.h **** 		  
 2361              		.loc 2 314 0
 2362 00ea 0A4B     		ldr	r3, .L170+4
 2363 00ec 1B6C     		ldr	r3, [r3, #64]
 2364 00ee 1A69     		ldr	r2, [r3, #16]
 2365 00f0 9442     		cmp	r4, r2
 2366 00f2 F2D3     		bcc	.L167
 2367              	.LVL212:
 2368              	.L165:
 2369              	.LBE130:
 2370              	.LBE129:
 336:SourceFiles\asw/swc_clock_control.c ****     TFT_setColors(WHITE, BLACK);
 2371              		.loc 1 336 0
 2372 00f4 6420     		movs	r0, #100
 2373 00f6 FFF7FEFF 		bl	TFT_setBacklight
 2374              	.LVL213:
 337:SourceFiles\asw/swc_clock_control.c ****     TFT_setTextSize(3);
 2375              		.loc 1 337 0
 2376 00fa 0021     		movs	r1, #0
 2377 00fc 4FF6FF70 		movw	r0, #65535
 2378 0100 FFF7FEFF 		bl	TFT_setColors
 2379              	.LVL214:
 338:SourceFiles\asw/swc_clock_control.c ****     
 2380              		.loc 1 338 0
 2381 0104 0320     		movs	r0, #3
 2382 0106 FFF7FEFF 		bl	TFT_setTextSize
 2383              	.LVL215:
 341:SourceFiles\asw/swc_clock_control.c **** 
 2384              		.loc 1 341 0
 2385 010a 25B0     		add	sp, sp, #148
 2386              		.cfi_def_cfa_offset 20
 2387              		@ sp needed
 2388 010c F0BD     		pop	{r4, r5, r6, r7, pc}
 2389              	.L171:
 2390 010e 00BF     		.align	2
 2391              	.L170:
 2392 0110 00000000 		.word	.LANCHOR1
 2393 0114 00000000 		.word	SO_CLOCK_signal
 2394              		.cfi_endproc
 2395              	.LFE132:
 2396              		.size	CLOCK_CONTROL_init_run, .-CLOCK_CONTROL_init_run
ARM GAS  C:\Users\JASON\AppData\Local\Temp\cct5bgFA.s 			page 70


 2397              		.global	autoIncrement_st
 2398              		.global	increment1Min_st
 2399              		.section	.rodata
 2400              		.align	2
 2401              		.set	.LANCHOR1,. + 0
 2402              		.type	CLOCK_StateActions, %object
 2403              		.size	CLOCK_StateActions, 24
 2404              	CLOCK_StateActions:
 2405 0000 00       		.byte	0
 2406 0001 000000   		.space	3
 2407 0004 00000000 		.word	CLOCK_setIncrement1Min
 2408 0008 00000000 		.word	CLOCK_resetIncrement1Min
 2409 000c 05       		.byte	5
 2410 000d 000000   		.space	3
 2411 0010 00000000 		.word	CLOCK_setAutoIncrement
 2412 0014 00000000 		.word	CLOCK_resetAutoIncrement
 2413              		.type	CLOCK_Widget_Transitions, %object
 2414              		.size	CLOCK_Widget_Transitions, 36
 2415              	CLOCK_Widget_Transitions:
 2416 0018 03       		.byte	3
 2417 0019 000000   		.space	3
 2418 001c A8000000 		.word	STATE_CLOCK_W_ISDISPLAYING_Transitions
 2419 0020 0100     		.short	1
 2420 0022 0000     		.space	2
 2421 0024 04       		.byte	4
 2422 0025 000000   		.space	3
 2423 0028 84000000 		.word	STATE_CLOCK_W_ISEDITING_Transitions
 2424 002c 0300     		.short	3
 2425 002e 0000     		.space	2
 2426 0030 05       		.byte	5
 2427 0031 000000   		.space	3
 2428 0034 60000000 		.word	STATE_CLOCK_W_ISAUTOINCREMENT_Transitions
 2429 0038 0300     		.short	3
 2430 003a 0000     		.space	2
 2431              		.type	CLOCK_Container_Transitions, %object
 2432              		.size	CLOCK_Container_Transitions, 36
 2433              	CLOCK_Container_Transitions:
 2434 003c 00       		.byte	0
 2435 003d 000000   		.space	3
 2436 0040 14010000 		.word	STATE_CLOCK_C_ISDISPLAYING_Transitions
 2437 0044 0200     		.short	2
 2438 0046 0000     		.space	2
 2439 0048 01       		.byte	1
 2440 0049 000000   		.space	3
 2441 004c B4000000 		.word	STATE_CLOCK_C_ISEDITINGMINUTES_Transitions
 2442 0050 0400     		.short	4
 2443 0052 0000     		.space	2
 2444 0054 02       		.byte	2
 2445 0055 000000   		.space	3
 2446 0058 E4000000 		.word	STATE_CLOCK_C_ISEDITINGHOURS_Transitions
 2447 005c 0400     		.short	4
 2448 005e 0000     		.space	2
 2449              		.type	STATE_CLOCK_W_ISAUTOINCREMENT_Transitions, %object
 2450              		.size	STATE_CLOCK_W_ISAUTOINCREMENT_Transitions, 36
 2451              	STATE_CLOCK_W_ISAUTOINCREMENT_Transitions:
 2452 0060 02       		.byte	2
 2453 0061 04       		.byte	4
ARM GAS  C:\Users\JASON\AppData\Local\Temp\cct5bgFA.s 			page 71


 2454 0062 0000     		.space	2
 2455 0064 00000000 		.word	0
 2456 0068 00000000 		.word	0
 2457 006c 04       		.byte	4
 2458 006d 05       		.byte	5
 2459 006e 0000     		.space	2
 2460 0070 00000000 		.word	0
 2461 0074 00000000 		.word	CLOCK__incrementWidget
 2462 0078 01       		.byte	1
 2463 0079 03       		.byte	3
 2464 007a 0000     		.space	2
 2465 007c 00000000 		.word	0
 2466 0080 00000000 		.word	CLOCK__errorHandler
 2467              		.type	STATE_CLOCK_W_ISEDITING_Transitions, %object
 2468              		.size	STATE_CLOCK_W_ISEDITING_Transitions, 36
 2469              	STATE_CLOCK_W_ISEDITING_Transitions:
 2470 0084 02       		.byte	2
 2471 0085 04       		.byte	4
 2472 0086 0000     		.space	2
 2473 0088 00000000 		.word	0
 2474 008c 00000000 		.word	CLOCK__incrementWidget
 2475 0090 03       		.byte	3
 2476 0091 05       		.byte	5
 2477 0092 0000     		.space	2
 2478 0094 00000000 		.word	0
 2479 0098 00000000 		.word	0
 2480 009c 01       		.byte	1
 2481 009d 03       		.byte	3
 2482 009e 0000     		.space	2
 2483 00a0 00000000 		.word	0
 2484 00a4 00000000 		.word	CLOCK__setDisplayFonts
 2485              		.type	STATE_CLOCK_W_ISDISPLAYING_Transitions, %object
 2486              		.size	STATE_CLOCK_W_ISDISPLAYING_Transitions, 12
 2487              	STATE_CLOCK_W_ISDISPLAYING_Transitions:
 2488 00a8 01       		.byte	1
 2489 00a9 04       		.byte	4
 2490 00aa 0000     		.space	2
 2491 00ac 00000000 		.word	0
 2492 00b0 00000000 		.word	CLOCK__setEditFonts
 2493              		.type	STATE_CLOCK_C_ISEDITINGMINUTES_Transitions, %object
 2494              		.size	STATE_CLOCK_C_ISEDITINGMINUTES_Transitions, 48
 2495              	STATE_CLOCK_C_ISEDITINGMINUTES_Transitions:
 2496 00b4 01       		.byte	1
 2497 00b5 00       		.byte	0
 2498 00b6 0000     		.space	2
 2499 00b8 00000000 		.word	0
 2500 00bc 00000000 		.word	CLOCK__dispatch_KL_Min
 2501 00c0 02       		.byte	2
 2502 00c1 01       		.byte	1
 2503 00c2 0000     		.space	2
 2504 00c4 00000000 		.word	0
 2505 00c8 00000000 		.word	CLOCK__dispatch_KR_Min
 2506 00cc 03       		.byte	3
 2507 00cd 01       		.byte	1
 2508 00ce 0000     		.space	2
 2509 00d0 00000000 		.word	0
 2510 00d4 00000000 		.word	CLOCK__dispatch_KRLP_Min
ARM GAS  C:\Users\JASON\AppData\Local\Temp\cct5bgFA.s 			page 72


 2511 00d8 04       		.byte	4
 2512 00d9 01       		.byte	1
 2513 00da 0000     		.space	2
 2514 00dc 00000000 		.word	0
 2515 00e0 00000000 		.word	CLOCK__dispatch_250MS_Min
 2516              		.type	STATE_CLOCK_C_ISEDITINGHOURS_Transitions, %object
 2517              		.size	STATE_CLOCK_C_ISEDITINGHOURS_Transitions, 48
 2518              	STATE_CLOCK_C_ISEDITINGHOURS_Transitions:
 2519 00e4 01       		.byte	1
 2520 00e5 01       		.byte	1
 2521 00e6 0000     		.space	2
 2522 00e8 00000000 		.word	0
 2523 00ec 00000000 		.word	CLOCK__dispatch_KL_HoursMin
 2524 00f0 02       		.byte	2
 2525 00f1 02       		.byte	2
 2526 00f2 0000     		.space	2
 2527 00f4 00000000 		.word	0
 2528 00f8 00000000 		.word	CLOCK__dispatch_KR_Hours
 2529 00fc 03       		.byte	3
 2530 00fd 02       		.byte	2
 2531 00fe 0000     		.space	2
 2532 0100 00000000 		.word	0
 2533 0104 00000000 		.word	CLOCK__dispatch_KRLP_Hours
 2534 0108 04       		.byte	4
 2535 0109 02       		.byte	2
 2536 010a 0000     		.space	2
 2537 010c 00000000 		.word	0
 2538 0110 00000000 		.word	CLOCK__dispatch_250MS_Hours
 2539              		.type	STATE_CLOCK_C_ISDISPLAYING_Transitions, %object
 2540              		.size	STATE_CLOCK_C_ISDISPLAYING_Transitions, 24
 2541              	STATE_CLOCK_C_ISDISPLAYING_Transitions:
 2542 0114 01       		.byte	1
 2543 0115 02       		.byte	2
 2544 0116 0000     		.space	2
 2545 0118 00000000 		.word	0
 2546 011c 00000000 		.word	CLOCK__dispatch_KL_Hours
 2547 0120 05       		.byte	5
 2548 0121 00       		.byte	0
 2549 0122 0000     		.space	2
 2550 0124 00000000 		.word	0
 2551 0128 00000000 		.word	CLOCK__increment1Minute
 2552              		.section	.rodata.str1.4,"aMS",%progbits,1
 2553              		.align	2
 2554              	.LC0:
 2555 0000 434C4F43 		.ascii	"CLOCK__dispatch_250MS_Hours\012\000"
 2555      4B5F5F64 
 2555      69737061 
 2555      7463685F 
 2555      3235304D 
 2556 001d 000000   		.space	3
 2557              	.LC1:
 2558 0020 434C4F43 		.ascii	"CLOCK__dispatch_KR_Hours\012\000"
 2558      4B5F5F64 
 2558      69737061 
 2558      7463685F 
 2558      4B525F48 
 2559 003a 0000     		.space	2
ARM GAS  C:\Users\JASON\AppData\Local\Temp\cct5bgFA.s 			page 73


 2560              	.LC2:
 2561 003c 434C4F43 		.ascii	"CLOCK__dispatch_KL_HoursMin\012\000"
 2561      4B5F5F64 
 2561      69737061 
 2561      7463685F 
 2561      4B4C5F48 
 2562 0059 000000   		.space	3
 2563              	.LC3:
 2564 005c 434C4F43 		.ascii	"CLOCK__dispatch_250MS_Min\012\000"
 2564      4B5F5F64 
 2564      69737061 
 2564      7463685F 
 2564      3235304D 
 2565 0077 00       		.space	1
 2566              	.LC4:
 2567 0078 434C4F43 		.ascii	"CLOCK__dispatch_KR_Minutes\012\000"
 2567      4B5F5F64 
 2567      69737061 
 2567      7463685F 
 2567      4B525F4D 
 2568              	.LC5:
 2569 0094 434C4F43 		.ascii	"CLOCK__dispatch_KL_Minutes\012\000"
 2569      4B5F5F64 
 2569      69737061 
 2569      7463685F 
 2569      4B4C5F4D 
 2570              	.LC6:
 2571 00b0 434C4F43 		.ascii	"CLOCK__dispatch_KL_Hours\012\000"
 2571      4B5F5F64 
 2571      69737061 
 2571      7463685F 
 2571      4B4C5F48 
 2572 00ca 0000     		.space	2
 2573              	.LC7:
 2574 00cc 434C4F43 		.ascii	"CLOCK__errorHandler\012\000"
 2574      4B5F5F65 
 2574      72726F72 
 2574      48616E64 
 2574      6C65720A 
 2575 00e1 000000   		.space	3
 2576              	.LC8:
 2577 00e4 434C4F43 		.ascii	"CLOCK__incrementWidget\012\000"
 2577      4B5F5F69 
 2577      6E637265 
 2577      6D656E74 
 2577      57696467 
 2578              	.LC9:
 2579 00fc 434C4F43 		.ascii	"CLOCK__setDisplayFonts\012\000"
 2579      4B5F5F73 
 2579      65744469 
 2579      73706C61 
 2579      79466F6E 
 2580              	.LC10:
 2581 0114 434C4F43 		.ascii	"CLOCK__setEditFonts\012\000"
 2581      4B5F5F73 
 2581      65744564 
 2581      6974466F 
ARM GAS  C:\Users\JASON\AppData\Local\Temp\cct5bgFA.s 			page 74


 2581      6E74730A 
 2582 0129 000000   		.space	3
 2583              	.LC11:
 2584 012c 434C4F43 		.ascii	"CLOCK__dispatch_KRLP_Hours\012\000"
 2584      4B5F5F64 
 2584      69737061 
 2584      7463685F 
 2584      4B524C50 
 2585              	.LC12:
 2586 0148 434C4F43 		.ascii	"CLOCK__dispatch_KRLP_Min\012\000"
 2586      4B5F5F64 
 2586      69737061 
 2586      7463685F 
 2586      4B524C50 
 2587 0162 0000     		.space	2
 2588              	.LC13:
 2589 0164 434C4F43 		.ascii	"CLOCK__increment1Minute\012\000"
 2589      4B5F5F69 
 2589      6E637265 
 2589      6D656E74 
 2589      314D696E 
 2590 017d 000000   		.space	3
 2591              	.LC14:
 2592 0180 434C4F43 		.ascii	"CLOCK__errorHandlerRoutine\012\000"
 2592      4B5F5F65 
 2592      72726F72 
 2592      48616E64 
 2592      6C657252 
 2593              	.LC15:
 2594 019c 0A00     		.ascii	"\012\000"
 2595 019e 0000     		.space	2
 2596              	.LC16:
 2597 01a0 0A0A0A00 		.ascii	"\012\012\012\000"
 2598              		.bss
 2599              		.align	2
 2600              		.set	.LANCHOR0,. + 0
 2601              		.type	increment1Min_st, %object
 2602              		.size	increment1Min_st, 1
 2603              	increment1Min_st:
 2604 0000 00       		.space	1
 2605              		.type	autoIncrement_st, %object
 2606              		.size	autoIncrement_st, 1
 2607              	autoIncrement_st:
 2608 0001 00       		.space	1
 2609 0002 0000     		.space	2
 2610              		.type	asciiConvert.7702, %object
 2611              		.size	asciiConvert.7702, 30
 2612              	asciiConvert.7702:
 2613 0004 00000000 		.space	30
 2613      00000000 
 2613      00000000 
 2613      00000000 
 2613      00000000 
 2614              		.text
 2615              	.Letext0:
 2616              		.file 4 "c:\\program files (x86)\\cypress\\psoc creator\\4.4\\psoc creator\\import\\gnu\\arm\\5.4.
 2617              		.file 5 "c:\\program files (x86)\\cypress\\psoc creator\\4.4\\psoc creator\\import\\gnu\\arm\\5.4.
ARM GAS  C:\Users\JASON\AppData\Local\Temp\cct5bgFA.s 			page 75


 2618              		.file 6 "c:\\program files (x86)\\cypress\\psoc creator\\4.4\\psoc creator\\import\\gnu\\arm\\5.4.
 2619              		.file 7 "Generated_Source\\PSoC5/ErikaOS_common_ee_types.inc"
 2620              		.file 8 "Generated_Source\\PSoC5/ErikaOS_cortex_mx_ee_cpu.inc"
 2621              		.file 9 "Generated_Source\\PSoC5/ErikaOS_ee_oo_common.inc"
 2622              		.file 10 ".\\SourceFiles\\bsw/global.h"
 2623              		.file 11 ".\\SourceFiles\\rte/rte_types.h"
 2624              		.file 12 ".\\SourceFiles\\rte/rte.h"
 2625              		.file 13 ".\\SourceFiles\\bsw\\tft/tft.h"
 2626              		.file 14 "SourceFiles\\asw\\clock_statemachine_cfg.h"
 2627              		.file 15 "SourceFiles\\asw\\clock_statemachine.h"
 2628              		.file 16 ".\\SourceFiles\\rte/sc_clock_type.h"
 2629              		.file 17 ".\\SourceFiles\\rte/sc_event_type.h"
 2630              		.file 18 "Generated_Source\\PSoC5/ErikaOS_ee_oo_intfunc.inc"
 2631              		.file 19 "Generated_Source\\PSoC5/ErikaOS_cortex_mx_ee_context.inc"
 2632              		.file 20 "Generated_Source\\PSoC5/ErikaOS_common_ee_primitives.inc"
 2633              		.file 21 "Generated_Source\\PSoC5/core_cm3.h"
 2634              		.file 22 ".\\SourceFiles\\rte/sp_common.h"
 2635              		.file 23 "Generated_Source\\PSoC5/ErikaOS_ee_oo_kernel.inc"
 2636              		.file 24 "Generated_Source\\PSoC5/UART_LOG.h"
 2637              		.file 25 ".\\SourceFiles\\bsw/intToASCII.h"