ARM GAS  C:\Users\JASON\AppData\Local\Temp\cchWPZzk.s 			page 1


   1              		.syntax unified
   2              		.cpu cortex-m3
   3              		.fpu softvfp
   4              		.eabi_attribute 20, 1
   5              		.eabi_attribute 21, 1
   6              		.eabi_attribute 23, 3
   7              		.eabi_attribute 24, 1
   8              		.eabi_attribute 25, 1
   9              		.eabi_attribute 26, 1
  10              		.eabi_attribute 30, 1
  11              		.eabi_attribute 34, 1
  12              		.eabi_attribute 18, 4
  13              		.thumb
  14              		.syntax unified
  15              		.file	"swc_clock_input.c"
  16              		.text
  17              	.Ltext0:
  18              		.cfi_sections	.debug_frame
  19              		.section	.text.CLOCK_INPUT__run,"ax",%progbits
  20              		.align	2
  21              		.global	CLOCK_INPUT__run
  22              		.thumb
  23              		.thumb_func
  24              		.type	CLOCK_INPUT__run, %function
  25              	CLOCK_INPUT__run:
  26              	.LFB131:
  27              		.file 1 "SourceFiles\\asw\\swc_clock_input.c"
   1:SourceFiles\asw/swc_clock_input.c **** 
   2:SourceFiles\asw/swc_clock_input.c **** 
   3:SourceFiles\asw/swc_clock_input.c **** /*
   4:SourceFiles\asw/swc_clock_input.c ****  * Filename: swc_clock_input.c
   5:SourceFiles\asw/swc_clock_input.c ****  *
   6:SourceFiles\asw/swc_clock_input.c ****  * Author: Autogenerated by H-DA RTE Generator, (c) Prof. Fromm
   7:SourceFiles\asw/swc_clock_input.c ****  */
   8:SourceFiles\asw/swc_clock_input.c **** 
   9:SourceFiles\asw/swc_clock_input.c **** #include "project.h"
  10:SourceFiles\asw/swc_clock_input.c **** #include "global.h"
  11:SourceFiles\asw/swc_clock_input.c **** #include "rte.h"
  12:SourceFiles\asw/swc_clock_input.c **** #include "rte_types.h"
  13:SourceFiles\asw/swc_clock_input.c **** #include "swc_clock_input.h"
  14:SourceFiles\asw/swc_clock_input.c **** 
  15:SourceFiles\asw/swc_clock_input.c **** 
  16:SourceFiles\asw/swc_clock_input.c **** 
  17:SourceFiles\asw/swc_clock_input.c **** /* USER CODE START SWC_CLOCK_INPUT_INCLUDE */
  18:SourceFiles\asw/swc_clock_input.c **** #include "sc_event_type.h"
  19:SourceFiles\asw/swc_clock_input.c **** /* USER CODE END SWC_CLOCK_INPUT_INCLUDE */
  20:SourceFiles\asw/swc_clock_input.c **** 
  21:SourceFiles\asw/swc_clock_input.c **** 
  22:SourceFiles\asw/swc_clock_input.c **** #include "sp_common.h"
  23:SourceFiles\asw/swc_clock_input.c **** 
  24:SourceFiles\asw/swc_clock_input.c **** /* USER CODE START SWC_CLOCK_INPUT_USERDEFINITIONS */
  25:SourceFiles\asw/swc_clock_input.c **** 
  26:SourceFiles\asw/swc_clock_input.c **** /* USER CODE END SWC_CLOCK_INPUT_USERDEFINITIONS */
  27:SourceFiles\asw/swc_clock_input.c **** 
  28:SourceFiles\asw/swc_clock_input.c **** 
  29:SourceFiles\asw/swc_clock_input.c **** 
  30:SourceFiles\asw/swc_clock_input.c **** /*
ARM GAS  C:\Users\JASON\AppData\Local\Temp\cchWPZzk.s 			page 2


  31:SourceFiles\asw/swc_clock_input.c **** * component: swc_CLOCK_input
  32:SourceFiles\asw/swc_clock_input.c **** * cycletime: 50
  33:SourceFiles\asw/swc_clock_input.c **** * description: Runnable for clock input.
  34:SourceFiles\asw/swc_clock_input.c **** * events: 
  35:SourceFiles\asw/swc_clock_input.c **** * name: CLOCK_INPUT__run
  36:SourceFiles\asw/swc_clock_input.c **** * shortname: 
  37:SourceFiles\asw/swc_clock_input.c **** * signalIN: 
  38:SourceFiles\asw/swc_clock_input.c **** * signalOUT: so_EVENT
  39:SourceFiles\asw/swc_clock_input.c **** * task: tsk_input
  40:SourceFiles\asw/swc_clock_input.c **** */
  41:SourceFiles\asw/swc_clock_input.c **** void CLOCK_INPUT__run(RTE_event ev){
  28              		.loc 1 41 0
  29              		.cfi_startproc
  30              		@ args = 0, pretend = 0, frame = 0
  31              		@ frame_needed = 0, uses_anonymous_args = 0
  32              	.LVL0:
  33 0000 38B5     		push	{r3, r4, r5, lr}
  34              		.cfi_def_cfa_offset 16
  35              		.cfi_offset 3, -16
  36              		.cfi_offset 4, -12
  37              		.cfi_offset 5, -8
  38              		.cfi_offset 14, -4
  42:SourceFiles\asw/swc_clock_input.c **** 	
  43:SourceFiles\asw/swc_clock_input.c **** 	/* USER CODE START CLOCK_INPUT__run */
  44:SourceFiles\asw/swc_clock_input.c ****     /**
  45:SourceFiles\asw/swc_clock_input.c **** 	 * @brief counter to check if button is pressed longer than 1 second.
  46:SourceFiles\asw/swc_clock_input.c **** 	 */
  47:SourceFiles\asw/swc_clock_input.c **** 	static uint32_t timer_1s = 0;
  48:SourceFiles\asw/swc_clock_input.c ****     
  49:SourceFiles\asw/swc_clock_input.c ****     if(TRUE == button_2_Read())
  39              		.loc 1 49 0
  40 0002 FFF7FEFF 		bl	button_2_Read
  41              	.LVL1:
  42 0006 0128     		cmp	r0, #1
  43 0008 04D1     		bne	.L2
  50:SourceFiles\asw/swc_clock_input.c ****     {
  51:SourceFiles\asw/swc_clock_input.c ****         timer_1s =  timer_1s + 50;
  44              		.loc 1 51 0
  45 000a 1E4A     		ldr	r2, .L12
  46 000c 1368     		ldr	r3, [r2]
  47 000e 3233     		adds	r3, r3, #50
  48 0010 1360     		str	r3, [r2]
  49 0012 02E0     		b	.L3
  50              	.L2:
  52:SourceFiles\asw/swc_clock_input.c ****     }
  53:SourceFiles\asw/swc_clock_input.c ****     else
  54:SourceFiles\asw/swc_clock_input.c ****     {
  55:SourceFiles\asw/swc_clock_input.c ****         timer_1s =  0;
  51              		.loc 1 55 0
  52 0014 0022     		movs	r2, #0
  53 0016 1B4B     		ldr	r3, .L12
  54 0018 1A60     		str	r2, [r3]
  55              	.L3:
  56:SourceFiles\asw/swc_clock_input.c ****     }
  57:SourceFiles\asw/swc_clock_input.c ****     
  58:SourceFiles\asw/swc_clock_input.c **** 	// If right key was pressed for longer than 1 second then set the event associated with long key p
  59:SourceFiles\asw/swc_clock_input.c ****     if(timer_1s == 1000)
ARM GAS  C:\Users\JASON\AppData\Local\Temp\cchWPZzk.s 			page 3


  56              		.loc 1 59 0
  57 001a 1A4B     		ldr	r3, .L12
  58 001c 1B68     		ldr	r3, [r3]
  59 001e B3F57A7F 		cmp	r3, #1000
  60 0022 2ED1     		bne	.L1
  61              	.LBB6:
  60:SourceFiles\asw/swc_clock_input.c ****     {
  61:SourceFiles\asw/swc_clock_input.c ****         timer_1s = 0;
  62              		.loc 1 61 0
  63 0024 0022     		movs	r2, #0
  64 0026 174B     		ldr	r3, .L12
  65 0028 1A60     		str	r2, [r3]
  66              	.LVL2:
  67              	.LBB7:
  68              	.LBB8:
  69              		.file 2 ".\\SourceFiles\\rte/sc_event.h"
   1:.\SourceFiles\rte/sc_event.h **** 
   2:.\SourceFiles\rte/sc_event.h **** 
   3:.\SourceFiles\rte/sc_event.h **** /**
   4:.\SourceFiles\rte/sc_event.h **** *  file    SC_EVENT_signal.h
   5:.\SourceFiles\rte/sc_event.h **** *
   6:.\SourceFiles\rte/sc_event.h **** *  brief   signal base class for signal sc_event
   7:.\SourceFiles\rte/sc_event.h **** *
   8:.\SourceFiles\rte/sc_event.h **** *  author  Autogenerated, Peter Fromm       <peter.fromm@h-da.de>
   9:.\SourceFiles\rte/sc_event.h **** *
  10:.\SourceFiles\rte/sc_event.h **** *
  11:.\SourceFiles\rte/sc_event.h **** */
  12:.\SourceFiles\rte/sc_event.h **** 
  13:.\SourceFiles\rte/sc_event.h **** /*
  14:.\SourceFiles\rte/sc_event.h **** * description: Signalclass of the Events.
  15:.\SourceFiles\rte/sc_event.h **** * name: sc_EVENT
  16:.\SourceFiles\rte/sc_event.h **** * shortname: EVENT
  17:.\SourceFiles\rte/sc_event.h **** */
  18:.\SourceFiles\rte/sc_event.h **** 
  19:.\SourceFiles\rte/sc_event.h **** #ifndef SC_EVENT_SIGNAL_H_INCLUDED
  20:.\SourceFiles\rte/sc_event.h **** #define SC_EVENT_SIGNAL_H_INCLUDED
  21:.\SourceFiles\rte/sc_event.h **** 
  22:.\SourceFiles\rte/sc_event.h **** /*================================================[ public includes  ]=============================
  23:.\SourceFiles\rte/sc_event.h **** #include "global.h"
  24:.\SourceFiles\rte/sc_event.h **** #include "project.h"
  25:.\SourceFiles\rte/sc_event.h **** #include "rte.h"
  26:.\SourceFiles\rte/sc_event.h **** #include "rte_types.h"
  27:.\SourceFiles\rte/sc_event.h **** 
  28:.\SourceFiles\rte/sc_event.h **** #include "sc_event_type.h"
  29:.\SourceFiles\rte/sc_event.h **** 
  30:.\SourceFiles\rte/sc_event.h **** 
  31:.\SourceFiles\rte/sc_event.h **** /**************************************************************************************************
  32:.\SourceFiles\rte/sc_event.h **** /* The driver API block																						*/
  33:.\SourceFiles\rte/sc_event.h **** /**************************************************************************************************
  34:.\SourceFiles\rte/sc_event.h ****                                                                                                    
  35:.\SourceFiles\rte/sc_event.h **** /**
  36:.\SourceFiles\rte/sc_event.h ****  *  Definition of function types for driver interfaces.
  37:.\SourceFiles\rte/sc_event.h ****  *  I-Port
  38:.\SourceFiles\rte/sc_event.h ****  */
  39:.\SourceFiles\rte/sc_event.h **** typedef RC_t (*SC_EVENT_driverIn_t)(SC_EVENT_data_t * const);
  40:.\SourceFiles\rte/sc_event.h **** 
  41:.\SourceFiles\rte/sc_event.h **** /**
ARM GAS  C:\Users\JASON\AppData\Local\Temp\cchWPZzk.s 			page 4


  42:.\SourceFiles\rte/sc_event.h ****  *  Definition of function types for driver interfaces.
  43:.\SourceFiles\rte/sc_event.h ****  *  O-Port
  44:.\SourceFiles\rte/sc_event.h ****  */
  45:.\SourceFiles\rte/sc_event.h **** typedef RC_t (*SC_EVENT_driverOut_t)( const SC_EVENT_data_t * const);
  46:.\SourceFiles\rte/sc_event.h **** 
  47:.\SourceFiles\rte/sc_event.h **** 
  48:.\SourceFiles\rte/sc_event.h **** /**************************************************************************************************
  49:.\SourceFiles\rte/sc_event.h **** /* The signal configuration API block																				*/
  50:.\SourceFiles\rte/sc_event.h **** /**************************************************************************************************
  51:.\SourceFiles\rte/sc_event.h **** 
  52:.\SourceFiles\rte/sc_event.h **** /**
  53:.\SourceFiles\rte/sc_event.h ****  * Instances of the struct SC_EVENT_cfg_t represent the signal object configuration.
  54:.\SourceFiles\rte/sc_event.h ****  */
  55:.\SourceFiles\rte/sc_event.h **** struct SC_EVENT_cfg_s
  56:.\SourceFiles\rte/sc_event.h **** {
  57:.\SourceFiles\rte/sc_event.h ****     /**
  58:.\SourceFiles\rte/sc_event.h ****      * Function pointer to the input driver
  59:.\SourceFiles\rte/sc_event.h ****      */
  60:.\SourceFiles\rte/sc_event.h ****     SC_EVENT_driverIn_t const inDriver;
  61:.\SourceFiles\rte/sc_event.h **** 
  62:.\SourceFiles\rte/sc_event.h ****     /**
  63:.\SourceFiles\rte/sc_event.h ****      * Function pointer to the output driver table
  64:.\SourceFiles\rte/sc_event.h ****      */
  65:.\SourceFiles\rte/sc_event.h ****    SC_EVENT_driverOut_t const outDriver;
  66:.\SourceFiles\rte/sc_event.h ****    
  67:.\SourceFiles\rte/sc_event.h ****     /**
  68:.\SourceFiles\rte/sc_event.h ****      * Event onUpdate
  69:.\SourceFiles\rte/sc_event.h ****      */
  70:.\SourceFiles\rte/sc_event.h ****     EventMaskType const evOnUpdate;
  71:.\SourceFiles\rte/sc_event.h ****     
  72:.\SourceFiles\rte/sc_event.h ****     
  73:.\SourceFiles\rte/sc_event.h ****     /**
  74:.\SourceFiles\rte/sc_event.h ****      * Event onError
  75:.\SourceFiles\rte/sc_event.h ****      */
  76:.\SourceFiles\rte/sc_event.h ****     EventMaskType const evOnError;
  77:.\SourceFiles\rte/sc_event.h ****     
  78:.\SourceFiles\rte/sc_event.h ****     /**
  79:.\SourceFiles\rte/sc_event.h ****      * Task Count onUpdate
  80:.\SourceFiles\rte/sc_event.h ****      */
  81:.\SourceFiles\rte/sc_event.h ****     size_t const onUpdateTaskCount;
  82:.\SourceFiles\rte/sc_event.h **** 
  83:.\SourceFiles\rte/sc_event.h ****     /**
  84:.\SourceFiles\rte/sc_event.h ****      * Task List onUpdate
  85:.\SourceFiles\rte/sc_event.h ****      */
  86:.\SourceFiles\rte/sc_event.h ****     TaskTypeArray* const onUpdateTasks;
  87:.\SourceFiles\rte/sc_event.h ****     
  88:.\SourceFiles\rte/sc_event.h ****     /**
  89:.\SourceFiles\rte/sc_event.h ****      * Task Count onError
  90:.\SourceFiles\rte/sc_event.h ****      */
  91:.\SourceFiles\rte/sc_event.h ****     size_t const onErrorTaskCount;
  92:.\SourceFiles\rte/sc_event.h **** 
  93:.\SourceFiles\rte/sc_event.h ****     /**
  94:.\SourceFiles\rte/sc_event.h ****      * Task List onError
  95:.\SourceFiles\rte/sc_event.h ****      */
  96:.\SourceFiles\rte/sc_event.h ****     TaskTypeArray* const onErrorTasks;
  97:.\SourceFiles\rte/sc_event.h **** 	
  98:.\SourceFiles\rte/sc_event.h **** 	
ARM GAS  C:\Users\JASON\AppData\Local\Temp\cchWPZzk.s 			page 5


  99:.\SourceFiles\rte/sc_event.h **** 	/**
 100:.\SourceFiles\rte/sc_event.h **** 	 * Ressourse is active? We need an additional boolean as a ressource value 0 is valid.
 101:.\SourceFiles\rte/sc_event.h **** 	 */
 102:.\SourceFiles\rte/sc_event.h **** 	 boolean_t const resourceActive;
 103:.\SourceFiles\rte/sc_event.h **** 	 
 104:.\SourceFiles\rte/sc_event.h **** 	/**
 105:.\SourceFiles\rte/sc_event.h **** 	 * Ressourse 
 106:.\SourceFiles\rte/sc_event.h **** 	 */
 107:.\SourceFiles\rte/sc_event.h **** 	 ResourceType const resource;
 108:.\SourceFiles\rte/sc_event.h **** 
 109:.\SourceFiles\rte/sc_event.h **** };                                                                                                 
 110:.\SourceFiles\rte/sc_event.h **** typedef const struct SC_EVENT_cfg_s SC_EVENT_cfg_t;
 111:.\SourceFiles\rte/sc_event.h ****                               
 112:.\SourceFiles\rte/sc_event.h **** /**************************************************************************************************
 113:.\SourceFiles\rte/sc_event.h **** /* The data interface block																							*/
 114:.\SourceFiles\rte/sc_event.h **** /**************************************************************************************************
 115:.\SourceFiles\rte/sc_event.h **** 
 116:.\SourceFiles\rte/sc_event.h ****                                                                                                    
 117:.\SourceFiles\rte/sc_event.h **** 							  
 118:.\SourceFiles\rte/sc_event.h **** /**
 119:.\SourceFiles\rte/sc_event.h ****  * Instances of the struct SC_EVENT_t represent the signal objects.
 120:.\SourceFiles\rte/sc_event.h ****  * A signal object contains the current application value 'value' as well as relevant meta data.
 121:.\SourceFiles\rte/sc_event.h ****  */
 122:.\SourceFiles\rte/sc_event.h **** struct SC_EVENT_s
 123:.\SourceFiles\rte/sc_event.h **** {                                                                                                  
 124:.\SourceFiles\rte/sc_event.h **** 
 125:.\SourceFiles\rte/sc_event.h **** 	/**
 126:.\SourceFiles\rte/sc_event.h **** 	 * Data buffer for the application value
 127:.\SourceFiles\rte/sc_event.h **** 	 */
 128:.\SourceFiles\rte/sc_event.h ****     SC_EVENT_data_t value;
 129:.\SourceFiles\rte/sc_event.h **** 
 130:.\SourceFiles\rte/sc_event.h ****     /**
 131:.\SourceFiles\rte/sc_event.h ****      * Current signal status
 132:.\SourceFiles\rte/sc_event.h ****      */
 133:.\SourceFiles\rte/sc_event.h ****     RTE_signalStatus_t status;
 134:.\SourceFiles\rte/sc_event.h **** 
 135:.\SourceFiles\rte/sc_event.h ****     /**
 136:.\SourceFiles\rte/sc_event.h ****      * Current age of the signal (in calling cycles)
 137:.\SourceFiles\rte/sc_event.h ****      */
 138:.\SourceFiles\rte/sc_event.h ****     uint32_t age;
 139:.\SourceFiles\rte/sc_event.h **** 
 140:.\SourceFiles\rte/sc_event.h ****     /**
 141:.\SourceFiles\rte/sc_event.h ****      * Pointer to the signal configuration
 142:.\SourceFiles\rte/sc_event.h ****      */
 143:.\SourceFiles\rte/sc_event.h **** 	const SC_EVENT_cfg_t * const    pSigCfg;
 144:.\SourceFiles\rte/sc_event.h **** 
 145:.\SourceFiles\rte/sc_event.h **** };                                                                                                 
 146:.\SourceFiles\rte/sc_event.h **** typedef struct SC_EVENT_s SC_EVENT_t;
 147:.\SourceFiles\rte/sc_event.h **** 
 148:.\SourceFiles\rte/sc_event.h **** /**************************************************************************************************
 149:.\SourceFiles\rte/sc_event.h **** /* Signal initialisation   																							*/
 150:.\SourceFiles\rte/sc_event.h **** /**************************************************************************************************
 151:.\SourceFiles\rte/sc_event.h **** 
 152:.\SourceFiles\rte/sc_event.h **** /**
 153:.\SourceFiles\rte/sc_event.h ****  * Initializes a signal instance with a passed init value.
 154:.\SourceFiles\rte/sc_event.h ****  * Depending on the configured conversion or scaling function the raw_value will be calculated.
 155:.\SourceFiles\rte/sc_event.h ****  * Signal status will change from RTE_SIGNALSTATUS_STARTUP to RTE_SIGNALSTATUS_INITIALIZED.
ARM GAS  C:\Users\JASON\AppData\Local\Temp\cchWPZzk.s 			page 6


 156:.\SourceFiles\rte/sc_event.h ****  *
 157:.\SourceFiles\rte/sc_event.h ****  * @param  SC_EVENT_t * const signal: Pointer to the signal object which will be initialised
 158:.\SourceFiles\rte/sc_event.h ****  * @param const sc_event_data_t * const value: Pointer to initial value of the application data
 159:.\SourceFiles\rte/sc_event.h ****  * @return RC_t: standard return code, currently only RC_SUCCESS
 160:.\SourceFiles\rte/sc_event.h ****  *
 161:.\SourceFiles\rte/sc_event.h ****  **/
 162:.\SourceFiles\rte/sc_event.h **** inline RC_t RTE_SC_EVENT_init( SC_EVENT_t * const signal, const SC_EVENT_data_t * const value )
 163:.\SourceFiles\rte/sc_event.h **** {                                                                                                  
 164:.\SourceFiles\rte/sc_event.h **** 
 165:.\SourceFiles\rte/sc_event.h ****    RC_t ret = RC_SUCCESS;
 166:.\SourceFiles\rte/sc_event.h **** 
 167:.\SourceFiles\rte/sc_event.h ****    //Set value and raw value
 168:.\SourceFiles\rte/sc_event.h ****    signal->value  = *value;
 169:.\SourceFiles\rte/sc_event.h ****    signal->age    = 0;
 170:.\SourceFiles\rte/sc_event.h ****    signal->status = RTE_SIGNALSTATUS_INITIALIZED;
 171:.\SourceFiles\rte/sc_event.h **** 
 172:.\SourceFiles\rte/sc_event.h ****    return ret;
 173:.\SourceFiles\rte/sc_event.h **** }
 174:.\SourceFiles\rte/sc_event.h **** 
 175:.\SourceFiles\rte/sc_event.h **** /**************************************************************************************************
 176:.\SourceFiles\rte/sc_event.h **** /* Status and timeout control																						*/
 177:.\SourceFiles\rte/sc_event.h **** /**************************************************************************************************
 178:.\SourceFiles\rte/sc_event.h **** 
 179:.\SourceFiles\rte/sc_event.h **** /**
 180:.\SourceFiles\rte/sc_event.h ****  *  Returns the current signal status of the passed signal instance.
 181:.\SourceFiles\rte/sc_event.h ****  *
 182:.\SourceFiles\rte/sc_event.h ****  * @param  SC_EVENT_t * const signal: Pointer to the signal object
 183:.\SourceFiles\rte/sc_event.h ****  * @return  sig_status_t: The current signal status
 184:.\SourceFiles\rte/sc_event.h ****  *
 185:.\SourceFiles\rte/sc_event.h ****  **/
 186:.\SourceFiles\rte/sc_event.h **** inline RTE_signalStatus_t RTE_SC_EVENT_getStatus( const SC_EVENT_t * const signal )
 187:.\SourceFiles\rte/sc_event.h **** {
 188:.\SourceFiles\rte/sc_event.h ****    return signal->status;
 189:.\SourceFiles\rte/sc_event.h **** }
 190:.\SourceFiles\rte/sc_event.h **** 
 191:.\SourceFiles\rte/sc_event.h **** 
 192:.\SourceFiles\rte/sc_event.h **** /**
 193:.\SourceFiles\rte/sc_event.h ****  *  Sets a new signal status of the passed signal instance by passing the new status.
 194:.\SourceFiles\rte/sc_event.h ****  *
 195:.\SourceFiles\rte/sc_event.h ****  * @param  SC_EVENT_t * const signal: Pointer to the signal object
 196:.\SourceFiles\rte/sc_event.h ****  * @param  const sig_status_t status: New signal status
 197:.\SourceFiles\rte/sc_event.h ****  * @return RC_t: standard return code, currently only RC_SUCCESS
 198:.\SourceFiles\rte/sc_event.h ****  *
 199:.\SourceFiles\rte/sc_event.h ****  */
 200:.\SourceFiles\rte/sc_event.h **** inline RC_t RTE_SC_EVENT_setStatus( SC_EVENT_t * const signal, const RTE_signalStatus_t status )
 201:.\SourceFiles\rte/sc_event.h **** {
 202:.\SourceFiles\rte/sc_event.h ****    signal->status = status;
 203:.\SourceFiles\rte/sc_event.h ****    size_t taskNum=0;
 204:.\SourceFiles\rte/sc_event.h ****    
 205:.\SourceFiles\rte/sc_event.h ****    //Fire error events in case of invalid state
 206:.\SourceFiles\rte/sc_event.h ****    if (signal->status == RTE_SIGNALSTATUS_INVALID)
 207:.\SourceFiles\rte/sc_event.h ****    {
 208:.\SourceFiles\rte/sc_event.h **** 	    //Pointer to the Taskarray, containing the tasks receiving the onUpdate events
 209:.\SourceFiles\rte/sc_event.h **** 		TaskTypeArray* pTaskArray = signal->pSigCfg->onErrorTasks;
 210:.\SourceFiles\rte/sc_event.h **** 
 211:.\SourceFiles\rte/sc_event.h **** 		if (NULL!=signal->pSigCfg->evOnError && NULL != pTaskArray){
 212:.\SourceFiles\rte/sc_event.h **** 			for( taskNum=0 ; taskNum < signal->pSigCfg->onErrorTaskCount ;taskNum++){
ARM GAS  C:\Users\JASON\AppData\Local\Temp\cchWPZzk.s 			page 7


 213:.\SourceFiles\rte/sc_event.h **** 				TaskType task = (*pTaskArray)[taskNum];
 214:.\SourceFiles\rte/sc_event.h **** 				SetEvent( task, signal->pSigCfg->evOnError);
 215:.\SourceFiles\rte/sc_event.h **** 			}
 216:.\SourceFiles\rte/sc_event.h **** 		}
 217:.\SourceFiles\rte/sc_event.h ****    }
 218:.\SourceFiles\rte/sc_event.h ****    
 219:.\SourceFiles\rte/sc_event.h ****    return RC_SUCCESS;
 220:.\SourceFiles\rte/sc_event.h **** }
 221:.\SourceFiles\rte/sc_event.h **** 
 222:.\SourceFiles\rte/sc_event.h **** 
 223:.\SourceFiles\rte/sc_event.h **** /**
 224:.\SourceFiles\rte/sc_event.h ****  * Returns the count of refreshing trials (refresh, set or set_raw) that failed.
 225:.\SourceFiles\rte/sc_event.h ****  * Prerquisite: The signal is refreshed cyclically
 226:.\SourceFiles\rte/sc_event.h ****  *
 227:.\SourceFiles\rte/sc_event.h ****  * @param  SC_EVENT_t * const signal: Pointer to the signal object
 228:.\SourceFiles\rte/sc_event.h ****  * @return uint32_t: Number of cycles since the signal has been updated for the last time
 229:.\SourceFiles\rte/sc_event.h ****  */
 230:.\SourceFiles\rte/sc_event.h **** inline uint32_t RTE_SC_EVENT_getAge( const SC_EVENT_t * const signal )
 231:.\SourceFiles\rte/sc_event.h **** {
 232:.\SourceFiles\rte/sc_event.h ****    return signal->age;
 233:.\SourceFiles\rte/sc_event.h **** }
 234:.\SourceFiles\rte/sc_event.h **** 
 235:.\SourceFiles\rte/sc_event.h **** /**
 236:.\SourceFiles\rte/sc_event.h ****  * Should be called by application or driver if no new value can be provided.
 237:.\SourceFiles\rte/sc_event.h ****  * @param  SC_EVENT_t * const signal: Pointer to the signal object
 238:.\SourceFiles\rte/sc_event.h ****  * @param uint32_t increment: incrementvalue, typically in [ms]
 239:.\SourceFiles\rte/sc_event.h ****  * @return void
 240:.\SourceFiles\rte/sc_event.h ****  */
 241:.\SourceFiles\rte/sc_event.h **** inline void RTE_SC_EVENT_incAge(  SC_EVENT_t * const signal , uint32_t increment)
 242:.\SourceFiles\rte/sc_event.h **** {
 243:.\SourceFiles\rte/sc_event.h **** 	   //Hack....
 244:.\SourceFiles\rte/sc_event.h **** 	   if ( 0xFFFF0000 > (signal->age + increment) )
 245:.\SourceFiles\rte/sc_event.h **** 	   {
 246:.\SourceFiles\rte/sc_event.h **** 	      signal->age += increment;
 247:.\SourceFiles\rte/sc_event.h **** 	   }
 248:.\SourceFiles\rte/sc_event.h **** }
 249:.\SourceFiles\rte/sc_event.h **** 
 250:.\SourceFiles\rte/sc_event.h **** 
 251:.\SourceFiles\rte/sc_event.h **** /**************************************************************************************************
 252:.\SourceFiles\rte/sc_event.h **** /* Application Data read/write Interface																			*/
 253:.\SourceFiles\rte/sc_event.h **** /**************************************************************************************************
 254:.\SourceFiles\rte/sc_event.h **** 
 255:.\SourceFiles\rte/sc_event.h **** /**
 256:.\SourceFiles\rte/sc_event.h ****  * Returns the current application value of the passed signal instance.
 257:.\SourceFiles\rte/sc_event.h ****  *
 258:.\SourceFiles\rte/sc_event.h ****  * @param  SC_EVENT_t * const signal: Pointer to the signal object
 259:.\SourceFiles\rte/sc_event.h ****  * @return sc_event_data_t: current value of the application data buffer
 260:.\SourceFiles\rte/sc_event.h ****  *
 261:.\SourceFiles\rte/sc_event.h ****  **/
 262:.\SourceFiles\rte/sc_event.h **** inline SC_EVENT_data_t RTE_SC_EVENT_get( const SC_EVENT_t * const signal )
 263:.\SourceFiles\rte/sc_event.h **** {               
 264:.\SourceFiles\rte/sc_event.h ****    //Todo: Critical region cannot be protected using return values																						
 265:.\SourceFiles\rte/sc_event.h ****    return signal->value;                                                                           
 266:.\SourceFiles\rte/sc_event.h **** }                                                                                                  
 267:.\SourceFiles\rte/sc_event.h ****                                                                                                    
 268:.\SourceFiles\rte/sc_event.h **** /**
 269:.\SourceFiles\rte/sc_event.h ****  * Returns the current application value of the passed signal instance threadsafe.
ARM GAS  C:\Users\JASON\AppData\Local\Temp\cchWPZzk.s 			page 8


 270:.\SourceFiles\rte/sc_event.h ****  *
 271:.\SourceFiles\rte/sc_event.h ****  * @param  SC_EVENT_t * const signal: Pointer to the signal object
 272:.\SourceFiles\rte/sc_event.h ****  * @param  SC_EVENT_data_t* data: Pointer to the return data Pointer to the signal object
 273:.\SourceFiles\rte/sc_event.h ****  * @return RC_SUCCESS
 274:.\SourceFiles\rte/sc_event.h ****  *
 275:.\SourceFiles\rte/sc_event.h ****  **/
 276:.\SourceFiles\rte/sc_event.h **** inline RC_t RTE_SC_EVENT_getThreadSafe( const SC_EVENT_t * const signal, SC_EVENT_data_t * const da
 277:.\SourceFiles\rte/sc_event.h **** {    
 278:.\SourceFiles\rte/sc_event.h ****    if (TRUE == signal->pSigCfg->resourceActive) GetResource(signal->pSigCfg->resource);
 279:.\SourceFiles\rte/sc_event.h ****    *data = signal->value;
 280:.\SourceFiles\rte/sc_event.h ****    if (TRUE == signal->pSigCfg->resourceActive) ReleaseResource(signal->pSigCfg->resource);        
 281:.\SourceFiles\rte/sc_event.h **** 
 282:.\SourceFiles\rte/sc_event.h ****    return RC_SUCCESS;                                                                   
 283:.\SourceFiles\rte/sc_event.h ****    
 284:.\SourceFiles\rte/sc_event.h **** }                                                                                                  
 285:.\SourceFiles\rte/sc_event.h ****                                                                                                    
 286:.\SourceFiles\rte/sc_event.h **** /**
 287:.\SourceFiles\rte/sc_event.h ****  * Sets a new application value to the passed signal instance by passing the new value.
 288:.\SourceFiles\rte/sc_event.h ****  * The corresponding driver raw value will be calculated immediately by using the default conversio
 289:.\SourceFiles\rte/sc_event.h ****  * signal specific scaling function.
 290:.\SourceFiles\rte/sc_event.h ****  * The signal age will be set to 0 and the new status will be 'RTE_SIGNALSTATUS_VALID'.
 291:.\SourceFiles\rte/sc_event.h ****  *
 292:.\SourceFiles\rte/sc_event.h ****  * @param  SC_EVENT_t * const signal: Pointer to the signal object
 293:.\SourceFiles\rte/sc_event.h ****  * @param  sc_event_data_t const value: value for the application data buffer
 294:.\SourceFiles\rte/sc_event.h ****  * @return RC_t: standard return code, currently only RC_SUCCESS
 295:.\SourceFiles\rte/sc_event.h ****  *
 296:.\SourceFiles\rte/sc_event.h ****  **/
 297:.\SourceFiles\rte/sc_event.h **** inline RC_t RTE_SC_EVENT_set(SC_EVENT_t * const signal, const SC_EVENT_data_t value  )
 298:.\SourceFiles\rte/sc_event.h **** {
 299:.\SourceFiles\rte/sc_event.h **** 
 300:.\SourceFiles\rte/sc_event.h ****    RC_t ret = RC_SUCCESS;
 301:.\SourceFiles\rte/sc_event.h ****    size_t taskNum=0;
 302:.\SourceFiles\rte/sc_event.h **** 
 303:.\SourceFiles\rte/sc_event.h **** 
 304:.\SourceFiles\rte/sc_event.h ****    if (TRUE == signal->pSigCfg->resourceActive) GetResource(signal->pSigCfg->resource);
  70              		.loc 2 304 0
  71 002a 174B     		ldr	r3, .L12+4
  72 002c 9B68     		ldr	r3, [r3, #8]
  73 002e 93F82020 		ldrb	r2, [r3, #32]	@ zero_extendqisi2
  74 0032 012A     		cmp	r2, #1
  75 0034 02D1     		bne	.L5
  76 0036 586A     		ldr	r0, [r3, #36]
  77 0038 FFF7FEFF 		bl	EE_oo_GetResource
  78              	.LVL3:
  79              	.L5:
 305:.\SourceFiles\rte/sc_event.h ****    signal->value  = value;
  80              		.loc 2 305 0
  81 003c 124B     		ldr	r3, .L12+4
  82 003e 0322     		movs	r2, #3
  83 0040 1A70     		strb	r2, [r3]
 306:.\SourceFiles\rte/sc_event.h ****    signal->age    = 0;
  84              		.loc 2 306 0
  85 0042 0022     		movs	r2, #0
  86 0044 5A60     		str	r2, [r3, #4]
 307:.\SourceFiles\rte/sc_event.h ****    signal->status = RTE_SIGNALSTATUS_VALID;
  87              		.loc 2 307 0
  88 0046 0222     		movs	r2, #2
ARM GAS  C:\Users\JASON\AppData\Local\Temp\cchWPZzk.s 			page 9


  89 0048 5A70     		strb	r2, [r3, #1]
 308:.\SourceFiles\rte/sc_event.h ****    if (TRUE == signal->pSigCfg->resourceActive) ReleaseResource(signal->pSigCfg->resource);
  90              		.loc 2 308 0
  91 004a 9B68     		ldr	r3, [r3, #8]
  92 004c 93F82020 		ldrb	r2, [r3, #32]	@ zero_extendqisi2
  93 0050 012A     		cmp	r2, #1
  94 0052 02D1     		bne	.L6
  95 0054 586A     		ldr	r0, [r3, #36]
  96 0056 FFF7FEFF 		bl	EE_oo_ReleaseResource
  97              	.LVL4:
  98              	.L6:
 309:.\SourceFiles\rte/sc_event.h **** 
 310:.\SourceFiles\rte/sc_event.h ****    //Pointer to the Taskarray, containing the tasks receiving the onUpdate events
 311:.\SourceFiles\rte/sc_event.h ****    TaskTypeArray* pTaskArray = signal->pSigCfg->onUpdateTasks;
  99              		.loc 2 311 0
 100 005a 0B4B     		ldr	r3, .L12+4
 101 005c 9B68     		ldr	r3, [r3, #8]
 102 005e 5D69     		ldr	r5, [r3, #20]
 103              	.LVL5:
 312:.\SourceFiles\rte/sc_event.h **** 
 313:.\SourceFiles\rte/sc_event.h ****    if (NULL!=signal->pSigCfg->evOnUpdate && NULL != pTaskArray){
 104              		.loc 2 313 0
 105 0060 9B68     		ldr	r3, [r3, #8]
 106 0062 73B1     		cbz	r3, .L1
 107 0064 3DB9     		cbnz	r5, .L10
 108 0066 38BD     		pop	{r3, r4, r5, pc}
 109              	.LVL6:
 110              	.L9:
 111              	.LBB9:
 314:.\SourceFiles\rte/sc_event.h ****       for( taskNum=0 ; taskNum < signal->pSigCfg->onUpdateTaskCount ;taskNum++){
 315:.\SourceFiles\rte/sc_event.h **** 		  
 316:.\SourceFiles\rte/sc_event.h ****           TaskType task = (*pTaskArray)[taskNum];
 317:.\SourceFiles\rte/sc_event.h **** 	      SetEvent( task, signal->pSigCfg->evOnUpdate);
 112              		.loc 2 317 0
 113 0068 9968     		ldr	r1, [r3, #8]
 114 006a 55F82400 		ldr	r0, [r5, r4, lsl #2]
 115 006e FFF7FEFF 		bl	EE_oo_SetEvent
 116              	.LVL7:
 117              	.LBE9:
 314:.\SourceFiles\rte/sc_event.h ****       for( taskNum=0 ; taskNum < signal->pSigCfg->onUpdateTaskCount ;taskNum++){
 118              		.loc 2 314 0
 119 0072 0134     		adds	r4, r4, #1
 120              	.LVL8:
 121 0074 00E0     		b	.L8
 122              	.LVL9:
 123              	.L10:
 313:.\SourceFiles\rte/sc_event.h ****       for( taskNum=0 ; taskNum < signal->pSigCfg->onUpdateTaskCount ;taskNum++){
 124              		.loc 2 313 0
 125 0076 0024     		movs	r4, #0
 126              	.LVL10:
 127              	.L8:
 314:.\SourceFiles\rte/sc_event.h ****       for( taskNum=0 ; taskNum < signal->pSigCfg->onUpdateTaskCount ;taskNum++){
 128              		.loc 2 314 0
 129 0078 034B     		ldr	r3, .L12+4
 130 007a 9B68     		ldr	r3, [r3, #8]
 131 007c 1A69     		ldr	r2, [r3, #16]
 132 007e 9442     		cmp	r4, r2
ARM GAS  C:\Users\JASON\AppData\Local\Temp\cchWPZzk.s 			page 10


 133 0080 F2D3     		bcc	.L9
 134              	.LVL11:
 135              	.L1:
 136 0082 38BD     		pop	{r3, r4, r5, pc}
 137              	.L13:
 138              		.align	2
 139              	.L12:
 140 0084 00000000 		.word	.LANCHOR0
 141 0088 00000000 		.word	SO_EVENT_signal
 142              	.LBE8:
 143              	.LBE7:
 144              	.LBE6:
 145              		.cfi_endproc
 146              	.LFE131:
 147              		.size	CLOCK_INPUT__run, .-CLOCK_INPUT__run
 148              		.bss
 149              		.align	2
 150              		.set	.LANCHOR0,. + 0
 151              		.type	timer_1s.7654, %object
 152              		.size	timer_1s.7654, 4
 153              	timer_1s.7654:
 154 0000 00000000 		.space	4
 155              		.text
 156              	.Letext0:
 157              		.file 3 "c:\\program files (x86)\\cypress\\psoc creator\\4.4\\psoc creator\\import\\gnu\\arm\\5.4.
 158              		.file 4 "c:\\program files (x86)\\cypress\\psoc creator\\4.4\\psoc creator\\import\\gnu\\arm\\5.4.
 159              		.file 5 "c:\\program files (x86)\\cypress\\psoc creator\\4.4\\psoc creator\\import\\gnu\\arm\\5.4.
 160              		.file 6 "Generated_Source\\PSoC5/ErikaOS_common_ee_types.inc"
 161              		.file 7 "Generated_Source\\PSoC5/ErikaOS_cortex_mx_ee_cpu.inc"
 162              		.file 8 "Generated_Source\\PSoC5/ErikaOS_ee_oo_common.inc"
 163              		.file 9 ".\\SourceFiles\\bsw/global.h"
 164              		.file 10 ".\\SourceFiles\\rte/rte_types.h"
 165              		.file 11 ".\\SourceFiles\\rte/rte.h"
 166              		.file 12 ".\\SourceFiles\\asw/clock_statemachine_cfg.h"
 167              		.file 13 ".\\SourceFiles\\rte/sc_event_type.h"
 168              		.file 14 "Generated_Source\\PSoC5/ErikaOS_ee_oo_intfunc.inc"
 169              		.file 15 "Generated_Source\\PSoC5/ErikaOS_cortex_mx_ee_context.inc"
 170              		.file 16 "Generated_Source\\PSoC5/ErikaOS_common_ee_primitives.inc"
 171              		.file 17 "Generated_Source\\PSoC5/core_cm3.h"
 172              		.file 18 ".\\SourceFiles\\rte/sp_common.h"
 173              		.file 19 "Generated_Source\\PSoC5/ErikaOS_ee_oo_kernel.inc"
 174              		.file 20 "Generated_Source\\PSoC5/button_2.h"