ARM GAS  C:\Users\JASON\AppData\Local\Temp\ccLhWZR8.s 			page 1


   1              		.syntax unified
   2              		.cpu cortex-m3
   3              		.fpu softvfp
   4              		.eabi_attribute 20, 1
   5              		.eabi_attribute 21, 1
   6              		.eabi_attribute 23, 3
   7              		.eabi_attribute 24, 1
   8              		.eabi_attribute 25, 1
   9              		.eabi_attribute 26, 1
  10              		.eabi_attribute 30, 1
  11              		.eabi_attribute 34, 1
  12              		.eabi_attribute 18, 4
  13              		.thumb
  14              		.syntax unified
  15              		.file	"swc_clock_display.c"
  16              		.text
  17              	.Ltext0:
  18              		.cfi_sections	.debug_frame
  19              		.section	.text.CLOCK_DISPLAY__run,"ax",%progbits
  20              		.align	2
  21              		.global	CLOCK_DISPLAY__run
  22              		.thumb
  23              		.thumb_func
  24              		.type	CLOCK_DISPLAY__run, %function
  25              	CLOCK_DISPLAY__run:
  26              	.LFB131:
  27              		.file 1 "SourceFiles\\asw\\swc_clock_display.c"
   1:SourceFiles\asw/swc_clock_display.c **** 
   2:SourceFiles\asw/swc_clock_display.c **** 
   3:SourceFiles\asw/swc_clock_display.c **** /*
   4:SourceFiles\asw/swc_clock_display.c ****  * Filename: swc_clock_display.c
   5:SourceFiles\asw/swc_clock_display.c ****  *
   6:SourceFiles\asw/swc_clock_display.c ****  * Author: Autogenerated by H-DA RTE Generator, (c) Prof. Fromm
   7:SourceFiles\asw/swc_clock_display.c ****  */
   8:SourceFiles\asw/swc_clock_display.c **** 
   9:SourceFiles\asw/swc_clock_display.c **** #include "project.h"
  10:SourceFiles\asw/swc_clock_display.c **** #include "global.h"
  11:SourceFiles\asw/swc_clock_display.c **** #include "rte.h"
  12:SourceFiles\asw/swc_clock_display.c **** #include "rte_types.h"
  13:SourceFiles\asw/swc_clock_display.c **** #include "swc_clock_display.h"
  14:SourceFiles\asw/swc_clock_display.c **** 
  15:SourceFiles\asw/swc_clock_display.c **** 
  16:SourceFiles\asw/swc_clock_display.c **** 
  17:SourceFiles\asw/swc_clock_display.c **** /* USER CODE START SWC_CLOCK_DISPLAY_INCLUDE */
  18:SourceFiles\asw/swc_clock_display.c **** #include "tft.h"
  19:SourceFiles\asw/swc_clock_display.c **** #include "intToASCII.h"
  20:SourceFiles\asw/swc_clock_display.c **** #include "sc_clock.h"
  21:SourceFiles\asw/swc_clock_display.c **** /* USER CODE END SWC_CLOCK_DISPLAY_INCLUDE */
  22:SourceFiles\asw/swc_clock_display.c **** 
  23:SourceFiles\asw/swc_clock_display.c **** 
  24:SourceFiles\asw/swc_clock_display.c **** #include "sp_common.h"
  25:SourceFiles\asw/swc_clock_display.c **** 
  26:SourceFiles\asw/swc_clock_display.c **** /* USER CODE START SWC_CLOCK_DISPLAY_USERDEFINITIONS */
  27:SourceFiles\asw/swc_clock_display.c **** 
  28:SourceFiles\asw/swc_clock_display.c **** /* USER CODE END SWC_CLOCK_DISPLAY_USERDEFINITIONS */
  29:SourceFiles\asw/swc_clock_display.c **** 
  30:SourceFiles\asw/swc_clock_display.c **** 
ARM GAS  C:\Users\JASON\AppData\Local\Temp\ccLhWZR8.s 			page 2


  31:SourceFiles\asw/swc_clock_display.c **** 
  32:SourceFiles\asw/swc_clock_display.c **** /*
  33:SourceFiles\asw/swc_clock_display.c **** * component: swc_CLOCK_display
  34:SourceFiles\asw/swc_clock_display.c **** * cycletime: 250
  35:SourceFiles\asw/swc_clock_display.c **** * description: Runnable for clock display.
  36:SourceFiles\asw/swc_clock_display.c **** * events: 
  37:SourceFiles\asw/swc_clock_display.c **** * name: CLOCK_DISPLAY__run
  38:SourceFiles\asw/swc_clock_display.c **** * shortname: 
  39:SourceFiles\asw/swc_clock_display.c **** * signalIN: so_CLOCK
  40:SourceFiles\asw/swc_clock_display.c **** * signalOUT: 
  41:SourceFiles\asw/swc_clock_display.c **** * task: tsk_display
  42:SourceFiles\asw/swc_clock_display.c **** */
  43:SourceFiles\asw/swc_clock_display.c **** void CLOCK_DISPLAY__run(RTE_event ev){
  28              		.loc 1 43 0
  29              		.cfi_startproc
  30              		@ args = 0, pretend = 0, frame = 56
  31              		@ frame_needed = 0, uses_anonymous_args = 0
  32              	.LVL0:
  33 0000 30B5     		push	{r4, r5, lr}
  34              		.cfi_def_cfa_offset 12
  35              		.cfi_offset 4, -12
  36              		.cfi_offset 5, -8
  37              		.cfi_offset 14, -4
  38 0002 8FB0     		sub	sp, sp, #60
  39              		.cfi_def_cfa_offset 72
  40              	.LVL1:
  41              	.LBB4:
  42              	.LBB5:
  43              		.file 2 ".\\SourceFiles\\rte/sc_clock.h"
   1:.\SourceFiles\rte/sc_clock.h **** 
   2:.\SourceFiles\rte/sc_clock.h **** 
   3:.\SourceFiles\rte/sc_clock.h **** /**
   4:.\SourceFiles\rte/sc_clock.h **** *  file    SC_CLOCK_signal.h
   5:.\SourceFiles\rte/sc_clock.h **** *
   6:.\SourceFiles\rte/sc_clock.h **** *  brief   signal base class for signal sc_clock
   7:.\SourceFiles\rte/sc_clock.h **** *
   8:.\SourceFiles\rte/sc_clock.h **** *  author  Autogenerated, Peter Fromm       <peter.fromm@h-da.de>
   9:.\SourceFiles\rte/sc_clock.h **** *
  10:.\SourceFiles\rte/sc_clock.h **** *
  11:.\SourceFiles\rte/sc_clock.h **** */
  12:.\SourceFiles\rte/sc_clock.h **** 
  13:.\SourceFiles\rte/sc_clock.h **** /*
  14:.\SourceFiles\rte/sc_clock.h **** * description: Signalclass of the clock containig the hours and minutes.
  15:.\SourceFiles\rte/sc_clock.h **** * name: sc_CLOCK
  16:.\SourceFiles\rte/sc_clock.h **** * shortname: CLOCK
  17:.\SourceFiles\rte/sc_clock.h **** */
  18:.\SourceFiles\rte/sc_clock.h **** 
  19:.\SourceFiles\rte/sc_clock.h **** #ifndef SC_CLOCK_SIGNAL_H_INCLUDED
  20:.\SourceFiles\rte/sc_clock.h **** #define SC_CLOCK_SIGNAL_H_INCLUDED
  21:.\SourceFiles\rte/sc_clock.h **** 
  22:.\SourceFiles\rte/sc_clock.h **** /*================================================[ public includes  ]=============================
  23:.\SourceFiles\rte/sc_clock.h **** #include "global.h"
  24:.\SourceFiles\rte/sc_clock.h **** #include "project.h"
  25:.\SourceFiles\rte/sc_clock.h **** #include "rte.h"
  26:.\SourceFiles\rte/sc_clock.h **** #include "rte_types.h"
  27:.\SourceFiles\rte/sc_clock.h **** 
  28:.\SourceFiles\rte/sc_clock.h **** #include "sc_clock_type.h"
ARM GAS  C:\Users\JASON\AppData\Local\Temp\ccLhWZR8.s 			page 3


  29:.\SourceFiles\rte/sc_clock.h **** 
  30:.\SourceFiles\rte/sc_clock.h **** 
  31:.\SourceFiles\rte/sc_clock.h **** /**************************************************************************************************
  32:.\SourceFiles\rte/sc_clock.h **** /* The driver API block																						*/
  33:.\SourceFiles\rte/sc_clock.h **** /**************************************************************************************************
  34:.\SourceFiles\rte/sc_clock.h ****                                                                                                    
  35:.\SourceFiles\rte/sc_clock.h **** /**
  36:.\SourceFiles\rte/sc_clock.h ****  *  Definition of function types for driver interfaces.
  37:.\SourceFiles\rte/sc_clock.h ****  *  I-Port
  38:.\SourceFiles\rte/sc_clock.h ****  */
  39:.\SourceFiles\rte/sc_clock.h **** typedef RC_t (*SC_CLOCK_driverIn_t)(SC_CLOCK_data_t * const);
  40:.\SourceFiles\rte/sc_clock.h **** 
  41:.\SourceFiles\rte/sc_clock.h **** /**
  42:.\SourceFiles\rte/sc_clock.h ****  *  Definition of function types for driver interfaces.
  43:.\SourceFiles\rte/sc_clock.h ****  *  O-Port
  44:.\SourceFiles\rte/sc_clock.h ****  */
  45:.\SourceFiles\rte/sc_clock.h **** typedef RC_t (*SC_CLOCK_driverOut_t)( const SC_CLOCK_data_t * const);
  46:.\SourceFiles\rte/sc_clock.h **** 
  47:.\SourceFiles\rte/sc_clock.h **** 
  48:.\SourceFiles\rte/sc_clock.h **** /**************************************************************************************************
  49:.\SourceFiles\rte/sc_clock.h **** /* The signal configuration API block																				*/
  50:.\SourceFiles\rte/sc_clock.h **** /**************************************************************************************************
  51:.\SourceFiles\rte/sc_clock.h **** 
  52:.\SourceFiles\rte/sc_clock.h **** /**
  53:.\SourceFiles\rte/sc_clock.h ****  * Instances of the struct SC_CLOCK_cfg_t represent the signal object configuration.
  54:.\SourceFiles\rte/sc_clock.h ****  */
  55:.\SourceFiles\rte/sc_clock.h **** struct SC_CLOCK_cfg_s
  56:.\SourceFiles\rte/sc_clock.h **** {
  57:.\SourceFiles\rte/sc_clock.h ****     /**
  58:.\SourceFiles\rte/sc_clock.h ****      * Function pointer to the input driver
  59:.\SourceFiles\rte/sc_clock.h ****      */
  60:.\SourceFiles\rte/sc_clock.h ****     SC_CLOCK_driverIn_t const inDriver;
  61:.\SourceFiles\rte/sc_clock.h **** 
  62:.\SourceFiles\rte/sc_clock.h ****     /**
  63:.\SourceFiles\rte/sc_clock.h ****      * Function pointer to the output driver table
  64:.\SourceFiles\rte/sc_clock.h ****      */
  65:.\SourceFiles\rte/sc_clock.h ****    SC_CLOCK_driverOut_t const outDriver;
  66:.\SourceFiles\rte/sc_clock.h ****    
  67:.\SourceFiles\rte/sc_clock.h ****     /**
  68:.\SourceFiles\rte/sc_clock.h ****      * Event onUpdate
  69:.\SourceFiles\rte/sc_clock.h ****      */
  70:.\SourceFiles\rte/sc_clock.h ****     EventMaskType const evOnUpdate;
  71:.\SourceFiles\rte/sc_clock.h ****     
  72:.\SourceFiles\rte/sc_clock.h ****     
  73:.\SourceFiles\rte/sc_clock.h ****     /**
  74:.\SourceFiles\rte/sc_clock.h ****      * Event onError
  75:.\SourceFiles\rte/sc_clock.h ****      */
  76:.\SourceFiles\rte/sc_clock.h ****     EventMaskType const evOnError;
  77:.\SourceFiles\rte/sc_clock.h ****     
  78:.\SourceFiles\rte/sc_clock.h ****     /**
  79:.\SourceFiles\rte/sc_clock.h ****      * Task Count onUpdate
  80:.\SourceFiles\rte/sc_clock.h ****      */
  81:.\SourceFiles\rte/sc_clock.h ****     size_t const onUpdateTaskCount;
  82:.\SourceFiles\rte/sc_clock.h **** 
  83:.\SourceFiles\rte/sc_clock.h ****     /**
  84:.\SourceFiles\rte/sc_clock.h ****      * Task List onUpdate
  85:.\SourceFiles\rte/sc_clock.h ****      */
ARM GAS  C:\Users\JASON\AppData\Local\Temp\ccLhWZR8.s 			page 4


  86:.\SourceFiles\rte/sc_clock.h ****     TaskTypeArray* const onUpdateTasks;
  87:.\SourceFiles\rte/sc_clock.h ****     
  88:.\SourceFiles\rte/sc_clock.h ****     /**
  89:.\SourceFiles\rte/sc_clock.h ****      * Task Count onError
  90:.\SourceFiles\rte/sc_clock.h ****      */
  91:.\SourceFiles\rte/sc_clock.h ****     size_t const onErrorTaskCount;
  92:.\SourceFiles\rte/sc_clock.h **** 
  93:.\SourceFiles\rte/sc_clock.h ****     /**
  94:.\SourceFiles\rte/sc_clock.h ****      * Task List onError
  95:.\SourceFiles\rte/sc_clock.h ****      */
  96:.\SourceFiles\rte/sc_clock.h ****     TaskTypeArray* const onErrorTasks;
  97:.\SourceFiles\rte/sc_clock.h **** 	
  98:.\SourceFiles\rte/sc_clock.h **** 	
  99:.\SourceFiles\rte/sc_clock.h **** 	/**
 100:.\SourceFiles\rte/sc_clock.h **** 	 * Ressourse is active? We need an additional boolean as a ressource value 0 is valid.
 101:.\SourceFiles\rte/sc_clock.h **** 	 */
 102:.\SourceFiles\rte/sc_clock.h **** 	 boolean_t const resourceActive;
 103:.\SourceFiles\rte/sc_clock.h **** 	 
 104:.\SourceFiles\rte/sc_clock.h **** 	/**
 105:.\SourceFiles\rte/sc_clock.h **** 	 * Ressourse 
 106:.\SourceFiles\rte/sc_clock.h **** 	 */
 107:.\SourceFiles\rte/sc_clock.h **** 	 ResourceType const resource;
 108:.\SourceFiles\rte/sc_clock.h **** 
 109:.\SourceFiles\rte/sc_clock.h **** };                                                                                                 
 110:.\SourceFiles\rte/sc_clock.h **** typedef const struct SC_CLOCK_cfg_s SC_CLOCK_cfg_t;
 111:.\SourceFiles\rte/sc_clock.h ****                               
 112:.\SourceFiles\rte/sc_clock.h **** /**************************************************************************************************
 113:.\SourceFiles\rte/sc_clock.h **** /* The data interface block																							*/
 114:.\SourceFiles\rte/sc_clock.h **** /**************************************************************************************************
 115:.\SourceFiles\rte/sc_clock.h **** 
 116:.\SourceFiles\rte/sc_clock.h ****                                                                                                    
 117:.\SourceFiles\rte/sc_clock.h **** 							  
 118:.\SourceFiles\rte/sc_clock.h **** /**
 119:.\SourceFiles\rte/sc_clock.h ****  * Instances of the struct SC_CLOCK_t represent the signal objects.
 120:.\SourceFiles\rte/sc_clock.h ****  * A signal object contains the current application value 'value' as well as relevant meta data.
 121:.\SourceFiles\rte/sc_clock.h ****  */
 122:.\SourceFiles\rte/sc_clock.h **** struct SC_CLOCK_s
 123:.\SourceFiles\rte/sc_clock.h **** {                                                                                                  
 124:.\SourceFiles\rte/sc_clock.h **** 
 125:.\SourceFiles\rte/sc_clock.h **** 	/**
 126:.\SourceFiles\rte/sc_clock.h **** 	 * Data buffer for the application value
 127:.\SourceFiles\rte/sc_clock.h **** 	 */
 128:.\SourceFiles\rte/sc_clock.h ****     SC_CLOCK_data_t value;
 129:.\SourceFiles\rte/sc_clock.h **** 
 130:.\SourceFiles\rte/sc_clock.h ****     /**
 131:.\SourceFiles\rte/sc_clock.h ****      * Current signal status
 132:.\SourceFiles\rte/sc_clock.h ****      */
 133:.\SourceFiles\rte/sc_clock.h ****     RTE_signalStatus_t status;
 134:.\SourceFiles\rte/sc_clock.h **** 
 135:.\SourceFiles\rte/sc_clock.h ****     /**
 136:.\SourceFiles\rte/sc_clock.h ****      * Current age of the signal (in calling cycles)
 137:.\SourceFiles\rte/sc_clock.h ****      */
 138:.\SourceFiles\rte/sc_clock.h ****     uint32_t age;
 139:.\SourceFiles\rte/sc_clock.h **** 
 140:.\SourceFiles\rte/sc_clock.h ****     /**
 141:.\SourceFiles\rte/sc_clock.h ****      * Pointer to the signal configuration
 142:.\SourceFiles\rte/sc_clock.h ****      */
ARM GAS  C:\Users\JASON\AppData\Local\Temp\ccLhWZR8.s 			page 5


 143:.\SourceFiles\rte/sc_clock.h **** 	const SC_CLOCK_cfg_t * const    pSigCfg;
 144:.\SourceFiles\rte/sc_clock.h **** 
 145:.\SourceFiles\rte/sc_clock.h **** };                                                                                                 
 146:.\SourceFiles\rte/sc_clock.h **** typedef struct SC_CLOCK_s SC_CLOCK_t;
 147:.\SourceFiles\rte/sc_clock.h **** 
 148:.\SourceFiles\rte/sc_clock.h **** /**************************************************************************************************
 149:.\SourceFiles\rte/sc_clock.h **** /* Signal initialisation   																							*/
 150:.\SourceFiles\rte/sc_clock.h **** /**************************************************************************************************
 151:.\SourceFiles\rte/sc_clock.h **** 
 152:.\SourceFiles\rte/sc_clock.h **** /**
 153:.\SourceFiles\rte/sc_clock.h ****  * Initializes a signal instance with a passed init value.
 154:.\SourceFiles\rte/sc_clock.h ****  * Depending on the configured conversion or scaling function the raw_value will be calculated.
 155:.\SourceFiles\rte/sc_clock.h ****  * Signal status will change from RTE_SIGNALSTATUS_STARTUP to RTE_SIGNALSTATUS_INITIALIZED.
 156:.\SourceFiles\rte/sc_clock.h ****  *
 157:.\SourceFiles\rte/sc_clock.h ****  * @param  SC_CLOCK_t * const signal: Pointer to the signal object which will be initialised
 158:.\SourceFiles\rte/sc_clock.h ****  * @param const sc_clock_data_t * const value: Pointer to initial value of the application data
 159:.\SourceFiles\rte/sc_clock.h ****  * @return RC_t: standard return code, currently only RC_SUCCESS
 160:.\SourceFiles\rte/sc_clock.h ****  *
 161:.\SourceFiles\rte/sc_clock.h ****  **/
 162:.\SourceFiles\rte/sc_clock.h **** inline RC_t RTE_SC_CLOCK_init( SC_CLOCK_t * const signal, const SC_CLOCK_data_t * const value )
 163:.\SourceFiles\rte/sc_clock.h **** {                                                                                                  
 164:.\SourceFiles\rte/sc_clock.h **** 
 165:.\SourceFiles\rte/sc_clock.h ****    RC_t ret = RC_SUCCESS;
 166:.\SourceFiles\rte/sc_clock.h **** 
 167:.\SourceFiles\rte/sc_clock.h ****    //Set value and raw value
 168:.\SourceFiles\rte/sc_clock.h ****    signal->value  = *value;
 169:.\SourceFiles\rte/sc_clock.h ****    signal->age    = 0;
 170:.\SourceFiles\rte/sc_clock.h ****    signal->status = RTE_SIGNALSTATUS_INITIALIZED;
 171:.\SourceFiles\rte/sc_clock.h **** 
 172:.\SourceFiles\rte/sc_clock.h ****    return ret;
 173:.\SourceFiles\rte/sc_clock.h **** }
 174:.\SourceFiles\rte/sc_clock.h **** 
 175:.\SourceFiles\rte/sc_clock.h **** /**************************************************************************************************
 176:.\SourceFiles\rte/sc_clock.h **** /* Status and timeout control																						*/
 177:.\SourceFiles\rte/sc_clock.h **** /**************************************************************************************************
 178:.\SourceFiles\rte/sc_clock.h **** 
 179:.\SourceFiles\rte/sc_clock.h **** /**
 180:.\SourceFiles\rte/sc_clock.h ****  *  Returns the current signal status of the passed signal instance.
 181:.\SourceFiles\rte/sc_clock.h ****  *
 182:.\SourceFiles\rte/sc_clock.h ****  * @param  SC_CLOCK_t * const signal: Pointer to the signal object
 183:.\SourceFiles\rte/sc_clock.h ****  * @return  sig_status_t: The current signal status
 184:.\SourceFiles\rte/sc_clock.h ****  *
 185:.\SourceFiles\rte/sc_clock.h ****  **/
 186:.\SourceFiles\rte/sc_clock.h **** inline RTE_signalStatus_t RTE_SC_CLOCK_getStatus( const SC_CLOCK_t * const signal )
 187:.\SourceFiles\rte/sc_clock.h **** {
 188:.\SourceFiles\rte/sc_clock.h ****    return signal->status;
 189:.\SourceFiles\rte/sc_clock.h **** }
 190:.\SourceFiles\rte/sc_clock.h **** 
 191:.\SourceFiles\rte/sc_clock.h **** 
 192:.\SourceFiles\rte/sc_clock.h **** /**
 193:.\SourceFiles\rte/sc_clock.h ****  *  Sets a new signal status of the passed signal instance by passing the new status.
 194:.\SourceFiles\rte/sc_clock.h ****  *
 195:.\SourceFiles\rte/sc_clock.h ****  * @param  SC_CLOCK_t * const signal: Pointer to the signal object
 196:.\SourceFiles\rte/sc_clock.h ****  * @param  const sig_status_t status: New signal status
 197:.\SourceFiles\rte/sc_clock.h ****  * @return RC_t: standard return code, currently only RC_SUCCESS
 198:.\SourceFiles\rte/sc_clock.h ****  *
 199:.\SourceFiles\rte/sc_clock.h ****  */
ARM GAS  C:\Users\JASON\AppData\Local\Temp\ccLhWZR8.s 			page 6


 200:.\SourceFiles\rte/sc_clock.h **** inline RC_t RTE_SC_CLOCK_setStatus( SC_CLOCK_t * const signal, const RTE_signalStatus_t status )
 201:.\SourceFiles\rte/sc_clock.h **** {
 202:.\SourceFiles\rte/sc_clock.h ****    signal->status = status;
 203:.\SourceFiles\rte/sc_clock.h ****    size_t taskNum=0;
 204:.\SourceFiles\rte/sc_clock.h ****    
 205:.\SourceFiles\rte/sc_clock.h ****    //Fire error events in case of invalid state
 206:.\SourceFiles\rte/sc_clock.h ****    if (signal->status == RTE_SIGNALSTATUS_INVALID)
 207:.\SourceFiles\rte/sc_clock.h ****    {
 208:.\SourceFiles\rte/sc_clock.h **** 	    //Pointer to the Taskarray, containing the tasks receiving the onUpdate events
 209:.\SourceFiles\rte/sc_clock.h **** 		TaskTypeArray* pTaskArray = signal->pSigCfg->onErrorTasks;
 210:.\SourceFiles\rte/sc_clock.h **** 
 211:.\SourceFiles\rte/sc_clock.h **** 		if (NULL!=signal->pSigCfg->evOnError && NULL != pTaskArray){
 212:.\SourceFiles\rte/sc_clock.h **** 			for( taskNum=0 ; taskNum < signal->pSigCfg->onErrorTaskCount ;taskNum++){
 213:.\SourceFiles\rte/sc_clock.h **** 				TaskType task = (*pTaskArray)[taskNum];
 214:.\SourceFiles\rte/sc_clock.h **** 				SetEvent( task, signal->pSigCfg->evOnError);
 215:.\SourceFiles\rte/sc_clock.h **** 			}
 216:.\SourceFiles\rte/sc_clock.h **** 		}
 217:.\SourceFiles\rte/sc_clock.h ****    }
 218:.\SourceFiles\rte/sc_clock.h ****    
 219:.\SourceFiles\rte/sc_clock.h ****    return RC_SUCCESS;
 220:.\SourceFiles\rte/sc_clock.h **** }
 221:.\SourceFiles\rte/sc_clock.h **** 
 222:.\SourceFiles\rte/sc_clock.h **** 
 223:.\SourceFiles\rte/sc_clock.h **** /**
 224:.\SourceFiles\rte/sc_clock.h ****  * Returns the count of refreshing trials (refresh, set or set_raw) that failed.
 225:.\SourceFiles\rte/sc_clock.h ****  * Prerquisite: The signal is refreshed cyclically
 226:.\SourceFiles\rte/sc_clock.h ****  *
 227:.\SourceFiles\rte/sc_clock.h ****  * @param  SC_CLOCK_t * const signal: Pointer to the signal object
 228:.\SourceFiles\rte/sc_clock.h ****  * @return uint32_t: Number of cycles since the signal has been updated for the last time
 229:.\SourceFiles\rte/sc_clock.h ****  */
 230:.\SourceFiles\rte/sc_clock.h **** inline uint32_t RTE_SC_CLOCK_getAge( const SC_CLOCK_t * const signal )
 231:.\SourceFiles\rte/sc_clock.h **** {
 232:.\SourceFiles\rte/sc_clock.h ****    return signal->age;
 233:.\SourceFiles\rte/sc_clock.h **** }
 234:.\SourceFiles\rte/sc_clock.h **** 
 235:.\SourceFiles\rte/sc_clock.h **** /**
 236:.\SourceFiles\rte/sc_clock.h ****  * Should be called by application or driver if no new value can be provided.
 237:.\SourceFiles\rte/sc_clock.h ****  * @param  SC_CLOCK_t * const signal: Pointer to the signal object
 238:.\SourceFiles\rte/sc_clock.h ****  * @param uint32_t increment: incrementvalue, typically in [ms]
 239:.\SourceFiles\rte/sc_clock.h ****  * @return void
 240:.\SourceFiles\rte/sc_clock.h ****  */
 241:.\SourceFiles\rte/sc_clock.h **** inline void RTE_SC_CLOCK_incAge(  SC_CLOCK_t * const signal , uint32_t increment)
 242:.\SourceFiles\rte/sc_clock.h **** {
 243:.\SourceFiles\rte/sc_clock.h **** 	   //Hack....
 244:.\SourceFiles\rte/sc_clock.h **** 	   if ( 0xFFFF0000 > (signal->age + increment) )
 245:.\SourceFiles\rte/sc_clock.h **** 	   {
 246:.\SourceFiles\rte/sc_clock.h **** 	      signal->age += increment;
 247:.\SourceFiles\rte/sc_clock.h **** 	   }
 248:.\SourceFiles\rte/sc_clock.h **** }
 249:.\SourceFiles\rte/sc_clock.h **** 
 250:.\SourceFiles\rte/sc_clock.h **** 
 251:.\SourceFiles\rte/sc_clock.h **** /**************************************************************************************************
 252:.\SourceFiles\rte/sc_clock.h **** /* Application Data read/write Interface																			*/
 253:.\SourceFiles\rte/sc_clock.h **** /**************************************************************************************************
 254:.\SourceFiles\rte/sc_clock.h **** 
 255:.\SourceFiles\rte/sc_clock.h **** /**
 256:.\SourceFiles\rte/sc_clock.h ****  * Returns the current application value of the passed signal instance.
ARM GAS  C:\Users\JASON\AppData\Local\Temp\ccLhWZR8.s 			page 7


 257:.\SourceFiles\rte/sc_clock.h ****  *
 258:.\SourceFiles\rte/sc_clock.h ****  * @param  SC_CLOCK_t * const signal: Pointer to the signal object
 259:.\SourceFiles\rte/sc_clock.h ****  * @return sc_clock_data_t: current value of the application data buffer
 260:.\SourceFiles\rte/sc_clock.h ****  *
 261:.\SourceFiles\rte/sc_clock.h ****  **/
 262:.\SourceFiles\rte/sc_clock.h **** inline SC_CLOCK_data_t RTE_SC_CLOCK_get( const SC_CLOCK_t * const signal )
 263:.\SourceFiles\rte/sc_clock.h **** {               
 264:.\SourceFiles\rte/sc_clock.h ****    //Todo: Critical region cannot be protected using return values																						
 265:.\SourceFiles\rte/sc_clock.h ****    return signal->value;                                                                           
  44              		.loc 2 265 0
  45 0004 6C46     		mov	r4, sp
  46 0006 714D     		ldr	r5, .L11
  47 0008 0FCD     		ldmia	r5!, {r0, r1, r2, r3}
  48              	.LVL2:
  49 000a 0FC4     		stmia	r4!, {r0, r1, r2, r3}
  50 000c 0FCD     		ldmia	r5!, {r0, r1, r2, r3}
  51 000e 0FC4     		stmia	r4!, {r0, r1, r2, r3}
  52 0010 0FCD     		ldmia	r5!, {r0, r1, r2, r3}
  53 0012 0FC4     		stmia	r4!, {r0, r1, r2, r3}
  54 0014 95E80300 		ldmia	r5, {r0, r1}
  55 0018 84E80300 		stmia	r4, {r0, r1}
  56              	.LVL3:
  57              	.LBE5:
  58              	.LBE4:
  44:SourceFiles\asw/swc_clock_display.c **** 	
  45:SourceFiles\asw/swc_clock_display.c **** 	/* USER CODE START CLOCK_DISPLAY__run */
  46:SourceFiles\asw/swc_clock_display.c ****     
  47:SourceFiles\asw/swc_clock_display.c ****     
  48:SourceFiles\asw/swc_clock_display.c ****     
  49:SourceFiles\asw/swc_clock_display.c **** 	// Read the clock signal data
  50:SourceFiles\asw/swc_clock_display.c ****     SC_CLOCK_data_t clock = RTE_SC_CLOCK_get(&SO_CLOCK_signal);
  51:SourceFiles\asw/swc_clock_display.c ****     // local variable to store the ascii converted data for display.
  52:SourceFiles\asw/swc_clock_display.c ****     static char asciiConvert[30];
  53:SourceFiles\asw/swc_clock_display.c ****     
  54:SourceFiles\asw/swc_clock_display.c **** 	// local variables for blinking of the ":' on tft display.
  55:SourceFiles\asw/swc_clock_display.c ****     static uint16_t blinkCounter = 0;
  56:SourceFiles\asw/swc_clock_display.c ****     static uint16_t blink = 0;
  57:SourceFiles\asw/swc_clock_display.c ****     static char blinkingCharacter = ':'; 
  58:SourceFiles\asw/swc_clock_display.c ****     
  59:SourceFiles\asw/swc_clock_display.c ****     // Set cursor and display color associated with 
  60:SourceFiles\asw/swc_clock_display.c ****     // either display or editing mode for hour widget.
  61:SourceFiles\asw/swc_clock_display.c ****     // Convert to ascii and display on tft.
  62:SourceFiles\asw/swc_clock_display.c ****     TFT_setCursor(0+15, ((TFT_height()/2) - 8));
  59              		.loc 1 62 0
  60 001c FFF7FEFF 		bl	TFT_height
  61              	.LVL4:
  62 0020 00EBD070 		add	r0, r0, r0, lsr #31
  63 0024 4110     		asrs	r1, r0, #1
  64 0026 0839     		subs	r1, r1, #8
  65 0028 09B2     		sxth	r1, r1
  66 002a 0F20     		movs	r0, #15
  67 002c FFF7FEFF 		bl	TFT_setCursor
  68              	.LVL5:
  63:SourceFiles\asw/swc_clock_display.c ****     TFT_setColors(clock.m_hours.m_font.foreground, clock.m_hours.m_font.background);
  69              		.loc 1 63 0
  70 0030 BDF82010 		ldrh	r1, [sp, #32]
  71 0034 BDF81E00 		ldrh	r0, [sp, #30]
ARM GAS  C:\Users\JASON\AppData\Local\Temp\ccLhWZR8.s 			page 8


  72 0038 FFF7FEFF 		bl	TFT_setColors
  73              	.LVL6:
  64:SourceFiles\asw/swc_clock_display.c ****     intToASCII((uint32_t)clock.m_hours.m_value, (uint8_t*)&asciiConvert, 2);
  74              		.loc 1 64 0
  75 003c 644D     		ldr	r5, .L11+4
  76 003e 0222     		movs	r2, #2
  77 0040 2946     		mov	r1, r5
  78 0042 BDF81C00 		ldrh	r0, [sp, #28]
  79 0046 FFF7FEFF 		bl	intToASCII
  80              	.LVL7:
  65:SourceFiles\asw/swc_clock_display.c ****     TFT_print(asciiConvert);
  81              		.loc 1 65 0
  82 004a 2846     		mov	r0, r5
  83 004c FFF7FEFF 		bl	TFT_print
  84              	.LVL8:
  66:SourceFiles\asw/swc_clock_display.c ****     
  67:SourceFiles\asw/swc_clock_display.c ****     // Set cursor and display color associated with ':' display.
  68:SourceFiles\asw/swc_clock_display.c ****     // The blinking of ':' on the tft is achieved by toggling logic.
  69:SourceFiles\asw/swc_clock_display.c ****     // The toggle occurs at every call of this runnable viz. 250ms.
  70:SourceFiles\asw/swc_clock_display.c ****     // Convert to ascii and display on tft.
  71:SourceFiles\asw/swc_clock_display.c ****     TFT_setCursor((TFT_width()/2) - 12,((TFT_height()/2) - 8));
  85              		.loc 1 71 0
  86 0050 FFF7FEFF 		bl	TFT_width
  87              	.LVL9:
  88 0054 0446     		mov	r4, r0
  89 0056 FFF7FEFF 		bl	TFT_height
  90              	.LVL10:
  91 005a 00EBD070 		add	r0, r0, r0, lsr #31
  92 005e 4110     		asrs	r1, r0, #1
  93 0060 0839     		subs	r1, r1, #8
  94 0062 04EBD470 		add	r0, r4, r4, lsr #31
  95 0066 4010     		asrs	r0, r0, #1
  96 0068 0C38     		subs	r0, r0, #12
  97 006a 09B2     		sxth	r1, r1
  98 006c 00B2     		sxth	r0, r0
  99 006e FFF7FEFF 		bl	TFT_setCursor
 100              	.LVL11:
  72:SourceFiles\asw/swc_clock_display.c ****     TFT_setColors(WHITE, BLACK);  
 101              		.loc 1 72 0
 102 0072 0021     		movs	r1, #0
 103 0074 4FF6FF70 		movw	r0, #65535
 104 0078 FFF7FEFF 		bl	TFT_setColors
 105              	.LVL12:
  73:SourceFiles\asw/swc_clock_display.c ****     blinkCounter        =   (blinkCounter == 1)? 0 : (blinkCounter + 1);
 106              		.loc 1 73 0
 107 007c EB8B     		ldrh	r3, [r5, #30]
 108 007e 012B     		cmp	r3, #1
 109 0080 02D0     		beq	.L8
 110              		.loc 1 73 0 is_stmt 0 discriminator 1
 111 0082 0133     		adds	r3, r3, #1
 112 0084 9BB2     		uxth	r3, r3
 113 0086 00E0     		b	.L2
 114              	.L8:
 115              		.loc 1 73 0
 116 0088 0023     		movs	r3, #0
 117              	.L2:
 118              		.loc 1 73 0 discriminator 4
ARM GAS  C:\Users\JASON\AppData\Local\Temp\ccLhWZR8.s 			page 9


 119 008a 514A     		ldr	r2, .L11+4
 120 008c D383     		strh	r3, [r2, #30]	@ movhi
  74:SourceFiles\asw/swc_clock_display.c ****     blink               =   (blinkCounter == 0)? (!blink) : blink;
 121              		.loc 1 74 0 is_stmt 1 discriminator 4
 122 008e 23B9     		cbnz	r3, .L3
 123              		.loc 1 74 0 is_stmt 0 discriminator 1
 124 0090 138C     		ldrh	r3, [r2, #32]
 125 0092 B3FA83F3 		clz	r3, r3
 126 0096 5B09     		lsrs	r3, r3, #5
 127 0098 01E0     		b	.L4
 128              	.L3:
 129              		.loc 1 74 0 discriminator 2
 130 009a 4D4B     		ldr	r3, .L11+4
 131 009c 1B8C     		ldrh	r3, [r3, #32]
 132              	.L4:
 133              		.loc 1 74 0 discriminator 4
 134 009e 4C4A     		ldr	r2, .L11+4
 135 00a0 1384     		strh	r3, [r2, #32]	@ movhi
  75:SourceFiles\asw/swc_clock_display.c ****     blinkingCharacter   =   (blink == 0)? ':' : ' ';  
 136              		.loc 1 75 0 is_stmt 1 discriminator 4
 137 00a2 0BB9     		cbnz	r3, .L9
 138              		.loc 1 75 0 is_stmt 0
 139 00a4 3A20     		movs	r0, #58
 140 00a6 00E0     		b	.L5
 141              	.L9:
 142 00a8 2020     		movs	r0, #32
 143              	.L5:
  76:SourceFiles\asw/swc_clock_display.c ****     TFT_write(blinkingCharacter);
 144              		.loc 1 76 0 is_stmt 1 discriminator 4
 145 00aa FFF7FEFF 		bl	TFT_write
 146              	.LVL13:
  77:SourceFiles\asw/swc_clock_display.c ****     
  78:SourceFiles\asw/swc_clock_display.c ****     // Set cursor and display color associated with 
  79:SourceFiles\asw/swc_clock_display.c ****     // either display or editing mode for minute widget.
  80:SourceFiles\asw/swc_clock_display.c ****     // Convert to ascii and display on tft.
  81:SourceFiles\asw/swc_clock_display.c ****     TFT_setCursor((2 * TFT_width()/3) - 12,((TFT_height()/2) - 8));
 147              		.loc 1 81 0 discriminator 4
 148 00ae FFF7FEFF 		bl	TFT_width
 149              	.LVL14:
 150 00b2 4000     		lsls	r0, r0, #1
 151 00b4 474B     		ldr	r3, .L11+8
 152 00b6 83FB0023 		smull	r2, r3, r3, r0
 153 00ba A3EBE074 		sub	r4, r3, r0, asr #31
 154 00be FFF7FEFF 		bl	TFT_height
 155              	.LVL15:
 156 00c2 00EBD070 		add	r0, r0, r0, lsr #31
 157 00c6 4110     		asrs	r1, r0, #1
 158 00c8 0839     		subs	r1, r1, #8
 159 00ca A4F10C00 		sub	r0, r4, #12
 160 00ce 09B2     		sxth	r1, r1
 161 00d0 00B2     		sxth	r0, r0
 162 00d2 FFF7FEFF 		bl	TFT_setCursor
 163              	.LVL16:
  82:SourceFiles\asw/swc_clock_display.c ****     TFT_setColors(clock.m_minutes.m_font.foreground, clock.m_minutes.m_font.background);
 164              		.loc 1 82 0 discriminator 4
 165 00d6 BDF83410 		ldrh	r1, [sp, #52]
 166 00da BDF83200 		ldrh	r0, [sp, #50]
ARM GAS  C:\Users\JASON\AppData\Local\Temp\ccLhWZR8.s 			page 10


 167 00de FFF7FEFF 		bl	TFT_setColors
 168              	.LVL17:
  83:SourceFiles\asw/swc_clock_display.c ****     intToASCII((uint32_t)clock.m_minutes.m_value, (uint8_t*)&asciiConvert, 2);
 169              		.loc 1 83 0 discriminator 4
 170 00e2 3B4C     		ldr	r4, .L11+4
 171 00e4 0222     		movs	r2, #2
 172 00e6 2146     		mov	r1, r4
 173 00e8 BDF83000 		ldrh	r0, [sp, #48]
 174 00ec FFF7FEFF 		bl	intToASCII
 175              	.LVL18:
  84:SourceFiles\asw/swc_clock_display.c ****     TFT_print(asciiConvert);
 176              		.loc 1 84 0 discriminator 4
 177 00f0 2046     		mov	r0, r4
 178 00f2 FFF7FEFF 		bl	TFT_print
 179              	.LVL19:
  85:SourceFiles\asw/swc_clock_display.c ****         
  86:SourceFiles\asw/swc_clock_display.c ****     if(blink == 0)
 180              		.loc 1 86 0 discriminator 4
 181 00f6 238C     		ldrh	r3, [r4, #32]
 182 00f8 8BBB     		cbnz	r3, .L6
  87:SourceFiles\asw/swc_clock_display.c ****     {
  88:SourceFiles\asw/swc_clock_display.c ****         TFT_drawCircle(TFT_width()/2, TFT_height()/2, (TFT_width()/2) - 6, DARKBLUE);
 183              		.loc 1 88 0
 184 00fa FFF7FEFF 		bl	TFT_width
 185              	.LVL20:
 186 00fe 0446     		mov	r4, r0
 187 0100 FFF7FEFF 		bl	TFT_height
 188              	.LVL21:
 189 0104 0546     		mov	r5, r0
 190 0106 FFF7FEFF 		bl	TFT_width
 191              	.LVL22:
 192 010a 00EBD070 		add	r0, r0, r0, lsr #31
 193 010e 4210     		asrs	r2, r0, #1
 194 0110 063A     		subs	r2, r2, #6
 195 0112 05EBD571 		add	r1, r5, r5, lsr #31
 196 0116 04EBD470 		add	r0, r4, r4, lsr #31
 197 011a 4FF28933 		movw	r3, #62345
 198 011e 12B2     		sxth	r2, r2
 199 0120 41F34F01 		sbfx	r1, r1, #1, #16
 200 0124 40F34F00 		sbfx	r0, r0, #1, #16
 201 0128 FFF7FEFF 		bl	TFT_drawCircle
 202              	.LVL23:
  89:SourceFiles\asw/swc_clock_display.c ****         TFT_drawCircle(TFT_width()/2, TFT_height()/2, (TFT_width()/2) - 3, RED);
 203              		.loc 1 89 0
 204 012c FFF7FEFF 		bl	TFT_width
 205              	.LVL24:
 206 0130 0446     		mov	r4, r0
 207 0132 FFF7FEFF 		bl	TFT_height
 208              	.LVL25:
 209 0136 0546     		mov	r5, r0
 210 0138 FFF7FEFF 		bl	TFT_width
 211              	.LVL26:
 212 013c 00EBD070 		add	r0, r0, r0, lsr #31
 213 0140 4210     		asrs	r2, r0, #1
 214 0142 033A     		subs	r2, r2, #3
 215 0144 05EBD571 		add	r1, r5, r5, lsr #31
 216 0148 04EBD470 		add	r0, r4, r4, lsr #31
ARM GAS  C:\Users\JASON\AppData\Local\Temp\ccLhWZR8.s 			page 11


 217 014c 1F23     		movs	r3, #31
 218 014e 12B2     		sxth	r2, r2
 219 0150 41F34F01 		sbfx	r1, r1, #1, #16
 220 0154 40F34F00 		sbfx	r0, r0, #1, #16
 221 0158 FFF7FEFF 		bl	TFT_drawCircle
 222              	.LVL27:
 223 015c 33E0     		b	.L1
 224              	.L6:
  90:SourceFiles\asw/swc_clock_display.c ****     }
  91:SourceFiles\asw/swc_clock_display.c ****     else if(blink == 1)
 225              		.loc 1 91 0
 226 015e 012B     		cmp	r3, #1
 227 0160 31D1     		bne	.L1
  92:SourceFiles\asw/swc_clock_display.c ****     {
  93:SourceFiles\asw/swc_clock_display.c ****         TFT_drawCircle(TFT_width()/2, TFT_height()/2, (TFT_width()/2) - 6, BROWN);
 228              		.loc 1 93 0
 229 0162 FFF7FEFF 		bl	TFT_width
 230              	.LVL28:
 231 0166 0446     		mov	r4, r0
 232 0168 FFF7FEFF 		bl	TFT_height
 233              	.LVL29:
 234 016c 0546     		mov	r5, r0
 235 016e FFF7FEFF 		bl	TFT_width
 236              	.LVL30:
 237 0172 00EBD070 		add	r0, r0, r0, lsr #31
 238 0176 4210     		asrs	r2, r0, #1
 239 0178 063A     		subs	r2, r2, #6
 240 017a 05EBD571 		add	r1, r5, r5, lsr #31
 241 017e 04EBD470 		add	r0, r4, r4, lsr #31
 242 0182 40F23D23 		movw	r3, #573
 243 0186 12B2     		sxth	r2, r2
 244 0188 41F34F01 		sbfx	r1, r1, #1, #16
 245 018c 40F34F00 		sbfx	r0, r0, #1, #16
 246 0190 FFF7FEFF 		bl	TFT_drawCircle
 247              	.LVL31:
  94:SourceFiles\asw/swc_clock_display.c ****         TFT_drawCircle(TFT_width()/2, TFT_height()/2, (TFT_width()/2) - 3, GREEN);
 248              		.loc 1 94 0
 249 0194 FFF7FEFF 		bl	TFT_width
 250              	.LVL32:
 251 0198 0446     		mov	r4, r0
 252 019a FFF7FEFF 		bl	TFT_height
 253              	.LVL33:
 254 019e 0546     		mov	r5, r0
 255 01a0 FFF7FEFF 		bl	TFT_width
 256              	.LVL34:
 257 01a4 00EBD070 		add	r0, r0, r0, lsr #31
 258 01a8 4210     		asrs	r2, r0, #1
 259 01aa 033A     		subs	r2, r2, #3
 260 01ac 05EBD571 		add	r1, r5, r5, lsr #31
 261 01b0 04EBD470 		add	r0, r4, r4, lsr #31
 262 01b4 4FF4FC63 		mov	r3, #2016
 263 01b8 12B2     		sxth	r2, r2
 264 01ba 41F34F01 		sbfx	r1, r1, #1, #16
 265 01be 40F34F00 		sbfx	r0, r0, #1, #16
 266 01c2 FFF7FEFF 		bl	TFT_drawCircle
 267              	.LVL35:
 268              	.L1:
ARM GAS  C:\Users\JASON\AppData\Local\Temp\ccLhWZR8.s 			page 12


  95:SourceFiles\asw/swc_clock_display.c ****     }
  96:SourceFiles\asw/swc_clock_display.c ****     
  97:SourceFiles\asw/swc_clock_display.c ****     /* USER CODE END CLOCK_DISPLAY__run */
  98:SourceFiles\asw/swc_clock_display.c **** }
 269              		.loc 1 98 0
 270 01c6 0FB0     		add	sp, sp, #60
 271              		.cfi_def_cfa_offset 12
 272              		@ sp needed
 273 01c8 30BD     		pop	{r4, r5, pc}
 274              	.L12:
 275 01ca 00BF     		.align	2
 276              	.L11:
 277 01cc 00000000 		.word	SO_CLOCK_signal
 278 01d0 00000000 		.word	.LANCHOR0
 279 01d4 56555555 		.word	1431655766
 280              		.cfi_endproc
 281              	.LFE131:
 282              		.size	CLOCK_DISPLAY__run, .-CLOCK_DISPLAY__run
 283              		.bss
 284              		.align	2
 285              		.set	.LANCHOR0,. + 0
 286              		.type	asciiConvert.7659, %object
 287              		.size	asciiConvert.7659, 30
 288              	asciiConvert.7659:
 289 0000 00000000 		.space	30
 289      00000000 
 289      00000000 
 289      00000000 
 289      00000000 
 290              		.type	blinkCounter.7660, %object
 291              		.size	blinkCounter.7660, 2
 292              	blinkCounter.7660:
 293 001e 0000     		.space	2
 294              		.type	blink.7661, %object
 295              		.size	blink.7661, 2
 296              	blink.7661:
 297 0020 0000     		.space	2
 298              		.text
 299              	.Letext0:
 300              		.file 3 "c:\\program files (x86)\\cypress\\psoc creator\\4.4\\psoc creator\\import\\gnu\\arm\\5.4.
 301              		.file 4 "c:\\program files (x86)\\cypress\\psoc creator\\4.4\\psoc creator\\import\\gnu\\arm\\5.4.
 302              		.file 5 "c:\\program files (x86)\\cypress\\psoc creator\\4.4\\psoc creator\\import\\gnu\\arm\\5.4.
 303              		.file 6 "Generated_Source\\PSoC5/ErikaOS_common_ee_types.inc"
 304              		.file 7 "Generated_Source\\PSoC5/ErikaOS_cortex_mx_ee_cpu.inc"
 305              		.file 8 "Generated_Source\\PSoC5/ErikaOS_ee_oo_common.inc"
 306              		.file 9 ".\\SourceFiles\\bsw/global.h"
 307              		.file 10 ".\\SourceFiles\\rte/rte_types.h"
 308              		.file 11 ".\\SourceFiles\\rte/rte.h"
 309              		.file 12 ".\\SourceFiles\\bsw\\tft/tft.h"
 310              		.file 13 ".\\SourceFiles\\asw/clock_statemachine_cfg.h"
 311              		.file 14 ".\\SourceFiles\\asw/clock_statemachine.h"
 312              		.file 15 ".\\SourceFiles\\rte/sc_clock_type.h"
 313              		.file 16 "Generated_Source\\PSoC5/ErikaOS_ee_oo_intfunc.inc"
 314              		.file 17 "Generated_Source\\PSoC5/ErikaOS_cortex_mx_ee_context.inc"
 315              		.file 18 "Generated_Source\\PSoC5/ErikaOS_common_ee_primitives.inc"
 316              		.file 19 "Generated_Source\\PSoC5/core_cm3.h"
 317              		.file 20 ".\\SourceFiles\\rte/sp_common.h"
ARM GAS  C:\Users\JASON\AppData\Local\Temp\ccLhWZR8.s 			page 13


 318              		.file 21 ".\\SourceFiles\\bsw/intToASCII.h"